Archive member included to satisfy reference by file (symbol)

c:/program files/microchip/xc32/v4.21/bin/bin/../../lib/gcc/pic32c/8.3.1/../../../../pic32c/lib/arm/v5te/nofp\libpic32c.a(data_init_0_1.o)
                              (__copy_needed)
c:/program files/microchip/xc32/v4.21/bin/bin/../../lib/gcc/pic32c/8.3.1/arm/v5te/nofp\libgcc.a(_udivsi3.o)
                              build/lcdc_rgba8888_mxt_9x60_wvga/debug/_ext/51791817/gfx_canvas.o (__aeabi_uidiv)
c:/program files/microchip/xc32/v4.21/bin/bin/../../lib/gcc/pic32c/8.3.1/arm/v5te/nofp\libgcc.a(_divsi3.o)
                              build/lcdc_rgba8888_mxt_9x60_wvga/debug/_ext/1483321925/legato_math.o (__aeabi_idiv)
c:/program files/microchip/xc32/v4.21/bin/bin/../../lib/gcc/pic32c/8.3.1/arm/v5te/nofp\libgcc.a(_dvmd_tls.o)
                              c:/program files/microchip/xc32/v4.21/bin/bin/../../lib/gcc/pic32c/8.3.1/arm/v5te/nofp\libgcc.a(_udivsi3.o) (__aeabi_idiv0)
c:/program files/microchip/xc32/v4.21/bin/bin/../../lib/gcc/pic32c/8.3.1/arm/v5te/nofp\libgcc.a(_arm_addsubsf3.o)
                              build/lcdc_rgba8888_mxt_9x60_wvga/debug/_ext/1483321925/legato_math.o (__aeabi_fsub)
c:/program files/microchip/xc32/v4.21/bin/bin/../../lib/gcc/pic32c/8.3.1/arm/v5te/nofp\libgcc.a(_arm_muldivsf3.o)
                              build/lcdc_rgba8888_mxt_9x60_wvga/debug/_ext/95971993/gfx_driver.o (__aeabi_fmul)
c:/program files/microchip/xc32/v4.21/bin/bin/../../lib/gcc/pic32c/8.3.1/arm/v5te/nofp\libgcc.a(_arm_cmpsf2.o)
                              build/lcdc_rgba8888_mxt_9x60_wvga/debug/_ext/1483321925/legato_math.o (__aeabi_fcmplt)
c:/program files/microchip/xc32/v4.21/bin/bin/../../lib/gcc/pic32c/8.3.1/arm/v5te/nofp\libgcc.a(_arm_fixsfsi.o)
                              build/lcdc_rgba8888_mxt_9x60_wvga/debug/_ext/95971993/gfx_driver.o (__aeabi_f2iz)
c:/program files/microchip/xc32/v4.21/bin/bin/../../lib/gcc/pic32c/8.3.1/arm/v5te/nofp\libgcc.a(_arm_fixunssfsi.o)
                              build/lcdc_rgba8888_mxt_9x60_wvga/debug/_ext/95971993/gfx_driver.o (__aeabi_f2uiz)
c:/program files/microchip/xc32/v4.21/bin/bin/../../lib/gcc/pic32c/8.3.1/arm/v5te/nofp\libgcc.a(_aeabi_uldivmod.o)
                              build/lcdc_rgba8888_mxt_9x60_wvga/debug/_ext/1359593799/sys_time.o (__aeabi_uldivmod)
c:/program files/microchip/xc32/v4.21/bin/bin/../../lib/gcc/pic32c/8.3.1/arm/v5te/nofp\libgcc.a(_udivmoddi4.o)
                              c:/program files/microchip/xc32/v4.21/bin/bin/../../lib/gcc/pic32c/8.3.1/arm/v5te/nofp\libgcc.a(_aeabi_uldivmod.o) (__udivmoddi4)
c:/program files/microchip/xc32/v4.21/bin/bin/../../lib/gcc/pic32c/8.3.1/../../../../pic32c/lib/arm/v5te/nofp\libm-musl.a(atan.o)
                              build/lcdc_rgba8888_mxt_9x60_wvga/debug/_ext/1483321925/legato_math.o (atan)
c:/program files/microchip/xc32/v4.21/bin/bin/../../lib/gcc/pic32c/8.3.1/../../../../pic32c/lib/arm/v5te/nofp\libm-musl.a(fabs.o)
                              c:/program files/microchip/xc32/v4.21/bin/bin/../../lib/gcc/pic32c/8.3.1/../../../../pic32c/lib/arm/v5te/nofp\libm-musl.a(atan.o) (fabs)
c:/program files/microchip/xc32/v4.21/bin/bin/../../lib/gcc/pic32c/8.3.1/../../../../pic32c/lib/arm/v5te/nofp\libg-musl.a(__libc_start_main.o)
                              build/lcdc_rgba8888_mxt_9x60_wvga/debug/_ext/1455094228/cstartup.o (__libc_init_array)
c:/program files/microchip/xc32/v4.21/bin/bin/../../lib/gcc/pic32c/8.3.1/../../../../pic32c/lib/arm/v5te/nofp\libg-musl.a(libc.o)
                              c:/program files/microchip/xc32/v4.21/bin/bin/../../lib/gcc/pic32c/8.3.1/../../../../pic32c/lib/arm/v5te/nofp\libg-musl.a(__libc_start_main.o) (__progname_full)
c:/program files/microchip/xc32/v4.21/bin/bin/../../lib/gcc/pic32c/8.3.1/../../../../pic32c/lib/arm/v5te/nofp\libg-musl.a(__sio_printf_dosux.o)
                              (_printf_cdnopsuxX)
c:/program files/microchip/xc32/v4.21/bin/bin/../../lib/gcc/pic32c/8.3.1/../../../../pic32c/lib/arm/v5te/nofp\libg-musl.a(__sio_sprintf_dosux.o)
                              (_sprintf_cdnopsuxX)
c:/program files/microchip/xc32/v4.21/bin/bin/../../lib/gcc/pic32c/8.3.1/../../../../pic32c/lib/arm/v5te/nofp\libg-musl.a(__sio_sscanf_dosux.o)
                              (_sscanf_cdnopsuxX)
c:/program files/microchip/xc32/v4.21/bin/bin/../../lib/gcc/pic32c/8.3.1/../../../../pic32c/lib/arm/v5te/nofp\libg-musl.a(__fmt_d.o)
                              c:/program files/microchip/xc32/v4.21/bin/bin/../../lib/gcc/pic32c/8.3.1/../../../../pic32c/lib/arm/v5te/nofp\libg-musl.a(__sio_printf_dosux.o) (__fmt_d_needed)
c:/program files/microchip/xc32/v4.21/bin/bin/../../lib/gcc/pic32c/8.3.1/../../../../pic32c/lib/arm/v5te/nofp\libg-musl.a(__fmt_o.o)
                              c:/program files/microchip/xc32/v4.21/bin/bin/../../lib/gcc/pic32c/8.3.1/../../../../pic32c/lib/arm/v5te/nofp\libg-musl.a(__sio_printf_dosux.o) (__fmt_o_needed)
c:/program files/microchip/xc32/v4.21/bin/bin/../../lib/gcc/pic32c/8.3.1/../../../../pic32c/lib/arm/v5te/nofp\libg-musl.a(__fmt_s.o)
                              c:/program files/microchip/xc32/v4.21/bin/bin/../../lib/gcc/pic32c/8.3.1/../../../../pic32c/lib/arm/v5te/nofp\libg-musl.a(__sio_printf_dosux.o) (__fmt_s_needed)
c:/program files/microchip/xc32/v4.21/bin/bin/../../lib/gcc/pic32c/8.3.1/../../../../pic32c/lib/arm/v5te/nofp\libg-musl.a(__fmt_u.o)
                              c:/program files/microchip/xc32/v4.21/bin/bin/../../lib/gcc/pic32c/8.3.1/../../../../pic32c/lib/arm/v5te/nofp\libg-musl.a(__fmt_d.o) (__cvt_u)
c:/program files/microchip/xc32/v4.21/bin/bin/../../lib/gcc/pic32c/8.3.1/../../../../pic32c/lib/arm/v5te/nofp\libg-musl.a(__fmt_x.o)
                              c:/program files/microchip/xc32/v4.21/bin/bin/../../lib/gcc/pic32c/8.3.1/../../../../pic32c/lib/arm/v5te/nofp\libg-musl.a(__sio_printf_dosux.o) (__fmt_x_needed)
c:/program files/microchip/xc32/v4.21/bin/bin/../../lib/gcc/pic32c/8.3.1/../../../../pic32c/lib/arm/v5te/nofp\libg-musl.a(__pop_int.o)
                              c:/program files/microchip/xc32/v4.21/bin/bin/../../lib/gcc/pic32c/8.3.1/../../../../pic32c/lib/arm/v5te/nofp\libg-musl.a(__sio_printf_dosux.o) (__pop_int_needed)
c:/program files/microchip/xc32/v4.21/bin/bin/../../lib/gcc/pic32c/8.3.1/../../../../pic32c/lib/arm/v5te/nofp\libg-musl.a(__pop_ptr.o)
                              c:/program files/microchip/xc32/v4.21/bin/bin/../../lib/gcc/pic32c/8.3.1/../../../../pic32c/lib/arm/v5te/nofp\libg-musl.a(__sio_printf_dosux.o) (__pop_ptr_needed)
c:/program files/microchip/xc32/v4.21/bin/bin/../../lib/gcc/pic32c/8.3.1/../../../../pic32c/lib/arm/v5te/nofp\libg-musl.a(__printf_core.o)
                              c:/program files/microchip/xc32/v4.21/bin/bin/../../lib/gcc/pic32c/8.3.1/../../../../pic32c/lib/arm/v5te/nofp\libg-musl.a(__fmt_d.o) (__pad)
c:/program files/microchip/xc32/v4.21/bin/bin/../../lib/gcc/pic32c/8.3.1/../../../../pic32c/lib/arm/v5te/nofp\libg-musl.a(__scan_d.o)
                              c:/program files/microchip/xc32/v4.21/bin/bin/../../lib/gcc/pic32c/8.3.1/../../../../pic32c/lib/arm/v5te/nofp\libg-musl.a(__sio_sscanf_dosux.o) (__scan_d_needed)
c:/program files/microchip/xc32/v4.21/bin/bin/../../lib/gcc/pic32c/8.3.1/../../../../pic32c/lib/arm/v5te/nofp\libg-musl.a(__scan_i.o)
                              c:/program files/microchip/xc32/v4.21/bin/bin/../../lib/gcc/pic32c/8.3.1/../../../../pic32c/lib/arm/v5te/nofp\libg-musl.a(__scan_d.o) (__scan_i_needed)
c:/program files/microchip/xc32/v4.21/bin/bin/../../lib/gcc/pic32c/8.3.1/../../../../pic32c/lib/arm/v5te/nofp\libg-musl.a(__scan_o.o)
                              c:/program files/microchip/xc32/v4.21/bin/bin/../../lib/gcc/pic32c/8.3.1/../../../../pic32c/lib/arm/v5te/nofp\libg-musl.a(__sio_sscanf_dosux.o) (__scan_o_needed)
c:/program files/microchip/xc32/v4.21/bin/bin/../../lib/gcc/pic32c/8.3.1/../../../../pic32c/lib/arm/v5te/nofp\libg-musl.a(__scan_s.o)
                              c:/program files/microchip/xc32/v4.21/bin/bin/../../lib/gcc/pic32c/8.3.1/../../../../pic32c/lib/arm/v5te/nofp\libg-musl.a(__sio_sscanf_dosux.o) (__scan_s_needed)
c:/program files/microchip/xc32/v4.21/bin/bin/../../lib/gcc/pic32c/8.3.1/../../../../pic32c/lib/arm/v5te/nofp\libg-musl.a(__scan_u.o)
                              c:/program files/microchip/xc32/v4.21/bin/bin/../../lib/gcc/pic32c/8.3.1/../../../../pic32c/lib/arm/v5te/nofp\libg-musl.a(__sio_sscanf_dosux.o) (__scan_u_needed)
c:/program files/microchip/xc32/v4.21/bin/bin/../../lib/gcc/pic32c/8.3.1/../../../../pic32c/lib/arm/v5te/nofp\libg-musl.a(__scan_x.o)
                              c:/program files/microchip/xc32/v4.21/bin/bin/../../lib/gcc/pic32c/8.3.1/../../../../pic32c/lib/arm/v5te/nofp\libg-musl.a(__sio_sscanf_dosux.o) (__scan_x_needed)
c:/program files/microchip/xc32/v4.21/bin/bin/../../lib/gcc/pic32c/8.3.1/../../../../pic32c/lib/arm/v5te/nofp\libg-musl.a(__scanf_core.o)
                              c:/program files/microchip/xc32/v4.21/bin/bin/../../lib/gcc/pic32c/8.3.1/../../../../pic32c/lib/arm/v5te/nofp\libg-musl.a(__scan_d.o) (__skipws)
c:/program files/microchip/xc32/v4.21/bin/bin/../../lib/gcc/pic32c/8.3.1/../../../../pic32c/lib/arm/v5te/nofp\libg-musl.a(stdout.o)
                              c:/program files/microchip/xc32/v4.21/bin/bin/../../lib/gcc/pic32c/8.3.1/../../../../pic32c/lib/arm/v5te/nofp\libg-musl.a(__sio_printf_dosux.o) (_stdout)
c:/program files/microchip/xc32/v4.21/bin/bin/../../lib/gcc/pic32c/8.3.1/../../../../pic32c/lib/arm/v5te/nofp\libg-musl.a(putchar.o)
                              build/lcdc_rgba8888_mxt_9x60_wvga/debug/_ext/1206263599/legato_variableheap.o (putchar)
c:/program files/microchip/xc32/v4.21/bin/bin/../../lib/gcc/pic32c/8.3.1/../../../../pic32c/lib/arm/v5te/nofp\libg-musl.a(puts.o)
                              build/lcdc_rgba8888_mxt_9x60_wvga/debug/_ext/1206263599/legato_variableheap.o (puts)
c:/program files/microchip/xc32/v4.21/bin/bin/../../lib/gcc/pic32c/8.3.1/../../../../pic32c/lib/arm/v5te/nofp\libg-musl.a(atoi.o)
                              c:/program files/microchip/xc32/v4.21/bin/bin/../../lib/gcc/pic32c/8.3.1/../../../../pic32c/lib/arm/v5te/nofp\libg-musl.a(__printf_core.o) (atoi)
c:/program files/microchip/xc32/v4.21/bin/bin/../../lib/gcc/pic32c/8.3.1/../../../../pic32c/lib/arm/v5te/nofp\libg-musl.a(strtol.o)
                              c:/program files/microchip/xc32/v4.21/bin/bin/../../lib/gcc/pic32c/8.3.1/../../../../pic32c/lib/arm/v5te/nofp\libg-musl.a(__scan_i.o) (strtoull)
c:/program files/microchip/xc32/v4.21/bin/bin/../../lib/gcc/pic32c/8.3.1/../../../../pic32c/lib/arm/v5te/nofp\libg-musl.a(memcpy.o)
                              build/lcdc_rgba8888_mxt_9x60_wvga/debug/_ext/802015102/drv_maxtouch.o (memcpy)
c:/program files/microchip/xc32/v4.21/bin/bin/../../lib/gcc/pic32c/8.3.1/../../../../pic32c/lib/arm/v5te/nofp\libg-musl.a(memset.o)
                              build/lcdc_rgba8888_mxt_9x60_wvga/debug/_ext/802015102/drv_maxtouch.o (memset)
c:/program files/microchip/xc32/v4.21/bin/bin/../../lib/gcc/pic32c/8.3.1/../../../../pic32c/lib/arm/v5te/nofp\libg-musl.a(strlen.o)
                              build/lcdc_rgba8888_mxt_9x60_wvga/debug/_ext/1881677221/lodepng.o (strlen)
c:/program files/microchip/xc32/v4.21/bin/bin/../../lib/gcc/pic32c/8.3.1/../../../../pic32c/lib/arm/v5te/nofp\libg-musl.a(strcmp.o)
                              build/lcdc_rgba8888_mxt_9x60_wvga/debug/_ext/802015102/drv_maxtouch.o (strcmp)
c:/program files/microchip/xc32/v4.21/bin/bin/../../lib/gcc/pic32c/8.3.1/../../../../pic32c/lib/arm/v5te/nofp\libg-musl.a(strncmp.o)
                              build/lcdc_rgba8888_mxt_9x60_wvga/debug/_ext/802015102/drv_maxtouch.o (strncmp)
c:/program files/microchip/xc32/v4.21/bin/bin/../../lib/gcc/pic32c/8.3.1/../../../../pic32c/lib/arm/v5te/nofp\libg-musl.a(strrchr.o)
                              build/lcdc_rgba8888_mxt_9x60_wvga/debug/_ext/802015102/drv_maxtouch.o (strrchr)
c:/program files/microchip/xc32/v4.21/bin/bin/../../lib/gcc/pic32c/8.3.1/../../../../pic32c/lib/arm/v5te/nofp\libg-musl.a(strtok.o)
                              build/lcdc_rgba8888_mxt_9x60_wvga/debug/_ext/802015102/drv_maxtouch.o (strtok)
c:/program files/microchip/xc32/v4.21/bin/bin/../../lib/gcc/pic32c/8.3.1/../../../../pic32c/lib/arm/v5te/nofp\libg-musl.a(isxdigit.o)
                              c:/program files/microchip/xc32/v4.21/bin/bin/../../lib/gcc/pic32c/8.3.1/../../../../pic32c/lib/arm/v5te/nofp\libg-musl.a(__scan_i.o) (isxdigit)
c:/program files/microchip/xc32/v4.21/bin/bin/../../lib/gcc/pic32c/8.3.1/../../../../pic32c/lib/arm/v5te/nofp\libg-musl.a(tolower.o)
                              c:/program files/microchip/xc32/v4.21/bin/bin/../../lib/gcc/pic32c/8.3.1/../../../../pic32c/lib/arm/v5te/nofp\libg-musl.a(__printf_core.o) (tolower)
c:/program files/microchip/xc32/v4.21/bin/bin/../../lib/gcc/pic32c/8.3.1/../../../../pic32c/lib/arm/v5te/nofp\libg-musl.a(toupper.o)
                              c:/program files/microchip/xc32/v4.21/bin/bin/../../lib/gcc/pic32c/8.3.1/../../../../pic32c/lib/arm/v5te/nofp\libg-musl.a(__fmt_x.o) (toupper)
c:/program files/microchip/xc32/v4.21/bin/bin/../../lib/gcc/pic32c/8.3.1/../../../../pic32c/lib/arm/v5te/nofp\libg-musl.a(__environ.o)
                              c:/program files/microchip/xc32/v4.21/bin/bin/../../lib/gcc/pic32c/8.3.1/../../../../pic32c/lib/arm/v5te/nofp\libg-musl.a(__libc_start_main.o) (__environ)
c:/program files/microchip/xc32/v4.21/bin/bin/../../lib/gcc/pic32c/8.3.1/../../../../pic32c/lib/arm/v5te/nofp\libg-musl.a(__errno_location.o)
                              c:/program files/microchip/xc32/v4.21/bin/bin/../../lib/gcc/pic32c/8.3.1/../../../../pic32c/lib/arm/v5te/nofp\libg-musl.a(__printf_core.o) (__errno_val)
c:/program files/microchip/xc32/v4.21/bin/bin/../../lib/gcc/pic32c/8.3.1/../../../../pic32c/lib/arm/v5te/nofp\libg-musl.a(intscan.o)
                              c:/program files/microchip/xc32/v4.21/bin/bin/../../lib/gcc/pic32c/8.3.1/../../../../pic32c/lib/arm/v5te/nofp\libg-musl.a(strtol.o) (__intscan)
c:/program files/microchip/xc32/v4.21/bin/bin/../../lib/gcc/pic32c/8.3.1/../../../../pic32c/lib/arm/v5te/nofp\libg-musl.a(shgetc.o)
                              c:/program files/microchip/xc32/v4.21/bin/bin/../../lib/gcc/pic32c/8.3.1/../../../../pic32c/lib/arm/v5te/nofp\libg-musl.a(__scanf_core.o) (__shlim)
c:/program files/microchip/xc32/v4.21/bin/bin/../../lib/gcc/pic32c/8.3.1/../../../../pic32c/lib/arm/v5te/nofp\libg-musl.a(__int_vfprintf.o)
                              c:/program files/microchip/xc32/v4.21/bin/bin/../../lib/gcc/pic32c/8.3.1/../../../../pic32c/lib/arm/v5te/nofp\libg-musl.a(__sio_printf_dosux.o) (__vfprintf)
c:/program files/microchip/xc32/v4.21/bin/bin/../../lib/gcc/pic32c/8.3.1/../../../../pic32c/lib/arm/v5te/nofp\libg-musl.a(__int_vsprintf.o)
                              c:/program files/microchip/xc32/v4.21/bin/bin/../../lib/gcc/pic32c/8.3.1/../../../../pic32c/lib/arm/v5te/nofp\libg-musl.a(__sio_sprintf_dosux.o) (__vsprintf)
c:/program files/microchip/xc32/v4.21/bin/bin/../../lib/gcc/pic32c/8.3.1/../../../../pic32c/lib/arm/v5te/nofp\libg-musl.a(__int_vsscanf.o)
                              c:/program files/microchip/xc32/v4.21/bin/bin/../../lib/gcc/pic32c/8.3.1/../../../../pic32c/lib/arm/v5te/nofp\libg-musl.a(__sio_sscanf_dosux.o) (__vsscanf)
c:/program files/microchip/xc32/v4.21/bin/bin/../../lib/gcc/pic32c/8.3.1/../../../../pic32c/lib/arm/v5te/nofp\libg-musl.a(__string_read.o)
                              c:/program files/microchip/xc32/v4.21/bin/bin/../../lib/gcc/pic32c/8.3.1/../../../../pic32c/lib/arm/v5te/nofp\libg-musl.a(__int_vsscanf.o) (__string_read)
c:/program files/microchip/xc32/v4.21/bin/bin/../../lib/gcc/pic32c/8.3.1/../../../../pic32c/lib/arm/v5te/nofp\libg-musl.a(__uflow.o)
                              c:/program files/microchip/xc32/v4.21/bin/bin/../../lib/gcc/pic32c/8.3.1/../../../../pic32c/lib/arm/v5te/nofp\libg-musl.a(shgetc.o) (__uflow)
c:/program files/microchip/xc32/v4.21/bin/bin/../../lib/gcc/pic32c/8.3.1/../../../../pic32c/lib/arm/v5te/nofp\libg-musl.a(fputs.o)
                              c:/program files/microchip/xc32/v4.21/bin/bin/../../lib/gcc/pic32c/8.3.1/../../../../pic32c/lib/arm/v5te/nofp\libg-musl.a(puts.o) (fputs)
c:/program files/microchip/xc32/v4.21/bin/bin/../../lib/gcc/pic32c/8.3.1/../../../../pic32c/lib/arm/v5te/nofp\libg-musl.a(__io_init_needed.o)
                              c:/program files/microchip/xc32/v4.21/bin/bin/../../lib/gcc/pic32c/8.3.1/../../../../pic32c/lib/arm/v5te/nofp\libg-musl.a(stdout.o) (__io_init_needed)
c:/program files/microchip/xc32/v4.21/bin/bin/../../lib/gcc/pic32c/8.3.1/../../../../pic32c/lib/arm/v5te/nofp\libg-musl.a(__io_rw_needed.o)
                              c:/program files/microchip/xc32/v4.21/bin/bin/../../lib/gcc/pic32c/8.3.1/../../../../pic32c/lib/arm/v5te/nofp\libg-musl.a(__scanf_core.o) (__io_rw_needed)
c:/program files/microchip/xc32/v4.21/bin/bin/../../lib/gcc/pic32c/8.3.1/../../../../pic32c/lib/arm/v5te/nofp\libg-musl.a(__pop_float.o)
                              c:/program files/microchip/xc32/v4.21/bin/bin/../../lib/gcc/pic32c/8.3.1/../../../../pic32c/lib/arm/v5te/nofp\libg-musl.a(__printf_core.o) (__pop_float)
c:/program files/microchip/xc32/v4.21/bin/bin/../../lib/gcc/pic32c/8.3.1/../../../../pic32c/lib/arm/v5te/nofp\libg-musl.a(__push_float.o)
                              c:/program files/microchip/xc32/v4.21/bin/bin/../../lib/gcc/pic32c/8.3.1/../../../../pic32c/lib/arm/v5te/nofp\libg-musl.a(__scanf_core.o) (__push_float)
c:/program files/microchip/xc32/v4.21/bin/bin/../../lib/gcc/pic32c/8.3.1/../../../../pic32c/lib/arm/v5te/nofp\libg-musl.a(__push_int.o)
                              c:/program files/microchip/xc32/v4.21/bin/bin/../../lib/gcc/pic32c/8.3.1/../../../../pic32c/lib/arm/v5te/nofp\libg-musl.a(__scanf_core.o) (__push_int)
c:/program files/microchip/xc32/v4.21/bin/bin/../../lib/gcc/pic32c/8.3.1/../../../../pic32c/lib/arm/v5te/nofp\libg-musl.a(__towrite_rw.o)
                              c:/program files/microchip/xc32/v4.21/bin/bin/../../lib/gcc/pic32c/8.3.1/../../../../pic32c/lib/arm/v5te/nofp\libg-musl.a(__io_rw_needed.o) (__towrite_rw_needed)
c:/program files/microchip/xc32/v4.21/bin/bin/../../lib/gcc/pic32c/8.3.1/../../../../pic32c/lib/arm/v5te/nofp\libg-musl.a(fwrite.o)
                              c:/program files/microchip/xc32/v4.21/bin/bin/../../lib/gcc/pic32c/8.3.1/../../../../pic32c/lib/arm/v5te/nofp\libg-musl.a(fputs.o) (fwrite)
c:/program files/microchip/xc32/v4.21/bin/bin/../../lib/gcc/pic32c/8.3.1/../../../../pic32c/lib/arm/v5te/nofp\libg-musl.a(putc.o)
                              c:/program files/microchip/xc32/v4.21/bin/bin/../../lib/gcc/pic32c/8.3.1/../../../../pic32c/lib/arm/v5te/nofp\libg-musl.a(putchar.o) (fputc)
c:/program files/microchip/xc32/v4.21/bin/bin/../../lib/gcc/pic32c/8.3.1/../../../../pic32c/lib/arm/v5te/nofp\libg-musl.a(memrchr.o)
                              c:/program files/microchip/xc32/v4.21/bin/bin/../../lib/gcc/pic32c/8.3.1/../../../../pic32c/lib/arm/v5te/nofp\libg-musl.a(strrchr.o) (__memrchr)
c:/program files/microchip/xc32/v4.21/bin/bin/../../lib/gcc/pic32c/8.3.1/../../../../pic32c/lib/arm/v5te/nofp\libg-musl.a(memchr.o)
                              c:/program files/microchip/xc32/v4.21/bin/bin/../../lib/gcc/pic32c/8.3.1/../../../../pic32c/lib/arm/v5te/nofp\libg-musl.a(__string_read.o) (memchr)
c:/program files/microchip/xc32/v4.21/bin/bin/../../lib/gcc/pic32c/8.3.1/../../../../pic32c/lib/arm/v5te/nofp\libg-musl.a(strcspn.o)
                              c:/program files/microchip/xc32/v4.21/bin/bin/../../lib/gcc/pic32c/8.3.1/../../../../pic32c/lib/arm/v5te/nofp\libg-musl.a(strtok.o) (strcspn)
c:/program files/microchip/xc32/v4.21/bin/bin/../../lib/gcc/pic32c/8.3.1/../../../../pic32c/lib/arm/v5te/nofp\libg-musl.a(strspn.o)
                              c:/program files/microchip/xc32/v4.21/bin/bin/../../lib/gcc/pic32c/8.3.1/../../../../pic32c/lib/arm/v5te/nofp\libg-musl.a(strtok.o) (strspn)
c:/program files/microchip/xc32/v4.21/bin/bin/../../lib/gcc/pic32c/8.3.1/../../../../pic32c/lib/arm/v5te/nofp\libg-musl.a(__int_vfscanf.o)
                              c:/program files/microchip/xc32/v4.21/bin/bin/../../lib/gcc/pic32c/8.3.1/../../../../pic32c/lib/arm/v5te/nofp\libg-musl.a(__int_vsscanf.o) (__vfscanf)
c:/program files/microchip/xc32/v4.21/bin/bin/../../lib/gcc/pic32c/8.3.1/../../../../pic32c/lib/arm/v5te/nofp\libg-musl.a(__int_vsnprintf.o)
                              c:/program files/microchip/xc32/v4.21/bin/bin/../../lib/gcc/pic32c/8.3.1/../../../../pic32c/lib/arm/v5te/nofp\libg-musl.a(__int_vsprintf.o) (__vsnprintf)
c:/program files/microchip/xc32/v4.21/bin/bin/../../lib/gcc/pic32c/8.3.1/../../../../pic32c/lib/arm/v5te/nofp\libg-musl.a(__toread.o)
                              c:/program files/microchip/xc32/v4.21/bin/bin/../../lib/gcc/pic32c/8.3.1/../../../../pic32c/lib/arm/v5te/nofp\libg-musl.a(__uflow.o) (__toread)
c:/program files/microchip/xc32/v4.21/bin/bin/../../lib/gcc/pic32c/8.3.1/../../../../pic32c/lib/arm/v5te/nofp\libg-musl.a(__fopen_rw.o)
                              c:/program files/microchip/xc32/v4.21/bin/bin/../../lib/gcc/pic32c/8.3.1/../../../../pic32c/lib/arm/v5te/nofp\libg-musl.a(__io_rw_needed.o) (__fopen_rw_needed)
c:/program files/microchip/xc32/v4.21/bin/bin/../../lib/gcc/pic32c/8.3.1/../../../../pic32c/lib/arm/v5te/nofp\libg-musl.a(__ftello_rw.o)
                              c:/program files/microchip/xc32/v4.21/bin/bin/../../lib/gcc/pic32c/8.3.1/../../../../pic32c/lib/arm/v5te/nofp\libg-musl.a(__io_rw_needed.o) (__ftello_adj_rw_needed)
c:/program files/microchip/xc32/v4.21/bin/bin/../../lib/gcc/pic32c/8.3.1/../../../../pic32c/lib/arm/v5te/nofp\libg-musl.a(__init_stdio.o)
                              c:/program files/microchip/xc32/v4.21/bin/bin/../../lib/gcc/pic32c/8.3.1/../../../../pic32c/lib/arm/v5te/nofp\libg-musl.a(__io_init_needed.o) (__init_stdio_needed)
c:/program files/microchip/xc32/v4.21/bin/bin/../../lib/gcc/pic32c/8.3.1/../../../../pic32c/lib/arm/v5te/nofp\libg-musl.a(__io_buf_needed.o)
                              c:/program files/microchip/xc32/v4.21/bin/bin/../../lib/gcc/pic32c/8.3.1/../../../../pic32c/lib/arm/v5te/nofp\libg-musl.a(__io_rw_needed.o) (__io_buf_needed)
c:/program files/microchip/xc32/v4.21/bin/bin/../../lib/gcc/pic32c/8.3.1/../../../../pic32c/lib/arm/v5te/nofp\libg-musl.a(__io_file_needed.o)
                              c:/program files/microchip/xc32/v4.21/bin/bin/../../lib/gcc/pic32c/8.3.1/../../../../pic32c/lib/arm/v5te/nofp\libg-musl.a(__io_init_needed.o) (__io_file_needed)
c:/program files/microchip/xc32/v4.21/bin/bin/../../lib/gcc/pic32c/8.3.1/../../../../pic32c/lib/arm/v5te/nofp\libg-musl.a(__io_std_needed.o)
                              c:/program files/microchip/xc32/v4.21/bin/bin/../../lib/gcc/pic32c/8.3.1/../../../../pic32c/lib/arm/v5te/nofp\libg-musl.a(__io_buf_needed.o) (__io_std_needed)
c:/program files/microchip/xc32/v4.21/bin/bin/../../lib/gcc/pic32c/8.3.1/../../../../pic32c/lib/arm/v5te/nofp\libg-musl.a(__out.o)
                              c:/program files/microchip/xc32/v4.21/bin/bin/../../lib/gcc/pic32c/8.3.1/../../../../pic32c/lib/arm/v5te/nofp\libg-musl.a(__fopen_rw.o) (__stdio_write_unbuffered)
c:/program files/microchip/xc32/v4.21/bin/bin/../../lib/gcc/pic32c/8.3.1/../../../../pic32c/lib/arm/v5te/nofp\libg-musl.a(__putc.o)
                              c:/program files/microchip/xc32/v4.21/bin/bin/../../lib/gcc/pic32c/8.3.1/../../../../pic32c/lib/arm/v5te/nofp\libg-musl.a(__io_buf_needed.o) (__putc_needed)
c:/program files/microchip/xc32/v4.21/bin/bin/../../lib/gcc/pic32c/8.3.1/../../../../pic32c/lib/arm/v5te/nofp\libg-musl.a(__stderr.o)
                              c:/program files/microchip/xc32/v4.21/bin/bin/../../lib/gcc/pic32c/8.3.1/../../../../pic32c/lib/arm/v5te/nofp\libg-musl.a(__io_std_needed.o) (__init_stderr_needed)
c:/program files/microchip/xc32/v4.21/bin/bin/../../lib/gcc/pic32c/8.3.1/../../../../pic32c/lib/arm/v5te/nofp\libg-musl.a(__stdio_close.o)
                              c:/program files/microchip/xc32/v4.21/bin/bin/../../lib/gcc/pic32c/8.3.1/../../../../pic32c/lib/arm/v5te/nofp\libg-musl.a(__fopen_rw.o) (__stdio_close_rw)
c:/program files/microchip/xc32/v4.21/bin/bin/../../lib/gcc/pic32c/8.3.1/../../../../pic32c/lib/arm/v5te/nofp\libg-musl.a(__stdio_exit.o)
                              c:/program files/microchip/xc32/v4.21/bin/bin/../../lib/gcc/pic32c/8.3.1/../../../../pic32c/lib/arm/v5te/nofp\libg-musl.a(__toread.o) (__stdio_exit_needed)
c:/program files/microchip/xc32/v4.21/bin/bin/../../lib/gcc/pic32c/8.3.1/../../../../pic32c/lib/arm/v5te/nofp\libg-musl.a(__stdio_read.o)
                              c:/program files/microchip/xc32/v4.21/bin/bin/../../lib/gcc/pic32c/8.3.1/../../../../pic32c/lib/arm/v5te/nofp\libg-musl.a(__fopen_rw.o) (__stdio_read)
c:/program files/microchip/xc32/v4.21/bin/bin/../../lib/gcc/pic32c/8.3.1/../../../../pic32c/lib/arm/v5te/nofp\libg-musl.a(__stdio_seek.o)
                              c:/program files/microchip/xc32/v4.21/bin/bin/../../lib/gcc/pic32c/8.3.1/../../../../pic32c/lib/arm/v5te/nofp\libg-musl.a(__fopen_rw.o) (__stdio_seek_rw)
c:/program files/microchip/xc32/v4.21/bin/bin/../../lib/gcc/pic32c/8.3.1/../../../../pic32c/lib/arm/v5te/nofp\libg-musl.a(__stdout.o)
                              c:/program files/microchip/xc32/v4.21/bin/bin/../../lib/gcc/pic32c/8.3.1/../../../../pic32c/lib/arm/v5te/nofp\libg-musl.a(__io_std_needed.o) (__init_stdout_needed)
c:/program files/microchip/xc32/v4.21/bin/bin/../../lib/gcc/pic32c/8.3.1/../../../../pic32c/lib/arm/v5te/nofp\libg-musl.a(strchrnul.o)
                              c:/program files/microchip/xc32/v4.21/bin/bin/../../lib/gcc/pic32c/8.3.1/../../../../pic32c/lib/arm/v5te/nofp\libg-musl.a(strcspn.o) (__strchrnul)
c:/program files/microchip/xc32/v4.21/bin/bin/../../lib/gcc/pic32c/8.3.1/../../../../pic32c/lib/arm/v5te/nofp\libg-musl.a(readv.o)
                              c:/program files/microchip/xc32/v4.21/bin/bin/../../lib/gcc/pic32c/8.3.1/../../../../pic32c/lib/arm/v5te/nofp\libg-musl.a(__stdio_read.o) (readv)
c:/program files/microchip/xc32/v4.21/bin/bin/../../lib/gcc/pic32c/8.3.1/../../../../pic32c/lib/arm/v5te/nofp\libg-musl.a(malloc.o)
                              c:/program files/microchip/xc32/v4.21/bin/bin/../../lib/gcc/pic32c/8.3.1/../../../../pic32c/lib/arm/v5te/nofp\libg-musl.a(__fopen_rw.o) (malloc)
c:/program files/microchip/xc32/v4.21/bin/bin/../../lib/gcc/pic32c/8.3.1/../../../../pic32c/lib/arm/v5te/nofp\libg-musl.a(expand_heap.o)
                              c:/program files/microchip/xc32/v4.21/bin/bin/../../lib/gcc/pic32c/8.3.1/../../../../pic32c/lib/arm/v5te/nofp\libg-musl.a(malloc.o) (__expand_heap)
c:/program files/microchip/xc32/v4.21/bin/bin/../../lib/gcc/pic32c/8.3.1/../../../../pic32c/lib/arm/v5te/nofp\libg-musl.a(__overflow.o)
                              c:/program files/microchip/xc32/v4.21/bin/bin/../../lib/gcc/pic32c/8.3.1/../../../../pic32c/lib/arm/v5te/nofp\libg-musl.a(__putc.o) (__overflow)
c:/program files/microchip/xc32/v4.21/bin/bin/../../lib/gcc/pic32c/8.3.1/../../../../pic32c/lib/arm/v5te/nofp\libg-musl.a(__fclose.o)
                              c:/program files/microchip/xc32/v4.21/bin/bin/../../lib/gcc/pic32c/8.3.1/../../../../pic32c/lib/arm/v5te/nofp\libg-musl.a(__io_buf_needed.o) (__fclose_needed)
c:/program files/microchip/xc32/v4.21/bin/bin/../../lib/gcc/pic32c/8.3.1/../../../../pic32c/lib/arm/v5te/nofp\libg-musl.a(__fopen.o)
                              c:/program files/microchip/xc32/v4.21/bin/bin/../../lib/gcc/pic32c/8.3.1/../../../../pic32c/lib/arm/v5te/nofp\libg-musl.a(__io_std_needed.o) (__fopen_needed)
c:/program files/microchip/xc32/v4.21/bin/bin/../../lib/gcc/pic32c/8.3.1/../../../../pic32c/lib/arm/v5te/nofp\libg-musl.a(__fseeko.o)
                              c:/program files/microchip/xc32/v4.21/bin/bin/../../lib/gcc/pic32c/8.3.1/../../../../pic32c/lib/arm/v5te/nofp\libg-musl.a(__io_buf_needed.o) (__fseeko_needed)
c:/program files/microchip/xc32/v4.21/bin/bin/../../lib/gcc/pic32c/8.3.1/../../../../pic32c/lib/arm/v5te/nofp\libg-musl.a(__ftello.o)
                              c:/program files/microchip/xc32/v4.21/bin/bin/../../lib/gcc/pic32c/8.3.1/../../../../pic32c/lib/arm/v5te/nofp\libg-musl.a(__io_buf_needed.o) (__ftello_adj_needed)
c:/program files/microchip/xc32/v4.21/bin/bin/../../lib/gcc/pic32c/8.3.1/../../../../pic32c/lib/arm/v5te/nofp\libg-musl.a(__fwrite.o)
                              c:/program files/microchip/xc32/v4.21/bin/bin/../../lib/gcc/pic32c/8.3.1/../../../../pic32c/lib/arm/v5te/nofp\libg-musl.a(__io_std_needed.o) (__fwrite_needed)
c:/program files/microchip/xc32/v4.21/bin/bin/../../lib/gcc/pic32c/8.3.1/../../../../pic32c/lib/arm/v5te/nofp\libg-musl.a(__towrite.o)
                              c:/program files/microchip/xc32/v4.21/bin/bin/../../lib/gcc/pic32c/8.3.1/../../../../pic32c/lib/arm/v5te/nofp\libg-musl.a(__overflow.o) (__towrite)
c:/program files/microchip/xc32/v4.21/bin/bin/../../lib/gcc/pic32c/8.3.1/../../../../pic32c/lib/arm/v5te/nofp\libpic32c.a(lseek.o)
                              c:/program files/microchip/xc32/v4.21/bin/bin/../../lib/gcc/pic32c/8.3.1/../../../../pic32c/lib/arm/v5te/nofp\libg-musl.a(__stdio_close.o) (lseek)
c:/program files/microchip/xc32/v4.21/bin/bin/../../lib/gcc/pic32c/8.3.1/../../../../pic32c/lib/arm/v5te/nofp\libpic32c.a(sbrk.o)
                              c:/program files/microchip/xc32/v4.21/bin/bin/../../lib/gcc/pic32c/8.3.1/../../../../pic32c/lib/arm/v5te/nofp\libg-musl.a(expand_heap.o) (_sbrk)
c:/program files/microchip/xc32/v4.21/bin/bin/../../lib/gcc/pic32c/8.3.1/arm/v5te/nofp\libgcc.a(_arm_addsubdf3.o)
                              c:/program files/microchip/xc32/v4.21/bin/bin/../../lib/gcc/pic32c/8.3.1/../../../../pic32c/lib/arm/v5te/nofp\libm-musl.a(atan.o) (__aeabi_dsub)
c:/program files/microchip/xc32/v4.21/bin/bin/../../lib/gcc/pic32c/8.3.1/arm/v5te/nofp\libgcc.a(_arm_muldivdf3.o)
                              c:/program files/microchip/xc32/v4.21/bin/bin/../../lib/gcc/pic32c/8.3.1/../../../../pic32c/lib/arm/v5te/nofp\libm-musl.a(atan.o) (__aeabi_dmul)
c:/program files/microchip/xc32/v4.21/bin/bin/../../lib/gcc/pic32c/8.3.1/arm/v5te/nofp\libgcc.a(_arm_truncdfsf2.o)
                              c:/program files/microchip/xc32/v4.21/bin/bin/../../lib/gcc/pic32c/8.3.1/../../../../pic32c/lib/arm/v5te/nofp\libm-musl.a(atan.o) (__aeabi_d2f)

Microchip PIC32 Memory-Usage Report
        --------------------------------------------------------------------------
         Total Program Memory used  :           0           0  
        --------------------------------------------------------------------------


RAM Data-Memory Usage
section                    address  length [bytes]      (dec)  Description
-------                 ----------  -------------------------  -----------
.text                   0x23f00000       0x9f0024    10420260   
.data                   0x248f0024         0x12d4        4820  Initialized data 
.ARM.exidx              0x248f12f8            0x8           8   
.relocate               0x248f1300           0x3c          60   
.bss                    0x248f4000        0x90554      591188  Uninitialized data 
.region_cache_aligned   0x24984554            0xc          12   
.stacks                 0x24984560         0x2140        8512   
         Total RAM used  :    0xa839dc    11024860  4.4% of 0xf000000
        --------------------------------------------------------------------------
            Total Data Memory used  :    0xa839dc    11024860  4.4% of 0xf000000
        --------------------------------------------------------------------------


Dynamic Data-Memory Reservation
section                    address  length [bytes]      (dec)  Description
-------                 ----------  -------------------------  -----------
heap                    0x249866a8          0x200         512  Reserved for heap 
stack                   0x249868c0      0xb679738   191338296  Reserved for stack 

        --------------------------------------------------------------------------

Discarded input sections

 .text          0x00000000        0x0 c:/program files/microchip/xc32/v4.21/bin/bin/../../lib/gcc/pic32c/8.3.1/arm/v5te/nofp/crti.o
 .data          0x00000000        0x0 c:/program files/microchip/xc32/v4.21/bin/bin/../../lib/gcc/pic32c/8.3.1/arm/v5te/nofp/crti.o
 .bss           0x00000000        0x0 c:/program files/microchip/xc32/v4.21/bin/bin/../../lib/gcc/pic32c/8.3.1/arm/v5te/nofp/crti.o
 .xc_stack_usage.hdr
                0x00000000        0xe c:/program files/microchip/xc32/v4.21/bin/bin/../../lib/gcc/pic32c/8.3.1/arm/v5te/nofp/crti.o
 .xc_stack_usage
                0x00000000       0x26 c:/program files/microchip/xc32/v4.21/bin/bin/../../lib/gcc/pic32c/8.3.1/arm/v5te/nofp/crti.o
 .data          0x00000000        0x4 c:/program files/microchip/xc32/v4.21/bin/bin/../../lib/gcc/pic32c/8.3.1/arm/v5te/nofp/crtbegin.o
 .xc_stack_usage
                0x00000000       0x3c c:/program files/microchip/xc32/v4.21/bin/bin/../../lib/gcc/pic32c/8.3.1/arm/v5te/nofp/crtbegin.o
 .xc_stack_usage.hdr
                0x00000000        0xe c:/program files/microchip/xc32/v4.21/bin/bin/../../lib/gcc/pic32c/8.3.1/arm/v5te/nofp/crtbegin.o
 .text          0x00000000        0x0 build/lcdc_rgba8888_mxt_9x60_wvga/debug/_ext/710462340/bsp.o
 .data          0x00000000        0x0 build/lcdc_rgba8888_mxt_9x60_wvga/debug/_ext/710462340/bsp.o
 .bss           0x00000000        0x0 build/lcdc_rgba8888_mxt_9x60_wvga/debug/_ext/710462340/bsp.o
 .text          0x00000000        0x0 build/lcdc_rgba8888_mxt_9x60_wvga/debug/_ext/205529507/drv_i2c.o
 .data          0x00000000        0x0 build/lcdc_rgba8888_mxt_9x60_wvga/debug/_ext/205529507/drv_i2c.o
 .bss           0x00000000        0x0 build/lcdc_rgba8888_mxt_9x60_wvga/debug/_ext/205529507/drv_i2c.o
 .text.DRV_I2C_Status
                0x00000000       0x18 build/lcdc_rgba8888_mxt_9x60_wvga/debug/_ext/205529507/drv_i2c.o
 .text.DRV_I2C_TransferSetup
                0x00000000       0x38 build/lcdc_rgba8888_mxt_9x60_wvga/debug/_ext/205529507/drv_i2c.o
 .text.DRV_I2C_ErrorGet
                0x00000000       0x88 build/lcdc_rgba8888_mxt_9x60_wvga/debug/_ext/205529507/drv_i2c.o
 .text.DRV_I2C_WriteReadTransferAdd
                0x00000000       0x34 build/lcdc_rgba8888_mxt_9x60_wvga/debug/_ext/205529507/drv_i2c.o
 .text.DRV_I2C_QueuePurge
                0x00000000       0xb0 build/lcdc_rgba8888_mxt_9x60_wvga/debug/_ext/205529507/drv_i2c.o
 .text.DRV_I2C_TransferStatusGet
                0x00000000       0x80 build/lcdc_rgba8888_mxt_9x60_wvga/debug/_ext/205529507/drv_i2c.o
 .text          0x00000000        0x0 build/lcdc_rgba8888_mxt_9x60_wvga/debug/_ext/802015102/drv_maxtouch.o
 .data          0x00000000        0x0 build/lcdc_rgba8888_mxt_9x60_wvga/debug/_ext/802015102/drv_maxtouch.o
 .bss           0x00000000        0x0 build/lcdc_rgba8888_mxt_9x60_wvga/debug/_ext/802015102/drv_maxtouch.o
 .text.DRV_MAXTOUCH_Status
                0x00000000       0x10 build/lcdc_rgba8888_mxt_9x60_wvga/debug/_ext/802015102/drv_maxtouch.o
 .text.DRV_MAXTOUCH_Close
                0x00000000       0x58 build/lcdc_rgba8888_mxt_9x60_wvga/debug/_ext/802015102/drv_maxtouch.o
 .text.DRV_MAXTOUCH_Deinitialize
                0x00000000       0x38 build/lcdc_rgba8888_mxt_9x60_wvga/debug/_ext/802015102/drv_maxtouch.o
 .text.DRV_MAXTOUCH_Reinitialize
                0x00000000       0x20 build/lcdc_rgba8888_mxt_9x60_wvga/debug/_ext/802015102/drv_maxtouch.o
 .text.DRV_MAXTOUCH_SoftReset
                0x00000000       0x54 build/lcdc_rgba8888_mxt_9x60_wvga/debug/_ext/802015102/drv_maxtouch.o
 .text.DRV_MAXTOUCH_ConfigSave
                0x00000000       0x50 build/lcdc_rgba8888_mxt_9x60_wvga/debug/_ext/802015102/drv_maxtouch.o
 .text.mxt_get_object
                0x00000000       0x54 build/lcdc_rgba8888_mxt_9x60_wvga/debug/_ext/802015102/drv_maxtouch.o
 .text.mxt_prepare_cfg_mem
                0x00000000      0x1e4 build/lcdc_rgba8888_mxt_9x60_wvga/debug/_ext/802015102/drv_maxtouch.o
 .text.mxt_load_xcfg_file
                0x00000000      0x384 build/lcdc_rgba8888_mxt_9x60_wvga/debug/_ext/802015102/drv_maxtouch.o
 .text.mxt_configure_objects
                0x00000000      0x310 build/lcdc_rgba8888_mxt_9x60_wvga/debug/_ext/802015102/drv_maxtouch.o
 .text.DRV_MAXTOUCH_ConfigParse
                0x00000000       0x78 build/lcdc_rgba8888_mxt_9x60_wvga/debug/_ext/802015102/drv_maxtouch.o
 .text.DRV_MAXTOUCH_ConfigLoad
                0x00000000       0x78 build/lcdc_rgba8888_mxt_9x60_wvga/debug/_ext/802015102/drv_maxtouch.o
 .text.mxt_obj_size
                0x00000000        0xc build/lcdc_rgba8888_mxt_9x60_wvga/debug/_ext/802015102/drv_maxtouch.o
 .text.mxt_obj_instances
                0x00000000        0xc build/lcdc_rgba8888_mxt_9x60_wvga/debug/_ext/802015102/drv_maxtouch.o
 .rodata        0x00000000       0xcc build/lcdc_rgba8888_mxt_9x60_wvga/debug/_ext/802015102/drv_maxtouch.o
 .text          0x00000000        0x0 build/lcdc_rgba8888_mxt_9x60_wvga/debug/_ext/51791817/gfx_canvas.o
 .data          0x00000000        0x0 build/lcdc_rgba8888_mxt_9x60_wvga/debug/_ext/51791817/gfx_canvas.o
 .bss           0x00000000        0x0 build/lcdc_rgba8888_mxt_9x60_wvga/debug/_ext/51791817/gfx_canvas.o
 .text.GFXC_FrameStart
                0x00000000        0x8 build/lcdc_rgba8888_mxt_9x60_wvga/debug/_ext/51791817/gfx_canvas.o
 .text.GFXC_FrameEnd
                0x00000000        0x8 build/lcdc_rgba8888_mxt_9x60_wvga/debug/_ext/51791817/gfx_canvas.o
 .text.GFXC_GetVSYNCCount
                0x00000000        0x8 build/lcdc_rgba8888_mxt_9x60_wvga/debug/_ext/51791817/gfx_canvas.o
 .text.GFXC_GetPixelBuffer
                0x00000000       0x38 build/lcdc_rgba8888_mxt_9x60_wvga/debug/_ext/51791817/gfx_canvas.o
 .text._gfxcCopyBuffer
                0x00000000      0x138 build/lcdc_rgba8888_mxt_9x60_wvga/debug/_ext/51791817/gfx_canvas.o
 .text._gfxcSetBaseCanvasID
                0x00000000       0x24 build/lcdc_rgba8888_mxt_9x60_wvga/debug/_ext/51791817/gfx_canvas.o
 .text.GFXC_GetLayerState
                0x00000000       0x64 build/lcdc_rgba8888_mxt_9x60_wvga/debug/_ext/51791817/gfx_canvas.o
 .text._gfxcSetEffectsIntervalMS
                0x00000000       0x48 build/lcdc_rgba8888_mxt_9x60_wvga/debug/_ext/51791817/gfx_canvas.o
 .text._gfxcStartEffects
                0x00000000       0x1c build/lcdc_rgba8888_mxt_9x60_wvga/debug/_ext/51791817/gfx_canvas.o
 .text._gfxcStopEffects
                0x00000000       0x1c build/lcdc_rgba8888_mxt_9x60_wvga/debug/_ext/51791817/gfx_canvas.o
 .text._gfxcGetStatus
                0x00000000       0x28 build/lcdc_rgba8888_mxt_9x60_wvga/debug/_ext/51791817/gfx_canvas.o
 .bss.gfxcGPU   0x00000000        0x4 build/lcdc_rgba8888_mxt_9x60_wvga/debug/_ext/51791817/gfx_canvas.o
 .data.numLayers
                0x00000000        0x4 build/lcdc_rgba8888_mxt_9x60_wvga/debug/_ext/51791817/gfx_canvas.o
 .text          0x00000000        0x0 build/lcdc_rgba8888_mxt_9x60_wvga/debug/_ext/51791817/gfx_canvas_api.o
 .data          0x00000000        0x0 build/lcdc_rgba8888_mxt_9x60_wvga/debug/_ext/51791817/gfx_canvas_api.o
 .bss           0x00000000        0x0 build/lcdc_rgba8888_mxt_9x60_wvga/debug/_ext/51791817/gfx_canvas_api.o
 .text.gfxcDestroy
                0x00000000       0x3c build/lcdc_rgba8888_mxt_9x60_wvga/debug/_ext/51791817/gfx_canvas_api.o
 .text.gfxcGetlayer
                0x00000000       0x24 build/lcdc_rgba8888_mxt_9x60_wvga/debug/_ext/51791817/gfx_canvas_api.o
 .text.gfxcClearLayer
                0x00000000       0x50 build/lcdc_rgba8888_mxt_9x60_wvga/debug/_ext/51791817/gfx_canvas_api.o
 .text.gfxcSetWindowAlpha
                0x00000000       0x28 build/lcdc_rgba8888_mxt_9x60_wvga/debug/_ext/51791817/gfx_canvas_api.o
 .text.gfxcGetWindowPosition
                0x00000000       0x74 build/lcdc_rgba8888_mxt_9x60_wvga/debug/_ext/51791817/gfx_canvas_api.o
 .text.gfxcGetWindowSize
                0x00000000       0x74 build/lcdc_rgba8888_mxt_9x60_wvga/debug/_ext/51791817/gfx_canvas_api.o
 .text.gfxcHideCanvas
                0x00000000       0x28 build/lcdc_rgba8888_mxt_9x60_wvga/debug/_ext/51791817/gfx_canvas_api.o
 .text.gfxcCopyBuffer
                0x00000000        0xc build/lcdc_rgba8888_mxt_9x60_wvga/debug/_ext/51791817/gfx_canvas_api.o
 .text.gfxcSetBaseCanvasID
                0x00000000        0xc build/lcdc_rgba8888_mxt_9x60_wvga/debug/_ext/51791817/gfx_canvas_api.o
 .text.gfxcSetEffectsInterval
                0x00000000        0xc build/lcdc_rgba8888_mxt_9x60_wvga/debug/_ext/51791817/gfx_canvas_api.o
 .text.gfxcSetEffectsCallback
                0x00000000       0x3c build/lcdc_rgba8888_mxt_9x60_wvga/debug/_ext/51791817/gfx_canvas_api.o
 .text.gfxcStartEffectFade
                0x00000000       0xc0 build/lcdc_rgba8888_mxt_9x60_wvga/debug/_ext/51791817/gfx_canvas_api.o
 .text.gfxcStartEffectMove
                0x00000000       0xdc build/lcdc_rgba8888_mxt_9x60_wvga/debug/_ext/51791817/gfx_canvas_api.o
 .text.gfxcStopEffect
                0x00000000       0x64 build/lcdc_rgba8888_mxt_9x60_wvga/debug/_ext/51791817/gfx_canvas_api.o
 .text.gfxcGetStatus
                0x00000000        0xc build/lcdc_rgba8888_mxt_9x60_wvga/debug/_ext/51791817/gfx_canvas_api.o
 .text          0x00000000        0x0 build/lcdc_rgba8888_mxt_9x60_wvga/debug/_ext/95971993/gfx_driver.o
 .data          0x00000000        0x0 build/lcdc_rgba8888_mxt_9x60_wvga/debug/_ext/95971993/gfx_driver.o
 .bss           0x00000000        0x0 build/lcdc_rgba8888_mxt_9x60_wvga/debug/_ext/95971993/gfx_driver.o
 .text.no_conv  0x00000000        0x4 build/lcdc_rgba8888_mxt_9x60_wvga/debug/_ext/95971993/gfx_driver.o
 .text.gs8_rgb332
                0x00000000       0x10 build/lcdc_rgba8888_mxt_9x60_wvga/debug/_ext/95971993/gfx_driver.o
 .text.gs8_rgb565
                0x00000000       0x20 build/lcdc_rgba8888_mxt_9x60_wvga/debug/_ext/95971993/gfx_driver.o
 .text.gs8_rgba5551
                0x00000000       0x28 build/lcdc_rgba8888_mxt_9x60_wvga/debug/_ext/95971993/gfx_driver.o
 .text.gs8_rgb888
                0x00000000       0x10 build/lcdc_rgba8888_mxt_9x60_wvga/debug/_ext/95971993/gfx_driver.o
 .text.gs8_rgba8888
                0x00000000       0x14 build/lcdc_rgba8888_mxt_9x60_wvga/debug/_ext/95971993/gfx_driver.o
 .text.gs8_argb8888
                0x00000000       0x14 build/lcdc_rgba8888_mxt_9x60_wvga/debug/_ext/95971993/gfx_driver.o
 .text.rgb332_rgb565
                0x00000000       0x2c build/lcdc_rgba8888_mxt_9x60_wvga/debug/_ext/95971993/gfx_driver.o
 .text.rgb332_rgba5551
                0x00000000       0x2c build/lcdc_rgba8888_mxt_9x60_wvga/debug/_ext/95971993/gfx_driver.o
 .text.rgb332_rgb888
                0x00000000       0x30 build/lcdc_rgba8888_mxt_9x60_wvga/debug/_ext/95971993/gfx_driver.o
 .text.rgb332_rgba8888
                0x00000000       0x2c build/lcdc_rgba8888_mxt_9x60_wvga/debug/_ext/95971993/gfx_driver.o
 .text.rgb332_argb8888
                0x00000000       0x30 build/lcdc_rgba8888_mxt_9x60_wvga/debug/_ext/95971993/gfx_driver.o
 .text.rgb565_rgb332
                0x00000000       0x20 build/lcdc_rgba8888_mxt_9x60_wvga/debug/_ext/95971993/gfx_driver.o
 .text.rgb565_rgba5551
                0x00000000       0x20 build/lcdc_rgba8888_mxt_9x60_wvga/debug/_ext/95971993/gfx_driver.o
 .text.rgb565_rgb888
                0x00000000       0x24 build/lcdc_rgba8888_mxt_9x60_wvga/debug/_ext/95971993/gfx_driver.o
 .text.rgb565_rgba8888
                0x00000000       0x24 build/lcdc_rgba8888_mxt_9x60_wvga/debug/_ext/95971993/gfx_driver.o
 .text.rgb565_argb8888
                0x00000000       0x28 build/lcdc_rgba8888_mxt_9x60_wvga/debug/_ext/95971993/gfx_driver.o
 .text.rgba5551_gs8
                0x00000000        0x4 build/lcdc_rgba8888_mxt_9x60_wvga/debug/_ext/95971993/gfx_driver.o
 .text.rgba5551_rgb332
                0x00000000       0x20 build/lcdc_rgba8888_mxt_9x60_wvga/debug/_ext/95971993/gfx_driver.o
 .text.rgba5551_rgb565
                0x00000000       0x1c build/lcdc_rgba8888_mxt_9x60_wvga/debug/_ext/95971993/gfx_driver.o
 .text.rgba5551_rgb888
                0x00000000       0x30 build/lcdc_rgba8888_mxt_9x60_wvga/debug/_ext/95971993/gfx_driver.o
 .text.rgba5551_rgba8888
                0x00000000       0x40 build/lcdc_rgba8888_mxt_9x60_wvga/debug/_ext/95971993/gfx_driver.o
 .text.rgba5551_argb8888
                0x00000000       0x40 build/lcdc_rgba8888_mxt_9x60_wvga/debug/_ext/95971993/gfx_driver.o
 .text.rgb888_gs8
                0x00000000        0x4 build/lcdc_rgba8888_mxt_9x60_wvga/debug/_ext/95971993/gfx_driver.o
 .text.rgb888_rgb332
                0x00000000       0x24 build/lcdc_rgba8888_mxt_9x60_wvga/debug/_ext/95971993/gfx_driver.o
 .text.rgb888_rgb565
                0x00000000       0x20 build/lcdc_rgba8888_mxt_9x60_wvga/debug/_ext/95971993/gfx_driver.o
 .text.rgb888_rgba5551
                0x00000000       0x28 build/lcdc_rgba8888_mxt_9x60_wvga/debug/_ext/95971993/gfx_driver.o
 .text.rgb888_rgba8888
                0x00000000        0xc build/lcdc_rgba8888_mxt_9x60_wvga/debug/_ext/95971993/gfx_driver.o
 .text.rgb888_argb8888
                0x00000000        0x8 build/lcdc_rgba8888_mxt_9x60_wvga/debug/_ext/95971993/gfx_driver.o
 .text.rgba8888_gs8
                0x00000000        0x4 build/lcdc_rgba8888_mxt_9x60_wvga/debug/_ext/95971993/gfx_driver.o
 .text.rgba8888_rgb332
                0x00000000       0x20 build/lcdc_rgba8888_mxt_9x60_wvga/debug/_ext/95971993/gfx_driver.o
 .text.rgba8888_rgb565
                0x00000000       0x20 build/lcdc_rgba8888_mxt_9x60_wvga/debug/_ext/95971993/gfx_driver.o
 .text.rgba8888_rgba5551
                0x00000000       0x34 build/lcdc_rgba8888_mxt_9x60_wvga/debug/_ext/95971993/gfx_driver.o
 .text.rgba8888_rgb888
                0x00000000        0x8 build/lcdc_rgba8888_mxt_9x60_wvga/debug/_ext/95971993/gfx_driver.o
 .text.rgba8888_argb8888
                0x00000000        0x8 build/lcdc_rgba8888_mxt_9x60_wvga/debug/_ext/95971993/gfx_driver.o
 .text.argb8888_rgba5551
                0x00000000       0x34 build/lcdc_rgba8888_mxt_9x60_wvga/debug/_ext/95971993/gfx_driver.o
 .text.argb8888_rgb888
                0x00000000        0x8 build/lcdc_rgba8888_mxt_9x60_wvga/debug/_ext/95971993/gfx_driver.o
 .text.argb8888_rgba8888
                0x00000000        0x8 build/lcdc_rgba8888_mxt_9x60_wvga/debug/_ext/95971993/gfx_driver.o
 .text.gfxIndexGet1bpp
                0x00000000       0x20 build/lcdc_rgba8888_mxt_9x60_wvga/debug/_ext/95971993/gfx_driver.o
 .text.gfxIndexGet4bpp
                0x00000000       0x18 build/lcdc_rgba8888_mxt_9x60_wvga/debug/_ext/95971993/gfx_driver.o
 .text.gfxIndexGet
                0x00000000       0x64 build/lcdc_rgba8888_mxt_9x60_wvga/debug/_ext/95971993/gfx_driver.o
 .text.gfxGet1byte
                0x00000000        0x8 build/lcdc_rgba8888_mxt_9x60_wvga/debug/_ext/95971993/gfx_driver.o
 .text.gfxGet2byte
                0x00000000        0x8 build/lcdc_rgba8888_mxt_9x60_wvga/debug/_ext/95971993/gfx_driver.o
 .text.gfxGet3byte
                0x00000000       0x1c build/lcdc_rgba8888_mxt_9x60_wvga/debug/_ext/95971993/gfx_driver.o
 .text.gfxGet4byte
                0x00000000        0x8 build/lcdc_rgba8888_mxt_9x60_wvga/debug/_ext/95971993/gfx_driver.o
 .text.gfxSet1byte
                0x00000000        0xc build/lcdc_rgba8888_mxt_9x60_wvga/debug/_ext/95971993/gfx_driver.o
 .text.gfxSet2byte
                0x00000000        0xc build/lcdc_rgba8888_mxt_9x60_wvga/debug/_ext/95971993/gfx_driver.o
 .text.gfxSet3byte
                0x00000000       0x1c build/lcdc_rgba8888_mxt_9x60_wvga/debug/_ext/95971993/gfx_driver.o
 .text.gfxSet4byte
                0x00000000        0xc build/lcdc_rgba8888_mxt_9x60_wvga/debug/_ext/95971993/gfx_driver.o
 .text.rgb332_gs8
                0x00000000       0x9c build/lcdc_rgba8888_mxt_9x60_wvga/debug/_ext/95971993/gfx_driver.o
 .text.rgb565_gs8
                0x00000000       0x9c build/lcdc_rgba8888_mxt_9x60_wvga/debug/_ext/95971993/gfx_driver.o
 .text.gfxColorChannelRed
                0x00000000       0x20 build/lcdc_rgba8888_mxt_9x60_wvga/debug/_ext/95971993/gfx_driver.o
 .text.gfxColorChannelGreen
                0x00000000       0x20 build/lcdc_rgba8888_mxt_9x60_wvga/debug/_ext/95971993/gfx_driver.o
 .text.gfxColorChannelBlue
                0x00000000       0x20 build/lcdc_rgba8888_mxt_9x60_wvga/debug/_ext/95971993/gfx_driver.o
 .text.gfxColorChannelAlpha
                0x00000000       0x30 build/lcdc_rgba8888_mxt_9x60_wvga/debug/_ext/95971993/gfx_driver.o
 .text.gfxScaleIntegerSigned
                0x00000000       0x44 build/lcdc_rgba8888_mxt_9x60_wvga/debug/_ext/95971993/gfx_driver.o
 .text.gfxScaleInteger
                0x00000000       0x44 build/lcdc_rgba8888_mxt_9x60_wvga/debug/_ext/95971993/gfx_driver.o
 .text.gfxPixelBufferOffsetGet_Unsafe
                0x00000000       0x24 build/lcdc_rgba8888_mxt_9x60_wvga/debug/_ext/95971993/gfx_driver.o
 .text.gfxPixelBufferGet_Unsafe
                0x00000000       0x64 build/lcdc_rgba8888_mxt_9x60_wvga/debug/_ext/95971993/gfx_driver.o
 .text.gfxPixelBufferGet
                0x00000000       0x34 build/lcdc_rgba8888_mxt_9x60_wvga/debug/_ext/95971993/gfx_driver.o
 .text.gfxPixelBufferGetIndex
                0x00000000       0x40 build/lcdc_rgba8888_mxt_9x60_wvga/debug/_ext/95971993/gfx_driver.o
 .text.gfxPixelBufferGetIndex_Unsafe
                0x00000000       0x2c build/lcdc_rgba8888_mxt_9x60_wvga/debug/_ext/95971993/gfx_driver.o
 .text.gfxPixelBuffer_SetLocked
                0x00000000       0x2c build/lcdc_rgba8888_mxt_9x60_wvga/debug/_ext/95971993/gfx_driver.o
 .text.gfxColorConvert
                0x00000000       0x28 build/lcdc_rgba8888_mxt_9x60_wvga/debug/_ext/95971993/gfx_driver.o
 .data.gfxIndexGet_FnTable
                0x00000000       0x18 build/lcdc_rgba8888_mxt_9x60_wvga/debug/_ext/95971993/gfx_driver.o
 .data.gfxPixelGet_FnTable
                0x00000000       0x10 build/lcdc_rgba8888_mxt_9x60_wvga/debug/_ext/95971993/gfx_driver.o
 .data.gfxPixelSet_FnTable
                0x00000000       0x10 build/lcdc_rgba8888_mxt_9x60_wvga/debug/_ext/95971993/gfx_driver.o
 .data.gfx_color_convert_table
                0x00000000      0x1e4 build/lcdc_rgba8888_mxt_9x60_wvga/debug/_ext/95971993/gfx_driver.o
 .text          0x00000000        0x0 build/lcdc_rgba8888_mxt_9x60_wvga/debug/_ext/1886796627/drv_gfx_lcdc.o
 .data          0x00000000        0x0 build/lcdc_rgba8888_mxt_9x60_wvga/debug/_ext/1886796627/drv_gfx_lcdc.o
 .bss           0x00000000        0x0 build/lcdc_rgba8888_mxt_9x60_wvga/debug/_ext/1886796627/drv_gfx_lcdc.o
 .text.LCDC_BrightnessRangeGet
                0x00000000       0x18 build/lcdc_rgba8888_mxt_9x60_wvga/debug/_ext/1886796627/drv_gfx_lcdc.o
 .rodata        0x00000000        0x8 build/lcdc_rgba8888_mxt_9x60_wvga/debug/_ext/1886796627/drv_gfx_lcdc.o
 .bss.waitForAlphaSetting
                0x00000000       0x10 build/lcdc_rgba8888_mxt_9x60_wvga/debug/_ext/1886796627/drv_gfx_lcdc.o
 .data.DRIVER_NAME
                0x00000000        0x4 build/lcdc_rgba8888_mxt_9x60_wvga/debug/_ext/1886796627/drv_gfx_lcdc.o
 .text          0x00000000        0x0 build/lcdc_rgba8888_mxt_9x60_wvga/debug/_ext/1483321925/legato_rect.o
 .data          0x00000000        0x0 build/lcdc_rgba8888_mxt_9x60_wvga/debug/_ext/1483321925/legato_rect.o
 .bss           0x00000000        0x0 build/lcdc_rgba8888_mxt_9x60_wvga/debug/_ext/1483321925/legato_rect.o
 .text.leRectFromPoints
                0x00000000       0x58 build/lcdc_rgba8888_mxt_9x60_wvga/debug/_ext/1483321925/legato_rect.o
 .text.leRectToPoints
                0x00000000       0x3c build/lcdc_rgba8888_mxt_9x60_wvga/debug/_ext/1483321925/legato_rect.o
 .text.leRectSplit
                0x00000000      0x184 build/lcdc_rgba8888_mxt_9x60_wvga/debug/_ext/1483321925/legato_rect.o
 .text          0x00000000        0x0 build/lcdc_rgba8888_mxt_9x60_wvga/debug/_ext/1483321925/legato_pixelbuffer.o
 .data          0x00000000        0x0 build/lcdc_rgba8888_mxt_9x60_wvga/debug/_ext/1483321925/legato_pixelbuffer.o
 .bss           0x00000000        0x0 build/lcdc_rgba8888_mxt_9x60_wvga/debug/_ext/1483321925/legato_pixelbuffer.o
 .text.lePixelBufferGetIndex
                0x00000000       0x40 build/lcdc_rgba8888_mxt_9x60_wvga/debug/_ext/1483321925/legato_pixelbuffer.o
 .text          0x00000000        0x0 build/lcdc_rgba8888_mxt_9x60_wvga/debug/_ext/1483321925/legato_utils.o
 .data          0x00000000        0x0 build/lcdc_rgba8888_mxt_9x60_wvga/debug/_ext/1483321925/legato_utils.o
 .bss           0x00000000        0x0 build/lcdc_rgba8888_mxt_9x60_wvga/debug/_ext/1483321925/legato_utils.o
 .text.leUtils_PointToScreenSpace
                0x00000000       0x44 build/lcdc_rgba8888_mxt_9x60_wvga/debug/_ext/1483321925/legato_utils.o
 .text.leUtils_PointScreenToLocalSpace
                0x00000000       0x70 build/lcdc_rgba8888_mxt_9x60_wvga/debug/_ext/1483321925/legato_utils.o
 .text.leUtils_RectToParentSpace
                0x00000000       0x48 build/lcdc_rgba8888_mxt_9x60_wvga/debug/_ext/1483321925/legato_utils.o
 .text.leUtils_RectFromParentSpace
                0x00000000       0x48 build/lcdc_rgba8888_mxt_9x60_wvga/debug/_ext/1483321925/legato_utils.o
 .text.leUtils_ChildIntersectsParent
                0x00000000       0x64 build/lcdc_rgba8888_mxt_9x60_wvga/debug/_ext/1483321925/legato_utils.o
 .text.leUtils_GetNextHighestWidget
                0x00000000       0x7c build/lcdc_rgba8888_mxt_9x60_wvga/debug/_ext/1483321925/legato_utils.o
 .text.leUtils_PointLogicalToScratch
                0x00000000        0x4 build/lcdc_rgba8888_mxt_9x60_wvga/debug/_ext/1483321925/legato_utils.o
 .text.leUtils_RectLogicalToScratch
                0x00000000        0x4 build/lcdc_rgba8888_mxt_9x60_wvga/debug/_ext/1483321925/legato_utils.o
 .text          0x00000000        0x0 build/lcdc_rgba8888_mxt_9x60_wvga/debug/_ext/1483321925/legato_color_convert.o
 .data          0x00000000        0x0 build/lcdc_rgba8888_mxt_9x60_wvga/debug/_ext/1483321925/legato_color_convert.o
 .bss           0x00000000        0x0 build/lcdc_rgba8888_mxt_9x60_wvga/debug/_ext/1483321925/legato_color_convert.o
 .text          0x00000000        0x0 build/lcdc_rgba8888_mxt_9x60_wvga/debug/_ext/1483321925/legato_color_value.o
 .data          0x00000000        0x0 build/lcdc_rgba8888_mxt_9x60_wvga/debug/_ext/1483321925/legato_color_value.o
 .bss           0x00000000        0x0 build/lcdc_rgba8888_mxt_9x60_wvga/debug/_ext/1483321925/legato_color_value.o
 .text.leColorValue
                0x00000000       0x34 build/lcdc_rgba8888_mxt_9x60_wvga/debug/_ext/1483321925/legato_color_value.o
 .rodata.values
                0x00000000       0x48 build/lcdc_rgba8888_mxt_9x60_wvga/debug/_ext/1483321925/legato_color_value.o
 .debug_info    0x00000000      0x7e1 build/lcdc_rgba8888_mxt_9x60_wvga/debug/_ext/1483321925/legato_color_value.o
 .debug_abbrev  0x00000000      0x17d build/lcdc_rgba8888_mxt_9x60_wvga/debug/_ext/1483321925/legato_color_value.o
 .debug_loc     0x00000000       0x87 build/lcdc_rgba8888_mxt_9x60_wvga/debug/_ext/1483321925/legato_color_value.o
 .debug_aranges
                0x00000000       0x20 build/lcdc_rgba8888_mxt_9x60_wvga/debug/_ext/1483321925/legato_color_value.o
 .debug_ranges  0x00000000       0x10 build/lcdc_rgba8888_mxt_9x60_wvga/debug/_ext/1483321925/legato_color_value.o
 .debug_line    0x00000000      0x10e build/lcdc_rgba8888_mxt_9x60_wvga/debug/_ext/1483321925/legato_color_value.o
 .debug_str     0x00000000       0x30 build/lcdc_rgba8888_mxt_9x60_wvga/debug/_ext/1483321925/legato_color_value.o
 .comment       0x00000000       0x2c build/lcdc_rgba8888_mxt_9x60_wvga/debug/_ext/1483321925/legato_color_value.o
 .debug_frame   0x00000000       0x28 build/lcdc_rgba8888_mxt_9x60_wvga/debug/_ext/1483321925/legato_color_value.o
 .ARM.attributes
                0x00000000       0x2c build/lcdc_rgba8888_mxt_9x60_wvga/debug/_ext/1483321925/legato_color_value.o
 .text          0x00000000        0x0 build/lcdc_rgba8888_mxt_9x60_wvga/debug/_ext/1483321925/legato_color_blend.o
 .data          0x00000000        0x0 build/lcdc_rgba8888_mxt_9x60_wvga/debug/_ext/1483321925/legato_color_blend.o
 .bss           0x00000000        0x0 build/lcdc_rgba8888_mxt_9x60_wvga/debug/_ext/1483321925/legato_color_blend.o
 .text          0x00000000        0x0 build/lcdc_rgba8888_mxt_9x60_wvga/debug/_ext/1483321925/legato_math.o
 .data          0x00000000        0x0 build/lcdc_rgba8888_mxt_9x60_wvga/debug/_ext/1483321925/legato_math.o
 .bss           0x00000000        0x0 build/lcdc_rgba8888_mxt_9x60_wvga/debug/_ext/1483321925/legato_math.o
 .text.leEllipsePoint
                0x00000000       0xb8 build/lcdc_rgba8888_mxt_9x60_wvga/debug/_ext/1483321925/legato_math.o
 .text.leAtan   0x00000000        0xc build/lcdc_rgba8888_mxt_9x60_wvga/debug/_ext/1483321925/legato_math.o
 .text.leMinf   0x00000000       0x20 build/lcdc_rgba8888_mxt_9x60_wvga/debug/_ext/1483321925/legato_math.o
 .text.leMaxf   0x00000000       0x20 build/lcdc_rgba8888_mxt_9x60_wvga/debug/_ext/1483321925/legato_math.o
 .text.leClampf
                0x00000000       0x50 build/lcdc_rgba8888_mxt_9x60_wvga/debug/_ext/1483321925/legato_math.o
 .text.lePercentOfDec
                0x00000000       0x68 build/lcdc_rgba8888_mxt_9x60_wvga/debug/_ext/1483321925/legato_math.o
 .text.leScaleIntegerSigned
                0x00000000       0x44 build/lcdc_rgba8888_mxt_9x60_wvga/debug/_ext/1483321925/legato_math.o
 .text.leAbsoluteValue
                0x00000000        0xc build/lcdc_rgba8888_mxt_9x60_wvga/debug/_ext/1483321925/legato_math.o
 .text.leDivideRounding
                0x00000000       0x78 build/lcdc_rgba8888_mxt_9x60_wvga/debug/_ext/1483321925/legato_math.o
 .text.leSortPointsX
                0x00000000       0x34 build/lcdc_rgba8888_mxt_9x60_wvga/debug/_ext/1483321925/legato_math.o
 .text.leSortPointsY
                0x00000000       0x34 build/lcdc_rgba8888_mxt_9x60_wvga/debug/_ext/1483321925/legato_math.o
 .text.leGetXGivenYOnLine
                0x00000000       0x54 build/lcdc_rgba8888_mxt_9x60_wvga/debug/_ext/1483321925/legato_math.o
 .text.leGetYGivenXOnLine
                0x00000000       0x58 build/lcdc_rgba8888_mxt_9x60_wvga/debug/_ext/1483321925/legato_math.o
 .text.leNormalizeAngles
                0x00000000       0x80 build/lcdc_rgba8888_mxt_9x60_wvga/debug/_ext/1483321925/legato_math.o
 .text.leDegreesFromPercent
                0x00000000       0x2c build/lcdc_rgba8888_mxt_9x60_wvga/debug/_ext/1483321925/legato_math.o
 .text.leDegreesToPercent
                0x00000000       0x18 build/lcdc_rgba8888_mxt_9x60_wvga/debug/_ext/1483321925/legato_math.o
 .text          0x00000000        0x0 build/lcdc_rgba8888_mxt_9x60_wvga/debug/_ext/1483321925/legato_error.o
 .data          0x00000000        0x0 build/lcdc_rgba8888_mxt_9x60_wvga/debug/_ext/1483321925/legato_error.o
 .bss           0x00000000        0x0 build/lcdc_rgba8888_mxt_9x60_wvga/debug/_ext/1483321925/legato_error.o
 .debug_info    0x00000000      0x46a build/lcdc_rgba8888_mxt_9x60_wvga/debug/_ext/1483321925/legato_error.o
 .debug_abbrev  0x00000000       0xb5 build/lcdc_rgba8888_mxt_9x60_wvga/debug/_ext/1483321925/legato_error.o
 .debug_aranges
                0x00000000       0x18 build/lcdc_rgba8888_mxt_9x60_wvga/debug/_ext/1483321925/legato_error.o
 .debug_line    0x00000000       0xb9 build/lcdc_rgba8888_mxt_9x60_wvga/debug/_ext/1483321925/legato_error.o
 .debug_str     0x00000000        0x9 build/lcdc_rgba8888_mxt_9x60_wvga/debug/_ext/1483321925/legato_error.o
 .comment       0x00000000       0x2c build/lcdc_rgba8888_mxt_9x60_wvga/debug/_ext/1483321925/legato_error.o
 .ARM.attributes
                0x00000000       0x32 build/lcdc_rgba8888_mxt_9x60_wvga/debug/_ext/1483321925/legato_error.o
 .text          0x00000000        0x0 build/lcdc_rgba8888_mxt_9x60_wvga/debug/_ext/1483321925/legato_color.o
 .data          0x00000000        0x0 build/lcdc_rgba8888_mxt_9x60_wvga/debug/_ext/1483321925/legato_color.o
 .bss           0x00000000        0x0 build/lcdc_rgba8888_mxt_9x60_wvga/debug/_ext/1483321925/legato_color.o
 .text.leColorChannelRed
                0x00000000       0x20 build/lcdc_rgba8888_mxt_9x60_wvga/debug/_ext/1483321925/legato_color.o
 .text.leColorChannelGreen
                0x00000000       0x20 build/lcdc_rgba8888_mxt_9x60_wvga/debug/_ext/1483321925/legato_color.o
 .text.leColorChannelBlue
                0x00000000       0x20 build/lcdc_rgba8888_mxt_9x60_wvga/debug/_ext/1483321925/legato_color.o
 .text          0x00000000        0x0 build/lcdc_rgba8888_mxt_9x60_wvga/debug/_ext/1483321925/legato_color_lerp.o
 .data          0x00000000        0x0 build/lcdc_rgba8888_mxt_9x60_wvga/debug/_ext/1483321925/legato_color_lerp.o
 .bss           0x00000000        0x0 build/lcdc_rgba8888_mxt_9x60_wvga/debug/_ext/1483321925/legato_color_lerp.o
 .text          0x00000000        0x0 build/lcdc_rgba8888_mxt_9x60_wvga/debug/_ext/1553762159/legato_state.o
 .data          0x00000000        0x0 build/lcdc_rgba8888_mxt_9x60_wvga/debug/_ext/1553762159/legato_state.o
 .bss           0x00000000        0x0 build/lcdc_rgba8888_mxt_9x60_wvga/debug/_ext/1553762159/legato_state.o
 .text.updateWidgetLanguage
                0x00000000       0x44 build/lcdc_rgba8888_mxt_9x60_wvga/debug/_ext/1553762159/legato_state.o
 .text.leShutdown
                0x00000000       0xa0 build/lcdc_rgba8888_mxt_9x60_wvga/debug/_ext/1553762159/legato_state.o
 .text.leLayerCount
                0x00000000       0x24 build/lcdc_rgba8888_mxt_9x60_wvga/debug/_ext/1553762159/legato_state.o
 .text.leRemoveLayer
                0x00000000       0x84 build/lcdc_rgba8888_mxt_9x60_wvga/debug/_ext/1553762159/legato_state.o
 .text.leSetLayerRenderHorizontal
                0x00000000       0x5c build/lcdc_rgba8888_mxt_9x60_wvga/debug/_ext/1553762159/legato_state.o
 .text.leGetLayerClearMode
                0x00000000       0x54 build/lcdc_rgba8888_mxt_9x60_wvga/debug/_ext/1553762159/legato_state.o
 .text.leSetLayerClearMode
                0x00000000       0x5c build/lcdc_rgba8888_mxt_9x60_wvga/debug/_ext/1553762159/legato_state.o
 .text.leGetStringTable
                0x00000000       0x10 build/lcdc_rgba8888_mxt_9x60_wvga/debug/_ext/1553762159/legato_state.o
 .text.leGetStringLanguage
                0x00000000       0x10 build/lcdc_rgba8888_mxt_9x60_wvga/debug/_ext/1553762159/legato_state.o
 .text.leSetStringLanguage
                0x00000000       0x5c build/lcdc_rgba8888_mxt_9x60_wvga/debug/_ext/1553762159/legato_state.o
 .text.leGetDefaultScheme
                0x00000000        0xc build/lcdc_rgba8888_mxt_9x60_wvga/debug/_ext/1553762159/legato_state.o
 .text.leEdit_StartEdit
                0x00000000       0x30 build/lcdc_rgba8888_mxt_9x60_wvga/debug/_ext/1553762159/legato_state.o
 .text.leEdit_EndEdit
                0x00000000       0x28 build/lcdc_rgba8888_mxt_9x60_wvga/debug/_ext/1553762159/legato_state.o
 .text.leEdit_Clear
                0x00000000       0x28 build/lcdc_rgba8888_mxt_9x60_wvga/debug/_ext/1553762159/legato_state.o
 .text.leEdit_Accept
                0x00000000       0x28 build/lcdc_rgba8888_mxt_9x60_wvga/debug/_ext/1553762159/legato_state.o
 .text.leEdit_Set
                0x00000000       0x30 build/lcdc_rgba8888_mxt_9x60_wvga/debug/_ext/1553762159/legato_state.o
 .text.leEdit_Append
                0x00000000       0x30 build/lcdc_rgba8888_mxt_9x60_wvga/debug/_ext/1553762159/legato_state.o
 .text.leEdit_Backspace
                0x00000000       0x28 build/lcdc_rgba8888_mxt_9x60_wvga/debug/_ext/1553762159/legato_state.o
 .text          0x00000000        0x0 build/lcdc_rgba8888_mxt_9x60_wvga/debug/_ext/1553762159/legato_event.o
 .data          0x00000000        0x0 build/lcdc_rgba8888_mxt_9x60_wvga/debug/_ext/1553762159/legato_event.o
 .bss           0x00000000        0x0 build/lcdc_rgba8888_mxt_9x60_wvga/debug/_ext/1553762159/legato_event.o
 .text.leEvent_Shutdown
                0x00000000       0x14 build/lcdc_rgba8888_mxt_9x60_wvga/debug/_ext/1553762159/legato_event.o
 .text.leEvent_GetCount
                0x00000000       0x10 build/lcdc_rgba8888_mxt_9x60_wvga/debug/_ext/1553762159/legato_event.o
 .text.leEvent_SetFilter
                0x00000000       0x14 build/lcdc_rgba8888_mxt_9x60_wvga/debug/_ext/1553762159/legato_event.o
 .text.leEvent_ClearList
                0x00000000       0x18 build/lcdc_rgba8888_mxt_9x60_wvga/debug/_ext/1553762159/legato_event.o
 .text          0x00000000        0x0 build/lcdc_rgba8888_mxt_9x60_wvga/debug/_ext/1553762159/legato_input.o
 .data          0x00000000        0x0 build/lcdc_rgba8888_mxt_9x60_wvga/debug/_ext/1553762159/legato_input.o
 .bss           0x00000000        0x0 build/lcdc_rgba8888_mxt_9x60_wvga/debug/_ext/1553762159/legato_input.o
 .text._leGetInputState
                0x00000000        0xc build/lcdc_rgba8888_mxt_9x60_wvga/debug/_ext/1553762159/legato_input.o
 .text.leInput_Shutdown
                0x00000000        0x4 build/lcdc_rgba8888_mxt_9x60_wvga/debug/_ext/1553762159/legato_input.o
 .text.leInput_GetEnabled
                0x00000000       0x10 build/lcdc_rgba8888_mxt_9x60_wvga/debug/_ext/1553762159/legato_input.o
 .text.leInput_SetEnabled
                0x00000000       0x14 build/lcdc_rgba8888_mxt_9x60_wvga/debug/_ext/1553762159/legato_input.o
 .text          0x00000000        0x0 build/lcdc_rgba8888_mxt_9x60_wvga/debug/_ext/1553762159/legato_scheme.o
 .data          0x00000000        0x0 build/lcdc_rgba8888_mxt_9x60_wvga/debug/_ext/1553762159/legato_scheme.o
 .bss           0x00000000        0x0 build/lcdc_rgba8888_mxt_9x60_wvga/debug/_ext/1553762159/legato_scheme.o
 .text.leScheme_Initialize
                0x00000000       0x20 build/lcdc_rgba8888_mxt_9x60_wvga/debug/_ext/1553762159/legato_scheme.o
 .text.leScheme_GetColor
                0x00000000       0x1c build/lcdc_rgba8888_mxt_9x60_wvga/debug/_ext/1553762159/legato_scheme.o
 .text          0x00000000        0x0 build/lcdc_rgba8888_mxt_9x60_wvga/debug/_ext/1553762159/legato_stream.o
 .data          0x00000000        0x0 build/lcdc_rgba8888_mxt_9x60_wvga/debug/_ext/1553762159/legato_stream.o
 .bss           0x00000000        0x0 build/lcdc_rgba8888_mxt_9x60_wvga/debug/_ext/1553762159/legato_stream.o
 .debug_info    0x00000000      0x469 build/lcdc_rgba8888_mxt_9x60_wvga/debug/_ext/1553762159/legato_stream.o
 .debug_abbrev  0x00000000       0xb5 build/lcdc_rgba8888_mxt_9x60_wvga/debug/_ext/1553762159/legato_stream.o
 .debug_aranges
                0x00000000       0x18 build/lcdc_rgba8888_mxt_9x60_wvga/debug/_ext/1553762159/legato_stream.o
 .debug_line    0x00000000       0xb9 build/lcdc_rgba8888_mxt_9x60_wvga/debug/_ext/1553762159/legato_stream.o
 .debug_str     0x00000000        0x9 build/lcdc_rgba8888_mxt_9x60_wvga/debug/_ext/1553762159/legato_stream.o
 .comment       0x00000000       0x2c build/lcdc_rgba8888_mxt_9x60_wvga/debug/_ext/1553762159/legato_stream.o
 .ARM.attributes
                0x00000000       0x32 build/lcdc_rgba8888_mxt_9x60_wvga/debug/_ext/1553762159/legato_stream.o
 .text          0x00000000        0x0 build/lcdc_rgba8888_mxt_9x60_wvga/debug/_ext/1653592263/legato_array.o
 .data          0x00000000        0x0 build/lcdc_rgba8888_mxt_9x60_wvga/debug/_ext/1653592263/legato_array.o
 .bss           0x00000000        0x0 build/lcdc_rgba8888_mxt_9x60_wvga/debug/_ext/1653592263/legato_array.o
 .text.leArray_PushFront
                0x00000000       0x70 build/lcdc_rgba8888_mxt_9x60_wvga/debug/_ext/1653592263/legato_array.o
 .text.leArray_PopFront
                0x00000000       0x38 build/lcdc_rgba8888_mxt_9x60_wvga/debug/_ext/1653592263/legato_array.o
 .text.leArray_PopBack
                0x00000000       0x34 build/lcdc_rgba8888_mxt_9x60_wvga/debug/_ext/1653592263/legato_array.o
 .text.leArray_Set
                0x00000000       0x1c build/lcdc_rgba8888_mxt_9x60_wvga/debug/_ext/1653592263/legato_array.o
 .text.leArray_Copy
                0x00000000       0x74 build/lcdc_rgba8888_mxt_9x60_wvga/debug/_ext/1653592263/legato_array.o
 .text          0x00000000        0x0 build/lcdc_rgba8888_mxt_9x60_wvga/debug/_ext/1653592263/legato_list.o
 .data          0x00000000        0x0 build/lcdc_rgba8888_mxt_9x60_wvga/debug/_ext/1653592263/legato_list.o
 .bss           0x00000000        0x0 build/lcdc_rgba8888_mxt_9x60_wvga/debug/_ext/1653592263/legato_list.o
 .text.leList_Assign
                0x00000000       0x58 build/lcdc_rgba8888_mxt_9x60_wvga/debug/_ext/1653592263/legato_list.o
 .text.leList_PushFront
                0x00000000       0x74 build/lcdc_rgba8888_mxt_9x60_wvga/debug/_ext/1653592263/legato_list.o
 .text.leList_PopFront
                0x00000000       0x5c build/lcdc_rgba8888_mxt_9x60_wvga/debug/_ext/1653592263/legato_list.o
 .text.leList_Find
                0x00000000       0x6c build/lcdc_rgba8888_mxt_9x60_wvga/debug/_ext/1653592263/legato_list.o
 .text.leList_InsertAt
                0x00000000       0xc4 build/lcdc_rgba8888_mxt_9x60_wvga/debug/_ext/1653592263/legato_list.o
 .text.leList_RemoveAt
                0x00000000       0xa0 build/lcdc_rgba8888_mxt_9x60_wvga/debug/_ext/1653592263/legato_list.o
 .text.leList_Clear
                0x00000000       0x40 build/lcdc_rgba8888_mxt_9x60_wvga/debug/_ext/1653592263/legato_list.o
 .text.leList_Copy
                0x00000000       0xa8 build/lcdc_rgba8888_mxt_9x60_wvga/debug/_ext/1653592263/legato_list.o
 .text          0x00000000        0x0 build/lcdc_rgba8888_mxt_9x60_wvga/debug/_ext/1653592263/legato_rectarray.o
 .data          0x00000000        0x0 build/lcdc_rgba8888_mxt_9x60_wvga/debug/_ext/1653592263/legato_rectarray.o
 .bss           0x00000000        0x0 build/lcdc_rgba8888_mxt_9x60_wvga/debug/_ext/1653592263/legato_rectarray.o
 .text._shuffleRight
                0x00000000       0xa4 build/lcdc_rgba8888_mxt_9x60_wvga/debug/_ext/1653592263/legato_rectarray.o
 .text.leRectArray_PushFront
                0x00000000       0x78 build/lcdc_rgba8888_mxt_9x60_wvga/debug/_ext/1653592263/legato_rectarray.o
 .text.leRectArray_PopFront
                0x00000000       0x38 build/lcdc_rgba8888_mxt_9x60_wvga/debug/_ext/1653592263/legato_rectarray.o
 .text.leRectArray_PopBack
                0x00000000       0x34 build/lcdc_rgba8888_mxt_9x60_wvga/debug/_ext/1653592263/legato_rectarray.o
 .text.leRectArray_InsertAt
                0x00000000       0xa8 build/lcdc_rgba8888_mxt_9x60_wvga/debug/_ext/1653592263/legato_rectarray.o
 .text.leRectArray_PadRectangles
                0x00000000       0x14 build/lcdc_rgba8888_mxt_9x60_wvga/debug/_ext/1653592263/legato_rectarray.o
 .text.leRectArray_PadRectangleHeight
                0x00000000       0xdc build/lcdc_rgba8888_mxt_9x60_wvga/debug/_ext/1653592263/legato_rectarray.o
 .text.leRectArray_CropToArea
                0x00000000       0xd4 build/lcdc_rgba8888_mxt_9x60_wvga/debug/_ext/1653592263/legato_rectarray.o
 .text          0x00000000        0x0 build/lcdc_rgba8888_mxt_9x60_wvga/debug/_ext/1553851423/legato_rasterfont_liberationmono8.o
 .data          0x00000000        0x0 build/lcdc_rgba8888_mxt_9x60_wvga/debug/_ext/1553851423/legato_rasterfont_liberationmono8.o
 .bss           0x00000000        0x0 build/lcdc_rgba8888_mxt_9x60_wvga/debug/_ext/1553851423/legato_rasterfont_liberationmono8.o
 .debug_info    0x00000000      0x47d build/lcdc_rgba8888_mxt_9x60_wvga/debug/_ext/1553851423/legato_rasterfont_liberationmono8.o
 .debug_abbrev  0x00000000       0xb5 build/lcdc_rgba8888_mxt_9x60_wvga/debug/_ext/1553851423/legato_rasterfont_liberationmono8.o
 .debug_aranges
                0x00000000       0x18 build/lcdc_rgba8888_mxt_9x60_wvga/debug/_ext/1553851423/legato_rasterfont_liberationmono8.o
 .debug_line    0x00000000       0xb9 build/lcdc_rgba8888_mxt_9x60_wvga/debug/_ext/1553851423/legato_rasterfont_liberationmono8.o
 .debug_str     0x00000000        0x9 build/lcdc_rgba8888_mxt_9x60_wvga/debug/_ext/1553851423/legato_rasterfont_liberationmono8.o
 .comment       0x00000000       0x2c build/lcdc_rgba8888_mxt_9x60_wvga/debug/_ext/1553851423/legato_rasterfont_liberationmono8.o
 .ARM.attributes
                0x00000000       0x32 build/lcdc_rgba8888_mxt_9x60_wvga/debug/_ext/1553851423/legato_rasterfont_liberationmono8.o
 .text          0x00000000        0x0 build/lcdc_rgba8888_mxt_9x60_wvga/debug/_ext/1553851423/legato_rasterfont_liberationmono1.o
 .data          0x00000000        0x0 build/lcdc_rgba8888_mxt_9x60_wvga/debug/_ext/1553851423/legato_rasterfont_liberationmono1.o
 .bss           0x00000000        0x0 build/lcdc_rgba8888_mxt_9x60_wvga/debug/_ext/1553851423/legato_rasterfont_liberationmono1.o
 .debug_info    0x00000000      0x47d build/lcdc_rgba8888_mxt_9x60_wvga/debug/_ext/1553851423/legato_rasterfont_liberationmono1.o
 .debug_abbrev  0x00000000       0xb5 build/lcdc_rgba8888_mxt_9x60_wvga/debug/_ext/1553851423/legato_rasterfont_liberationmono1.o
 .debug_aranges
                0x00000000       0x18 build/lcdc_rgba8888_mxt_9x60_wvga/debug/_ext/1553851423/legato_rasterfont_liberationmono1.o
 .debug_line    0x00000000       0xb9 build/lcdc_rgba8888_mxt_9x60_wvga/debug/_ext/1553851423/legato_rasterfont_liberationmono1.o
 .debug_str     0x00000000        0x9 build/lcdc_rgba8888_mxt_9x60_wvga/debug/_ext/1553851423/legato_rasterfont_liberationmono1.o
 .comment       0x00000000       0x2c build/lcdc_rgba8888_mxt_9x60_wvga/debug/_ext/1553851423/legato_rasterfont_liberationmono1.o
 .ARM.attributes
                0x00000000       0x32 build/lcdc_rgba8888_mxt_9x60_wvga/debug/_ext/1553851423/legato_rasterfont_liberationmono1.o
 .text          0x00000000        0x0 build/lcdc_rgba8888_mxt_9x60_wvga/debug/_ext/1553851423/legato_font.o
 .data          0x00000000        0x0 build/lcdc_rgba8888_mxt_9x60_wvga/debug/_ext/1553851423/legato_font.o
 .bss           0x00000000        0x0 build/lcdc_rgba8888_mxt_9x60_wvga/debug/_ext/1553851423/legato_font.o
 .text.leFont_GetGlyphRect
                0x00000000       0x34 build/lcdc_rgba8888_mxt_9x60_wvga/debug/_ext/1553851423/legato_font.o
 .text          0x00000000        0x0 build/lcdc_rgba8888_mxt_9x60_wvga/debug/_ext/1553851423/legato_rasterfont_stream.o
 .data          0x00000000        0x0 build/lcdc_rgba8888_mxt_9x60_wvga/debug/_ext/1553851423/legato_rasterfont_stream.o
 .bss           0x00000000        0x0 build/lcdc_rgba8888_mxt_9x60_wvga/debug/_ext/1553851423/legato_rasterfont_stream.o
 .debug_info    0x00000000      0xd04 build/lcdc_rgba8888_mxt_9x60_wvga/debug/_ext/1553851423/legato_rasterfont_stream.o
 .debug_abbrev  0x00000000      0x17b build/lcdc_rgba8888_mxt_9x60_wvga/debug/_ext/1553851423/legato_rasterfont_stream.o
 .debug_aranges
                0x00000000       0x18 build/lcdc_rgba8888_mxt_9x60_wvga/debug/_ext/1553851423/legato_rasterfont_stream.o
 .debug_line    0x00000000      0x10f build/lcdc_rgba8888_mxt_9x60_wvga/debug/_ext/1553851423/legato_rasterfont_stream.o
 .debug_str     0x00000000       0x8b build/lcdc_rgba8888_mxt_9x60_wvga/debug/_ext/1553851423/legato_rasterfont_stream.o
 .comment       0x00000000       0x2c build/lcdc_rgba8888_mxt_9x60_wvga/debug/_ext/1553851423/legato_rasterfont_stream.o
 .ARM.attributes
                0x00000000       0x32 build/lcdc_rgba8888_mxt_9x60_wvga/debug/_ext/1553851423/legato_rasterfont_stream.o
 .text          0x00000000        0x0 build/lcdc_rgba8888_mxt_9x60_wvga/debug/_ext/528922783/le_gen_fonts.o
 .data          0x00000000        0x0 build/lcdc_rgba8888_mxt_9x60_wvga/debug/_ext/528922783/le_gen_fonts.o
 .bss           0x00000000        0x0 build/lcdc_rgba8888_mxt_9x60_wvga/debug/_ext/528922783/le_gen_fonts.o
 .text          0x00000000        0x0 build/lcdc_rgba8888_mxt_9x60_wvga/debug/_ext/780564725/image5.o
 .data          0x00000000        0x0 build/lcdc_rgba8888_mxt_9x60_wvga/debug/_ext/780564725/image5.o
 .bss           0x00000000        0x0 build/lcdc_rgba8888_mxt_9x60_wvga/debug/_ext/780564725/image5.o
 .text          0x00000000        0x0 build/lcdc_rgba8888_mxt_9x60_wvga/debug/_ext/780564725/Rinse2.o
 .data          0x00000000        0x0 build/lcdc_rgba8888_mxt_9x60_wvga/debug/_ext/780564725/Rinse2.o
 .bss           0x00000000        0x0 build/lcdc_rgba8888_mxt_9x60_wvga/debug/_ext/780564725/Rinse2.o
 .data.Rinse2   0x00000000       0x3c build/lcdc_rgba8888_mxt_9x60_wvga/debug/_ext/780564725/Rinse2.o
 .rodata.Rinse2_data
                0x00000000    0x1a174 build/lcdc_rgba8888_mxt_9x60_wvga/debug/_ext/780564725/Rinse2.o
 .debug_info    0x00000000     0x1126 build/lcdc_rgba8888_mxt_9x60_wvga/debug/_ext/780564725/Rinse2.o
 .debug_abbrev  0x00000000      0x1e0 build/lcdc_rgba8888_mxt_9x60_wvga/debug/_ext/780564725/Rinse2.o
 .debug_aranges
                0x00000000       0x18 build/lcdc_rgba8888_mxt_9x60_wvga/debug/_ext/780564725/Rinse2.o
 .debug_line    0x00000000      0x276 build/lcdc_rgba8888_mxt_9x60_wvga/debug/_ext/780564725/Rinse2.o
 .debug_str     0x00000000       0xeb build/lcdc_rgba8888_mxt_9x60_wvga/debug/_ext/780564725/Rinse2.o
 .comment       0x00000000       0x2c build/lcdc_rgba8888_mxt_9x60_wvga/debug/_ext/780564725/Rinse2.o
 .ARM.attributes
                0x00000000       0x32 build/lcdc_rgba8888_mxt_9x60_wvga/debug/_ext/780564725/Rinse2.o
 .text          0x00000000        0x0 build/lcdc_rgba8888_mxt_9x60_wvga/debug/_ext/780564725/r3.o
 .data          0x00000000        0x0 build/lcdc_rgba8888_mxt_9x60_wvga/debug/_ext/780564725/r3.o
 .bss           0x00000000        0x0 build/lcdc_rgba8888_mxt_9x60_wvga/debug/_ext/780564725/r3.o
 .text          0x00000000        0x0 build/lcdc_rgba8888_mxt_9x60_wvga/debug/_ext/780564725/Spin3.o
 .data          0x00000000        0x0 build/lcdc_rgba8888_mxt_9x60_wvga/debug/_ext/780564725/Spin3.o
 .bss           0x00000000        0x0 build/lcdc_rgba8888_mxt_9x60_wvga/debug/_ext/780564725/Spin3.o
 .data.Spin3    0x00000000       0x3c build/lcdc_rgba8888_mxt_9x60_wvga/debug/_ext/780564725/Spin3.o
 .rodata.Spin3_data
                0x00000000    0x1ae18 build/lcdc_rgba8888_mxt_9x60_wvga/debug/_ext/780564725/Spin3.o
 .debug_info    0x00000000     0x1123 build/lcdc_rgba8888_mxt_9x60_wvga/debug/_ext/780564725/Spin3.o
 .debug_abbrev  0x00000000      0x1e0 build/lcdc_rgba8888_mxt_9x60_wvga/debug/_ext/780564725/Spin3.o
 .debug_aranges
                0x00000000       0x18 build/lcdc_rgba8888_mxt_9x60_wvga/debug/_ext/780564725/Spin3.o
 .debug_line    0x00000000      0x275 build/lcdc_rgba8888_mxt_9x60_wvga/debug/_ext/780564725/Spin3.o
 .debug_str     0x00000000       0xeb build/lcdc_rgba8888_mxt_9x60_wvga/debug/_ext/780564725/Spin3.o
 .comment       0x00000000       0x2c build/lcdc_rgba8888_mxt_9x60_wvga/debug/_ext/780564725/Spin3.o
 .ARM.attributes
                0x00000000       0x32 build/lcdc_rgba8888_mxt_9x60_wvga/debug/_ext/780564725/Spin3.o
 .text          0x00000000        0x0 build/lcdc_rgba8888_mxt_9x60_wvga/debug/_ext/780564725/low_but_up.o
 .data          0x00000000        0x0 build/lcdc_rgba8888_mxt_9x60_wvga/debug/_ext/780564725/low_but_up.o
 .bss           0x00000000        0x0 build/lcdc_rgba8888_mxt_9x60_wvga/debug/_ext/780564725/low_but_up.o
 .text          0x00000000        0x0 build/lcdc_rgba8888_mxt_9x60_wvga/debug/_ext/780564725/image6.o
 .data          0x00000000        0x0 build/lcdc_rgba8888_mxt_9x60_wvga/debug/_ext/780564725/image6.o
 .bss           0x00000000        0x0 build/lcdc_rgba8888_mxt_9x60_wvga/debug/_ext/780564725/image6.o
 .text          0x00000000        0x0 build/lcdc_rgba8888_mxt_9x60_wvga/debug/_ext/780564725/Rinse3.o
 .data          0x00000000        0x0 build/lcdc_rgba8888_mxt_9x60_wvga/debug/_ext/780564725/Rinse3.o
 .bss           0x00000000        0x0 build/lcdc_rgba8888_mxt_9x60_wvga/debug/_ext/780564725/Rinse3.o
 .data.Rinse3   0x00000000       0x3c build/lcdc_rgba8888_mxt_9x60_wvga/debug/_ext/780564725/Rinse3.o
 .rodata.Rinse3_data
                0x00000000    0x1a1f8 build/lcdc_rgba8888_mxt_9x60_wvga/debug/_ext/780564725/Rinse3.o
 .debug_info    0x00000000     0x1126 build/lcdc_rgba8888_mxt_9x60_wvga/debug/_ext/780564725/Rinse3.o
 .debug_abbrev  0x00000000      0x1e0 build/lcdc_rgba8888_mxt_9x60_wvga/debug/_ext/780564725/Rinse3.o
 .debug_aranges
                0x00000000       0x18 build/lcdc_rgba8888_mxt_9x60_wvga/debug/_ext/780564725/Rinse3.o
 .debug_line    0x00000000      0x276 build/lcdc_rgba8888_mxt_9x60_wvga/debug/_ext/780564725/Rinse3.o
 .debug_str     0x00000000       0xeb build/lcdc_rgba8888_mxt_9x60_wvga/debug/_ext/780564725/Rinse3.o
 .comment       0x00000000       0x2c build/lcdc_rgba8888_mxt_9x60_wvga/debug/_ext/780564725/Rinse3.o
 .ARM.attributes
                0x00000000       0x32 build/lcdc_rgba8888_mxt_9x60_wvga/debug/_ext/780564725/Rinse3.o
 .text          0x00000000        0x0 build/lcdc_rgba8888_mxt_9x60_wvga/debug/_ext/780564725/r2.o
 .data          0x00000000        0x0 build/lcdc_rgba8888_mxt_9x60_wvga/debug/_ext/780564725/r2.o
 .bss           0x00000000        0x0 build/lcdc_rgba8888_mxt_9x60_wvga/debug/_ext/780564725/r2.o
 .text          0x00000000        0x0 build/lcdc_rgba8888_mxt_9x60_wvga/debug/_ext/780564725/sports_but_down.o
 .data          0x00000000        0x0 build/lcdc_rgba8888_mxt_9x60_wvga/debug/_ext/780564725/sports_but_down.o
 .bss           0x00000000        0x0 build/lcdc_rgba8888_mxt_9x60_wvga/debug/_ext/780564725/sports_but_down.o
 .text          0x00000000        0x0 build/lcdc_rgba8888_mxt_9x60_wvga/debug/_ext/780564725/sound_but_off.o
 .data          0x00000000        0x0 build/lcdc_rgba8888_mxt_9x60_wvga/debug/_ext/780564725/sound_but_off.o
 .bss           0x00000000        0x0 build/lcdc_rgba8888_mxt_9x60_wvga/debug/_ext/780564725/sound_but_off.o
 .data.sound_but_off
                0x00000000       0x3c build/lcdc_rgba8888_mxt_9x60_wvga/debug/_ext/780564725/sound_but_off.o
 .rodata.sound_but_off_data
                0x00000000     0x170c build/lcdc_rgba8888_mxt_9x60_wvga/debug/_ext/780564725/sound_but_off.o
 .debug_info    0x00000000     0x1139 build/lcdc_rgba8888_mxt_9x60_wvga/debug/_ext/780564725/sound_but_off.o
 .debug_abbrev  0x00000000      0x1e0 build/lcdc_rgba8888_mxt_9x60_wvga/debug/_ext/780564725/sound_but_off.o
 .debug_aranges
                0x00000000       0x18 build/lcdc_rgba8888_mxt_9x60_wvga/debug/_ext/780564725/sound_but_off.o
 .debug_line    0x00000000      0x27d build/lcdc_rgba8888_mxt_9x60_wvga/debug/_ext/780564725/sound_but_off.o
 .debug_str     0x00000000       0xeb build/lcdc_rgba8888_mxt_9x60_wvga/debug/_ext/780564725/sound_but_off.o
 .comment       0x00000000       0x2c build/lcdc_rgba8888_mxt_9x60_wvga/debug/_ext/780564725/sound_but_off.o
 .ARM.attributes
                0x00000000       0x32 build/lcdc_rgba8888_mxt_9x60_wvga/debug/_ext/780564725/sound_but_off.o
 .text          0x00000000        0x0 build/lcdc_rgba8888_mxt_9x60_wvga/debug/_ext/780564725/warm_but_down.o
 .data          0x00000000        0x0 build/lcdc_rgba8888_mxt_9x60_wvga/debug/_ext/780564725/warm_but_down.o
 .bss           0x00000000        0x0 build/lcdc_rgba8888_mxt_9x60_wvga/debug/_ext/780564725/warm_but_down.o
 .text          0x00000000        0x0 build/lcdc_rgba8888_mxt_9x60_wvga/debug/_ext/780564725/logoH.o
 .data          0x00000000        0x0 build/lcdc_rgba8888_mxt_9x60_wvga/debug/_ext/780564725/logoH.o
 .bss           0x00000000        0x0 build/lcdc_rgba8888_mxt_9x60_wvga/debug/_ext/780564725/logoH.o
 .text          0x00000000        0x0 build/lcdc_rgba8888_mxt_9x60_wvga/debug/_ext/780564725/image7.o
 .data          0x00000000        0x0 build/lcdc_rgba8888_mxt_9x60_wvga/debug/_ext/780564725/image7.o
 .bss           0x00000000        0x0 build/lcdc_rgba8888_mxt_9x60_wvga/debug/_ext/780564725/image7.o
 .text          0x00000000        0x0 build/lcdc_rgba8888_mxt_9x60_wvga/debug/_ext/780564725/xrinse_but_on.o
 .data          0x00000000        0x0 build/lcdc_rgba8888_mxt_9x60_wvga/debug/_ext/780564725/xrinse_but_on.o
 .bss           0x00000000        0x0 build/lcdc_rgba8888_mxt_9x60_wvga/debug/_ext/780564725/xrinse_but_on.o
 .data.xrinse_but_on
                0x00000000       0x3c build/lcdc_rgba8888_mxt_9x60_wvga/debug/_ext/780564725/xrinse_but_on.o
 .rodata.xrinse_but_on_data
                0x00000000     0x1700 build/lcdc_rgba8888_mxt_9x60_wvga/debug/_ext/780564725/xrinse_but_on.o
 .debug_info    0x00000000     0x1139 build/lcdc_rgba8888_mxt_9x60_wvga/debug/_ext/780564725/xrinse_but_on.o
 .debug_abbrev  0x00000000      0x1e0 build/lcdc_rgba8888_mxt_9x60_wvga/debug/_ext/780564725/xrinse_but_on.o
 .debug_aranges
                0x00000000       0x18 build/lcdc_rgba8888_mxt_9x60_wvga/debug/_ext/780564725/xrinse_but_on.o
 .debug_line    0x00000000      0x27d build/lcdc_rgba8888_mxt_9x60_wvga/debug/_ext/780564725/xrinse_but_on.o
 .debug_str     0x00000000       0xeb build/lcdc_rgba8888_mxt_9x60_wvga/debug/_ext/780564725/xrinse_but_on.o
 .comment       0x00000000       0x2c build/lcdc_rgba8888_mxt_9x60_wvga/debug/_ext/780564725/xrinse_but_on.o
 .ARM.attributes
                0x00000000       0x32 build/lcdc_rgba8888_mxt_9x60_wvga/debug/_ext/780564725/xrinse_but_on.o
 .text          0x00000000        0x0 build/lcdc_rgba8888_mxt_9x60_wvga/debug/_ext/780564725/hot_but_down.o
 .data          0x00000000        0x0 build/lcdc_rgba8888_mxt_9x60_wvga/debug/_ext/780564725/hot_but_down.o
 .bss           0x00000000        0x0 build/lcdc_rgba8888_mxt_9x60_wvga/debug/_ext/780564725/hot_but_down.o
 .text          0x00000000        0x0 build/lcdc_rgba8888_mxt_9x60_wvga/debug/_ext/780564725/r1.o
 .data          0x00000000        0x0 build/lcdc_rgba8888_mxt_9x60_wvga/debug/_ext/780564725/r1.o
 .bss           0x00000000        0x0 build/lcdc_rgba8888_mxt_9x60_wvga/debug/_ext/780564725/r1.o
 .text          0x00000000        0x0 build/lcdc_rgba8888_mxt_9x60_wvga/debug/_ext/780564725/high_but_down.o
 .data          0x00000000        0x0 build/lcdc_rgba8888_mxt_9x60_wvga/debug/_ext/780564725/high_but_down.o
 .bss           0x00000000        0x0 build/lcdc_rgba8888_mxt_9x60_wvga/debug/_ext/780564725/high_but_down.o
 .text          0x00000000        0x0 build/lcdc_rgba8888_mxt_9x60_wvga/debug/_ext/780564725/image8.o
 .data          0x00000000        0x0 build/lcdc_rgba8888_mxt_9x60_wvga/debug/_ext/780564725/image8.o
 .bss           0x00000000        0x0 build/lcdc_rgba8888_mxt_9x60_wvga/debug/_ext/780564725/image8.o
 .text          0x00000000        0x0 build/lcdc_rgba8888_mxt_9x60_wvga/debug/_ext/780564725/round_exit.o
 .data          0x00000000        0x0 build/lcdc_rgba8888_mxt_9x60_wvga/debug/_ext/780564725/round_exit.o
 .bss           0x00000000        0x0 build/lcdc_rgba8888_mxt_9x60_wvga/debug/_ext/780564725/round_exit.o
 .text          0x00000000        0x0 build/lcdc_rgba8888_mxt_9x60_wvga/debug/_ext/780564725/image1.o
 .data          0x00000000        0x0 build/lcdc_rgba8888_mxt_9x60_wvga/debug/_ext/780564725/image1.o
 .bss           0x00000000        0x0 build/lcdc_rgba8888_mxt_9x60_wvga/debug/_ext/780564725/image1.o
 .text          0x00000000        0x0 build/lcdc_rgba8888_mxt_9x60_wvga/debug/_ext/780564725/start_but_up.o
 .data          0x00000000        0x0 build/lcdc_rgba8888_mxt_9x60_wvga/debug/_ext/780564725/start_but_up.o
 .bss           0x00000000        0x0 build/lcdc_rgba8888_mxt_9x60_wvga/debug/_ext/780564725/start_but_up.o
 .text          0x00000000        0x0 build/lcdc_rgba8888_mxt_9x60_wvga/debug/_ext/780564725/round_button.o
 .data          0x00000000        0x0 build/lcdc_rgba8888_mxt_9x60_wvga/debug/_ext/780564725/round_button.o
 .bss           0x00000000        0x0 build/lcdc_rgba8888_mxt_9x60_wvga/debug/_ext/780564725/round_button.o
 .text          0x00000000        0x0 build/lcdc_rgba8888_mxt_9x60_wvga/debug/_ext/780564725/r7.o
 .data          0x00000000        0x0 build/lcdc_rgba8888_mxt_9x60_wvga/debug/_ext/780564725/r7.o
 .bss           0x00000000        0x0 build/lcdc_rgba8888_mxt_9x60_wvga/debug/_ext/780564725/r7.o
 .text          0x00000000        0x0 build/lcdc_rgba8888_mxt_9x60_wvga/debug/_ext/780564725/image2.o
 .data          0x00000000        0x0 build/lcdc_rgba8888_mxt_9x60_wvga/debug/_ext/780564725/image2.o
 .bss           0x00000000        0x0 build/lcdc_rgba8888_mxt_9x60_wvga/debug/_ext/780564725/image2.o
 .text          0x00000000        0x0 build/lcdc_rgba8888_mxt_9x60_wvga/debug/_ext/780564725/Wash0.o
 .data          0x00000000        0x0 build/lcdc_rgba8888_mxt_9x60_wvga/debug/_ext/780564725/Wash0.o
 .bss           0x00000000        0x0 build/lcdc_rgba8888_mxt_9x60_wvga/debug/_ext/780564725/Wash0.o
 .data.Wash0    0x00000000       0x3c build/lcdc_rgba8888_mxt_9x60_wvga/debug/_ext/780564725/Wash0.o
 .rodata.Wash0_data
                0x00000000    0x1a038 build/lcdc_rgba8888_mxt_9x60_wvga/debug/_ext/780564725/Wash0.o
 .debug_info    0x00000000     0x1123 build/lcdc_rgba8888_mxt_9x60_wvga/debug/_ext/780564725/Wash0.o
 .debug_abbrev  0x00000000      0x1e0 build/lcdc_rgba8888_mxt_9x60_wvga/debug/_ext/780564725/Wash0.o
 .debug_aranges
                0x00000000       0x18 build/lcdc_rgba8888_mxt_9x60_wvga/debug/_ext/780564725/Wash0.o
 .debug_line    0x00000000      0x275 build/lcdc_rgba8888_mxt_9x60_wvga/debug/_ext/780564725/Wash0.o
 .debug_str     0x00000000       0xeb build/lcdc_rgba8888_mxt_9x60_wvga/debug/_ext/780564725/Wash0.o
 .comment       0x00000000       0x2c build/lcdc_rgba8888_mxt_9x60_wvga/debug/_ext/780564725/Wash0.o
 .ARM.attributes
                0x00000000       0x32 build/lcdc_rgba8888_mxt_9x60_wvga/debug/_ext/780564725/Wash0.o
 .text          0x00000000        0x0 build/lcdc_rgba8888_mxt_9x60_wvga/debug/_ext/780564725/Spin0.o
 .data          0x00000000        0x0 build/lcdc_rgba8888_mxt_9x60_wvga/debug/_ext/780564725/Spin0.o
 .bss           0x00000000        0x0 build/lcdc_rgba8888_mxt_9x60_wvga/debug/_ext/780564725/Spin0.o
 .data.Spin0    0x00000000       0x3c build/lcdc_rgba8888_mxt_9x60_wvga/debug/_ext/780564725/Spin0.o
 .rodata.Spin0_data
                0x00000000    0x1ac6c build/lcdc_rgba8888_mxt_9x60_wvga/debug/_ext/780564725/Spin0.o
 .debug_info    0x00000000     0x1123 build/lcdc_rgba8888_mxt_9x60_wvga/debug/_ext/780564725/Spin0.o
 .debug_abbrev  0x00000000      0x1e0 build/lcdc_rgba8888_mxt_9x60_wvga/debug/_ext/780564725/Spin0.o
 .debug_aranges
                0x00000000       0x18 build/lcdc_rgba8888_mxt_9x60_wvga/debug/_ext/780564725/Spin0.o
 .debug_line    0x00000000      0x275 build/lcdc_rgba8888_mxt_9x60_wvga/debug/_ext/780564725/Spin0.o
 .debug_str     0x00000000       0xeb build/lcdc_rgba8888_mxt_9x60_wvga/debug/_ext/780564725/Spin0.o
 .comment       0x00000000       0x2c build/lcdc_rgba8888_mxt_9x60_wvga/debug/_ext/780564725/Spin0.o
 .ARM.attributes
                0x00000000       0x32 build/lcdc_rgba8888_mxt_9x60_wvga/debug/_ext/780564725/Spin0.o
 .text          0x00000000        0x0 build/lcdc_rgba8888_mxt_9x60_wvga/debug/_ext/780564725/r6.o
 .data          0x00000000        0x0 build/lcdc_rgba8888_mxt_9x60_wvga/debug/_ext/780564725/r6.o
 .bss           0x00000000        0x0 build/lcdc_rgba8888_mxt_9x60_wvga/debug/_ext/780564725/r6.o
 .text          0x00000000        0x0 build/lcdc_rgba8888_mxt_9x60_wvga/debug/_ext/780564725/image10.o
 .data          0x00000000        0x0 build/lcdc_rgba8888_mxt_9x60_wvga/debug/_ext/780564725/image10.o
 .bss           0x00000000        0x0 build/lcdc_rgba8888_mxt_9x60_wvga/debug/_ext/780564725/image10.o
 .text          0x00000000        0x0 build/lcdc_rgba8888_mxt_9x60_wvga/debug/_ext/780564725/close.o
 .data          0x00000000        0x0 build/lcdc_rgba8888_mxt_9x60_wvga/debug/_ext/780564725/close.o
 .bss           0x00000000        0x0 build/lcdc_rgba8888_mxt_9x60_wvga/debug/_ext/780564725/close.o
 .text          0x00000000        0x0 build/lcdc_rgba8888_mxt_9x60_wvga/debug/_ext/780564725/image3.o
 .data          0x00000000        0x0 build/lcdc_rgba8888_mxt_9x60_wvga/debug/_ext/780564725/image3.o
 .bss           0x00000000        0x0 build/lcdc_rgba8888_mxt_9x60_wvga/debug/_ext/780564725/image3.o
 .text          0x00000000        0x0 build/lcdc_rgba8888_mxt_9x60_wvga/debug/_ext/780564725/Rinse0.o
 .data          0x00000000        0x0 build/lcdc_rgba8888_mxt_9x60_wvga/debug/_ext/780564725/Rinse0.o
 .bss           0x00000000        0x0 build/lcdc_rgba8888_mxt_9x60_wvga/debug/_ext/780564725/Rinse0.o
 .data.Rinse0   0x00000000       0x3c build/lcdc_rgba8888_mxt_9x60_wvga/debug/_ext/780564725/Rinse0.o
 .rodata.Rinse0_data
                0x00000000    0x9c400 build/lcdc_rgba8888_mxt_9x60_wvga/debug/_ext/780564725/Rinse0.o
 .debug_info    0x00000000     0x1126 build/lcdc_rgba8888_mxt_9x60_wvga/debug/_ext/780564725/Rinse0.o
 .debug_abbrev  0x00000000      0x1e0 build/lcdc_rgba8888_mxt_9x60_wvga/debug/_ext/780564725/Rinse0.o
 .debug_aranges
                0x00000000       0x18 build/lcdc_rgba8888_mxt_9x60_wvga/debug/_ext/780564725/Rinse0.o
 .debug_line    0x00000000      0x276 build/lcdc_rgba8888_mxt_9x60_wvga/debug/_ext/780564725/Rinse0.o
 .debug_str     0x00000000       0xeb build/lcdc_rgba8888_mxt_9x60_wvga/debug/_ext/780564725/Rinse0.o
 .comment       0x00000000       0x2c build/lcdc_rgba8888_mxt_9x60_wvga/debug/_ext/780564725/Rinse0.o
 .ARM.attributes
                0x00000000       0x32 build/lcdc_rgba8888_mxt_9x60_wvga/debug/_ext/780564725/Rinse0.o
 .text          0x00000000        0x0 build/lcdc_rgba8888_mxt_9x60_wvga/debug/_ext/780564725/wool_but_down.o
 .data          0x00000000        0x0 build/lcdc_rgba8888_mxt_9x60_wvga/debug/_ext/780564725/wool_but_down.o
 .bss           0x00000000        0x0 build/lcdc_rgba8888_mxt_9x60_wvga/debug/_ext/780564725/wool_but_down.o
 .text          0x00000000        0x0 build/lcdc_rgba8888_mxt_9x60_wvga/debug/_ext/780564725/r5.o
 .data          0x00000000        0x0 build/lcdc_rgba8888_mxt_9x60_wvga/debug/_ext/780564725/r5.o
 .bss           0x00000000        0x0 build/lcdc_rgba8888_mxt_9x60_wvga/debug/_ext/780564725/r5.o
 .text          0x00000000        0x0 build/lcdc_rgba8888_mxt_9x60_wvga/debug/_ext/780564725/Spin1.o
 .data          0x00000000        0x0 build/lcdc_rgba8888_mxt_9x60_wvga/debug/_ext/780564725/Spin1.o
 .bss           0x00000000        0x0 build/lcdc_rgba8888_mxt_9x60_wvga/debug/_ext/780564725/Spin1.o
 .data.Spin1    0x00000000       0x3c build/lcdc_rgba8888_mxt_9x60_wvga/debug/_ext/780564725/Spin1.o
 .rodata.Spin1_data
                0x00000000    0x1acc0 build/lcdc_rgba8888_mxt_9x60_wvga/debug/_ext/780564725/Spin1.o
 .debug_info    0x00000000     0x1123 build/lcdc_rgba8888_mxt_9x60_wvga/debug/_ext/780564725/Spin1.o
 .debug_abbrev  0x00000000      0x1e0 build/lcdc_rgba8888_mxt_9x60_wvga/debug/_ext/780564725/Spin1.o
 .debug_aranges
                0x00000000       0x18 build/lcdc_rgba8888_mxt_9x60_wvga/debug/_ext/780564725/Spin1.o
 .debug_line    0x00000000      0x275 build/lcdc_rgba8888_mxt_9x60_wvga/debug/_ext/780564725/Spin1.o
 .debug_str     0x00000000       0xeb build/lcdc_rgba8888_mxt_9x60_wvga/debug/_ext/780564725/Spin1.o
 .comment       0x00000000       0x2c build/lcdc_rgba8888_mxt_9x60_wvga/debug/_ext/780564725/Spin1.o
 .ARM.attributes
                0x00000000       0x32 build/lcdc_rgba8888_mxt_9x60_wvga/debug/_ext/780564725/Spin1.o
 .text          0x00000000        0x0 build/lcdc_rgba8888_mxt_9x60_wvga/debug/_ext/780564725/image11.o
 .data          0x00000000        0x0 build/lcdc_rgba8888_mxt_9x60_wvga/debug/_ext/780564725/image11.o
 .bss           0x00000000        0x0 build/lcdc_rgba8888_mxt_9x60_wvga/debug/_ext/780564725/image11.o
 .text          0x00000000        0x0 build/lcdc_rgba8888_mxt_9x60_wvga/debug/_ext/780564725/start_but_down.o
 .data          0x00000000        0x0 build/lcdc_rgba8888_mxt_9x60_wvga/debug/_ext/780564725/start_but_down.o
 .bss           0x00000000        0x0 build/lcdc_rgba8888_mxt_9x60_wvga/debug/_ext/780564725/start_but_down.o
 .text          0x00000000        0x0 build/lcdc_rgba8888_mxt_9x60_wvga/debug/_ext/780564725/image4.o
 .data          0x00000000        0x0 build/lcdc_rgba8888_mxt_9x60_wvga/debug/_ext/780564725/image4.o
 .bss           0x00000000        0x0 build/lcdc_rgba8888_mxt_9x60_wvga/debug/_ext/780564725/image4.o
 .text          0x00000000        0x0 build/lcdc_rgba8888_mxt_9x60_wvga/debug/_ext/780564725/Rinse1.o
 .data          0x00000000        0x0 build/lcdc_rgba8888_mxt_9x60_wvga/debug/_ext/780564725/Rinse1.o
 .bss           0x00000000        0x0 build/lcdc_rgba8888_mxt_9x60_wvga/debug/_ext/780564725/Rinse1.o
 .data.Rinse1   0x00000000       0x3c build/lcdc_rgba8888_mxt_9x60_wvga/debug/_ext/780564725/Rinse1.o
 .rodata.Rinse1_data
                0x00000000    0x1a078 build/lcdc_rgba8888_mxt_9x60_wvga/debug/_ext/780564725/Rinse1.o
 .debug_info    0x00000000     0x1126 build/lcdc_rgba8888_mxt_9x60_wvga/debug/_ext/780564725/Rinse1.o
 .debug_abbrev  0x00000000      0x1e0 build/lcdc_rgba8888_mxt_9x60_wvga/debug/_ext/780564725/Rinse1.o
 .debug_aranges
                0x00000000       0x18 build/lcdc_rgba8888_mxt_9x60_wvga/debug/_ext/780564725/Rinse1.o
 .debug_line    0x00000000      0x276 build/lcdc_rgba8888_mxt_9x60_wvga/debug/_ext/780564725/Rinse1.o
 .debug_str     0x00000000       0xeb build/lcdc_rgba8888_mxt_9x60_wvga/debug/_ext/780564725/Rinse1.o
 .comment       0x00000000       0x2c build/lcdc_rgba8888_mxt_9x60_wvga/debug/_ext/780564725/Rinse1.o
 .ARM.attributes
                0x00000000       0x32 build/lcdc_rgba8888_mxt_9x60_wvga/debug/_ext/780564725/Rinse1.o
 .text          0x00000000        0x0 build/lcdc_rgba8888_mxt_9x60_wvga/debug/_ext/780564725/r4.o
 .data          0x00000000        0x0 build/lcdc_rgba8888_mxt_9x60_wvga/debug/_ext/780564725/r4.o
 .bss           0x00000000        0x0 build/lcdc_rgba8888_mxt_9x60_wvga/debug/_ext/780564725/r4.o
 .text          0x00000000        0x0 build/lcdc_rgba8888_mxt_9x60_wvga/debug/_ext/780564725/Spin2.o
 .data          0x00000000        0x0 build/lcdc_rgba8888_mxt_9x60_wvga/debug/_ext/780564725/Spin2.o
 .bss           0x00000000        0x0 build/lcdc_rgba8888_mxt_9x60_wvga/debug/_ext/780564725/Spin2.o
 .data.Spin2    0x00000000       0x3c build/lcdc_rgba8888_mxt_9x60_wvga/debug/_ext/780564725/Spin2.o
 .rodata.Spin2_data
                0x00000000    0x1ad50 build/lcdc_rgba8888_mxt_9x60_wvga/debug/_ext/780564725/Spin2.o
 .debug_info    0x00000000     0x1123 build/lcdc_rgba8888_mxt_9x60_wvga/debug/_ext/780564725/Spin2.o
 .debug_abbrev  0x00000000      0x1e0 build/lcdc_rgba8888_mxt_9x60_wvga/debug/_ext/780564725/Spin2.o
 .debug_aranges
                0x00000000       0x18 build/lcdc_rgba8888_mxt_9x60_wvga/debug/_ext/780564725/Spin2.o
 .debug_line    0x00000000      0x275 build/lcdc_rgba8888_mxt_9x60_wvga/debug/_ext/780564725/Spin2.o
 .debug_str     0x00000000       0xeb build/lcdc_rgba8888_mxt_9x60_wvga/debug/_ext/780564725/Spin2.o
 .comment       0x00000000       0x2c build/lcdc_rgba8888_mxt_9x60_wvga/debug/_ext/780564725/Spin2.o
 .ARM.attributes
                0x00000000       0x32 build/lcdc_rgba8888_mxt_9x60_wvga/debug/_ext/780564725/Spin2.o
 .text          0x00000000        0x0 build/lcdc_rgba8888_mxt_9x60_wvga/debug/_ext/780564725/image12.o
 .data          0x00000000        0x0 build/lcdc_rgba8888_mxt_9x60_wvga/debug/_ext/780564725/image12.o
 .bss           0x00000000        0x0 build/lcdc_rgba8888_mxt_9x60_wvga/debug/_ext/780564725/image12.o
 .text          0x00000000        0x0 build/lcdc_rgba8888_mxt_9x60_wvga/debug/_ext/780564725/bed_but_down.o
 .data          0x00000000        0x0 build/lcdc_rgba8888_mxt_9x60_wvga/debug/_ext/780564725/bed_but_down.o
 .bss           0x00000000        0x0 build/lcdc_rgba8888_mxt_9x60_wvga/debug/_ext/780564725/bed_but_down.o
 .text          0x00000000        0x0 build/lcdc_rgba8888_mxt_9x60_wvga/debug/_ext/780564725/warm_but_up.o
 .data          0x00000000        0x0 build/lcdc_rgba8888_mxt_9x60_wvga/debug/_ext/780564725/warm_but_up.o
 .bss           0x00000000        0x0 build/lcdc_rgba8888_mxt_9x60_wvga/debug/_ext/780564725/warm_but_up.o
 .text          0x00000000        0x0 build/lcdc_rgba8888_mxt_9x60_wvga/debug/_ext/780564725/Wash3.o
 .data          0x00000000        0x0 build/lcdc_rgba8888_mxt_9x60_wvga/debug/_ext/780564725/Wash3.o
 .bss           0x00000000        0x0 build/lcdc_rgba8888_mxt_9x60_wvga/debug/_ext/780564725/Wash3.o
 .data.Wash3    0x00000000       0x3c build/lcdc_rgba8888_mxt_9x60_wvga/debug/_ext/780564725/Wash3.o
 .rodata.Wash3_data
                0x00000000    0x1a194 build/lcdc_rgba8888_mxt_9x60_wvga/debug/_ext/780564725/Wash3.o
 .debug_info    0x00000000     0x1123 build/lcdc_rgba8888_mxt_9x60_wvga/debug/_ext/780564725/Wash3.o
 .debug_abbrev  0x00000000      0x1e0 build/lcdc_rgba8888_mxt_9x60_wvga/debug/_ext/780564725/Wash3.o
 .debug_aranges
                0x00000000       0x18 build/lcdc_rgba8888_mxt_9x60_wvga/debug/_ext/780564725/Wash3.o
 .debug_line    0x00000000      0x275 build/lcdc_rgba8888_mxt_9x60_wvga/debug/_ext/780564725/Wash3.o
 .debug_str     0x00000000       0xeb build/lcdc_rgba8888_mxt_9x60_wvga/debug/_ext/780564725/Wash3.o
 .comment       0x00000000       0x2c build/lcdc_rgba8888_mxt_9x60_wvga/debug/_ext/780564725/Wash3.o
 .ARM.attributes
                0x00000000       0x32 build/lcdc_rgba8888_mxt_9x60_wvga/debug/_ext/780564725/Wash3.o
 .text          0x00000000        0x0 build/lcdc_rgba8888_mxt_9x60_wvga/debug/_ext/780564725/PreWash2.o
 .data          0x00000000        0x0 build/lcdc_rgba8888_mxt_9x60_wvga/debug/_ext/780564725/PreWash2.o
 .bss           0x00000000        0x0 build/lcdc_rgba8888_mxt_9x60_wvga/debug/_ext/780564725/PreWash2.o
 .data.PreWash2
                0x00000000       0x3c build/lcdc_rgba8888_mxt_9x60_wvga/debug/_ext/780564725/PreWash2.o
 .rodata.PreWash2_data
                0x00000000    0x1a404 build/lcdc_rgba8888_mxt_9x60_wvga/debug/_ext/780564725/PreWash2.o
 .debug_info    0x00000000     0x112c build/lcdc_rgba8888_mxt_9x60_wvga/debug/_ext/780564725/PreWash2.o
 .debug_abbrev  0x00000000      0x1e0 build/lcdc_rgba8888_mxt_9x60_wvga/debug/_ext/780564725/PreWash2.o
 .debug_aranges
                0x00000000       0x18 build/lcdc_rgba8888_mxt_9x60_wvga/debug/_ext/780564725/PreWash2.o
 .debug_line    0x00000000      0x278 build/lcdc_rgba8888_mxt_9x60_wvga/debug/_ext/780564725/PreWash2.o
 .debug_str     0x00000000       0xeb build/lcdc_rgba8888_mxt_9x60_wvga/debug/_ext/780564725/PreWash2.o
 .comment       0x00000000       0x2c build/lcdc_rgba8888_mxt_9x60_wvga/debug/_ext/780564725/PreWash2.o
 .ARM.attributes
                0x00000000       0x32 build/lcdc_rgba8888_mxt_9x60_wvga/debug/_ext/780564725/PreWash2.o
 .text          0x00000000        0x0 build/lcdc_rgba8888_mxt_9x60_wvga/debug/_ext/780564725/r12.o
 .data          0x00000000        0x0 build/lcdc_rgba8888_mxt_9x60_wvga/debug/_ext/780564725/r12.o
 .bss           0x00000000        0x0 build/lcdc_rgba8888_mxt_9x60_wvga/debug/_ext/780564725/r12.o
 .text          0x00000000        0x0 build/lcdc_rgba8888_mxt_9x60_wvga/debug/_ext/780564725/PreWash3.o
 .data          0x00000000        0x0 build/lcdc_rgba8888_mxt_9x60_wvga/debug/_ext/780564725/PreWash3.o
 .bss           0x00000000        0x0 build/lcdc_rgba8888_mxt_9x60_wvga/debug/_ext/780564725/PreWash3.o
 .data.PreWash3
                0x00000000       0x3c build/lcdc_rgba8888_mxt_9x60_wvga/debug/_ext/780564725/PreWash3.o
 .rodata.PreWash3_data
                0x00000000    0x1a4ec build/lcdc_rgba8888_mxt_9x60_wvga/debug/_ext/780564725/PreWash3.o
 .debug_info    0x00000000     0x112c build/lcdc_rgba8888_mxt_9x60_wvga/debug/_ext/780564725/PreWash3.o
 .debug_abbrev  0x00000000      0x1e0 build/lcdc_rgba8888_mxt_9x60_wvga/debug/_ext/780564725/PreWash3.o
 .debug_aranges
                0x00000000       0x18 build/lcdc_rgba8888_mxt_9x60_wvga/debug/_ext/780564725/PreWash3.o
 .debug_line    0x00000000      0x278 build/lcdc_rgba8888_mxt_9x60_wvga/debug/_ext/780564725/PreWash3.o
 .debug_str     0x00000000       0xeb build/lcdc_rgba8888_mxt_9x60_wvga/debug/_ext/780564725/PreWash3.o
 .comment       0x00000000       0x2c build/lcdc_rgba8888_mxt_9x60_wvga/debug/_ext/780564725/PreWash3.o
 .ARM.attributes
                0x00000000       0x32 build/lcdc_rgba8888_mxt_9x60_wvga/debug/_ext/780564725/PreWash3.o
 .text          0x00000000        0x0 build/lcdc_rgba8888_mxt_9x60_wvga/debug/_ext/780564725/hot_but_up.o
 .data          0x00000000        0x0 build/lcdc_rgba8888_mxt_9x60_wvga/debug/_ext/780564725/hot_but_up.o
 .bss           0x00000000        0x0 build/lcdc_rgba8888_mxt_9x60_wvga/debug/_ext/780564725/hot_but_up.o
 .text          0x00000000        0x0 build/lcdc_rgba8888_mxt_9x60_wvga/debug/_ext/780564725/r11.o
 .data          0x00000000        0x0 build/lcdc_rgba8888_mxt_9x60_wvga/debug/_ext/780564725/r11.o
 .bss           0x00000000        0x0 build/lcdc_rgba8888_mxt_9x60_wvga/debug/_ext/780564725/r11.o
 .text          0x00000000        0x0 build/lcdc_rgba8888_mxt_9x60_wvga/debug/_ext/780564725/normal_but_up.o
 .data          0x00000000        0x0 build/lcdc_rgba8888_mxt_9x60_wvga/debug/_ext/780564725/normal_but_up.o
 .bss           0x00000000        0x0 build/lcdc_rgba8888_mxt_9x60_wvga/debug/_ext/780564725/normal_but_up.o
 .text          0x00000000        0x0 build/lcdc_rgba8888_mxt_9x60_wvga/debug/_ext/780564725/Wash1.o
 .data          0x00000000        0x0 build/lcdc_rgba8888_mxt_9x60_wvga/debug/_ext/780564725/Wash1.o
 .bss           0x00000000        0x0 build/lcdc_rgba8888_mxt_9x60_wvga/debug/_ext/780564725/Wash1.o
 .data.Wash1    0x00000000       0x3c build/lcdc_rgba8888_mxt_9x60_wvga/debug/_ext/780564725/Wash1.o
 .rodata.Wash1_data
                0x00000000    0x1a0b4 build/lcdc_rgba8888_mxt_9x60_wvga/debug/_ext/780564725/Wash1.o
 .debug_info    0x00000000     0x1123 build/lcdc_rgba8888_mxt_9x60_wvga/debug/_ext/780564725/Wash1.o
 .debug_abbrev  0x00000000      0x1e0 build/lcdc_rgba8888_mxt_9x60_wvga/debug/_ext/780564725/Wash1.o
 .debug_aranges
                0x00000000       0x18 build/lcdc_rgba8888_mxt_9x60_wvga/debug/_ext/780564725/Wash1.o
 .debug_line    0x00000000      0x275 build/lcdc_rgba8888_mxt_9x60_wvga/debug/_ext/780564725/Wash1.o
 .debug_str     0x00000000       0xeb build/lcdc_rgba8888_mxt_9x60_wvga/debug/_ext/780564725/Wash1.o
 .comment       0x00000000       0x2c build/lcdc_rgba8888_mxt_9x60_wvga/debug/_ext/780564725/Wash1.o
 .ARM.attributes
                0x00000000       0x32 build/lcdc_rgba8888_mxt_9x60_wvga/debug/_ext/780564725/Wash1.o
 .text          0x00000000        0x0 build/lcdc_rgba8888_mxt_9x60_wvga/debug/_ext/780564725/prewash_but_on.o
 .data          0x00000000        0x0 build/lcdc_rgba8888_mxt_9x60_wvga/debug/_ext/780564725/prewash_but_on.o
 .bss           0x00000000        0x0 build/lcdc_rgba8888_mxt_9x60_wvga/debug/_ext/780564725/prewash_but_on.o
 .data.prewash_but_on
                0x00000000       0x3c build/lcdc_rgba8888_mxt_9x60_wvga/debug/_ext/780564725/prewash_but_on.o
 .rodata.prewash_but_on_data
                0x00000000     0x18ec build/lcdc_rgba8888_mxt_9x60_wvga/debug/_ext/780564725/prewash_but_on.o
 .debug_info    0x00000000     0x113b build/lcdc_rgba8888_mxt_9x60_wvga/debug/_ext/780564725/prewash_but_on.o
 .debug_abbrev  0x00000000      0x1e0 build/lcdc_rgba8888_mxt_9x60_wvga/debug/_ext/780564725/prewash_but_on.o
 .debug_aranges
                0x00000000       0x18 build/lcdc_rgba8888_mxt_9x60_wvga/debug/_ext/780564725/prewash_but_on.o
 .debug_line    0x00000000      0x27e build/lcdc_rgba8888_mxt_9x60_wvga/debug/_ext/780564725/prewash_but_on.o
 .debug_str     0x00000000       0xeb build/lcdc_rgba8888_mxt_9x60_wvga/debug/_ext/780564725/prewash_but_on.o
 .comment       0x00000000       0x2c build/lcdc_rgba8888_mxt_9x60_wvga/debug/_ext/780564725/prewash_but_on.o
 .ARM.attributes
                0x00000000       0x32 build/lcdc_rgba8888_mxt_9x60_wvga/debug/_ext/780564725/prewash_but_on.o
 .text          0x00000000        0x0 build/lcdc_rgba8888_mxt_9x60_wvga/debug/_ext/780564725/options_but_down.o
 .data          0x00000000        0x0 build/lcdc_rgba8888_mxt_9x60_wvga/debug/_ext/780564725/options_but_down.o
 .bss           0x00000000        0x0 build/lcdc_rgba8888_mxt_9x60_wvga/debug/_ext/780564725/options_but_down.o
 .text          0x00000000        0x0 build/lcdc_rgba8888_mxt_9x60_wvga/debug/_ext/780564725/r9.o
 .data          0x00000000        0x0 build/lcdc_rgba8888_mxt_9x60_wvga/debug/_ext/780564725/r9.o
 .bss           0x00000000        0x0 build/lcdc_rgba8888_mxt_9x60_wvga/debug/_ext/780564725/r9.o
 .text          0x00000000        0x0 build/lcdc_rgba8888_mxt_9x60_wvga/debug/_ext/780564725/template.o
 .data          0x00000000        0x0 build/lcdc_rgba8888_mxt_9x60_wvga/debug/_ext/780564725/template.o
 .bss           0x00000000        0x0 build/lcdc_rgba8888_mxt_9x60_wvga/debug/_ext/780564725/template.o
 .text          0x00000000        0x0 build/lcdc_rgba8888_mxt_9x60_wvga/debug/_ext/780564725/r10.o
 .data          0x00000000        0x0 build/lcdc_rgba8888_mxt_9x60_wvga/debug/_ext/780564725/r10.o
 .bss           0x00000000        0x0 build/lcdc_rgba8888_mxt_9x60_wvga/debug/_ext/780564725/r10.o
 .text          0x00000000        0x0 build/lcdc_rgba8888_mxt_9x60_wvga/debug/_ext/780564725/prewash_but_off.o
 .data          0x00000000        0x0 build/lcdc_rgba8888_mxt_9x60_wvga/debug/_ext/780564725/prewash_but_off.o
 .bss           0x00000000        0x0 build/lcdc_rgba8888_mxt_9x60_wvga/debug/_ext/780564725/prewash_but_off.o
 .text          0x00000000        0x0 build/lcdc_rgba8888_mxt_9x60_wvga/debug/_ext/780564725/xrinse_but_off.o
 .data          0x00000000        0x0 build/lcdc_rgba8888_mxt_9x60_wvga/debug/_ext/780564725/xrinse_but_off.o
 .bss           0x00000000        0x0 build/lcdc_rgba8888_mxt_9x60_wvga/debug/_ext/780564725/xrinse_but_off.o
 .text          0x00000000        0x0 build/lcdc_rgba8888_mxt_9x60_wvga/debug/_ext/780564725/options_but_up.o
 .data          0x00000000        0x0 build/lcdc_rgba8888_mxt_9x60_wvga/debug/_ext/780564725/options_but_up.o
 .bss           0x00000000        0x0 build/lcdc_rgba8888_mxt_9x60_wvga/debug/_ext/780564725/options_but_up.o
 .text          0x00000000        0x0 build/lcdc_rgba8888_mxt_9x60_wvga/debug/_ext/780564725/sound_but_on.o
 .data          0x00000000        0x0 build/lcdc_rgba8888_mxt_9x60_wvga/debug/_ext/780564725/sound_but_on.o
 .bss           0x00000000        0x0 build/lcdc_rgba8888_mxt_9x60_wvga/debug/_ext/780564725/sound_but_on.o
 .text          0x00000000        0x0 build/lcdc_rgba8888_mxt_9x60_wvga/debug/_ext/780564725/Wash2.o
 .data          0x00000000        0x0 build/lcdc_rgba8888_mxt_9x60_wvga/debug/_ext/780564725/Wash2.o
 .bss           0x00000000        0x0 build/lcdc_rgba8888_mxt_9x60_wvga/debug/_ext/780564725/Wash2.o
 .data.Wash2    0x00000000       0x3c build/lcdc_rgba8888_mxt_9x60_wvga/debug/_ext/780564725/Wash2.o
 .rodata.Wash2_data
                0x00000000    0x1a114 build/lcdc_rgba8888_mxt_9x60_wvga/debug/_ext/780564725/Wash2.o
 .debug_info    0x00000000     0x1123 build/lcdc_rgba8888_mxt_9x60_wvga/debug/_ext/780564725/Wash2.o
 .debug_abbrev  0x00000000      0x1e0 build/lcdc_rgba8888_mxt_9x60_wvga/debug/_ext/780564725/Wash2.o
 .debug_aranges
                0x00000000       0x18 build/lcdc_rgba8888_mxt_9x60_wvga/debug/_ext/780564725/Wash2.o
 .debug_line    0x00000000      0x275 build/lcdc_rgba8888_mxt_9x60_wvga/debug/_ext/780564725/Wash2.o
 .debug_str     0x00000000       0xeb build/lcdc_rgba8888_mxt_9x60_wvga/debug/_ext/780564725/Wash2.o
 .comment       0x00000000       0x2c build/lcdc_rgba8888_mxt_9x60_wvga/debug/_ext/780564725/Wash2.o
 .ARM.attributes
                0x00000000       0x32 build/lcdc_rgba8888_mxt_9x60_wvga/debug/_ext/780564725/Wash2.o
 .text          0x00000000        0x0 build/lcdc_rgba8888_mxt_9x60_wvga/debug/_ext/780564725/r8.o
 .data          0x00000000        0x0 build/lcdc_rgba8888_mxt_9x60_wvga/debug/_ext/780564725/r8.o
 .bss           0x00000000        0x0 build/lcdc_rgba8888_mxt_9x60_wvga/debug/_ext/780564725/r8.o
 .text          0x00000000        0x0 build/lcdc_rgba8888_mxt_9x60_wvga/debug/_ext/780564725/high_but_up.o
 .data          0x00000000        0x0 build/lcdc_rgba8888_mxt_9x60_wvga/debug/_ext/780564725/high_but_up.o
 .bss           0x00000000        0x0 build/lcdc_rgba8888_mxt_9x60_wvga/debug/_ext/780564725/high_but_up.o
 .text          0x00000000        0x0 build/lcdc_rgba8888_mxt_9x60_wvga/debug/_ext/780564725/cold_but_up.o
 .data          0x00000000        0x0 build/lcdc_rgba8888_mxt_9x60_wvga/debug/_ext/780564725/cold_but_up.o
 .bss           0x00000000        0x0 build/lcdc_rgba8888_mxt_9x60_wvga/debug/_ext/780564725/cold_but_up.o
 .text          0x00000000        0x0 build/lcdc_rgba8888_mxt_9x60_wvga/debug/_ext/780564725/image9.o
 .data          0x00000000        0x0 build/lcdc_rgba8888_mxt_9x60_wvga/debug/_ext/780564725/image9.o
 .bss           0x00000000        0x0 build/lcdc_rgba8888_mxt_9x60_wvga/debug/_ext/780564725/image9.o
 .text          0x00000000        0x0 build/lcdc_rgba8888_mxt_9x60_wvga/debug/_ext/780564725/medium_but_up.o
 .data          0x00000000        0x0 build/lcdc_rgba8888_mxt_9x60_wvga/debug/_ext/780564725/medium_but_up.o
 .bss           0x00000000        0x0 build/lcdc_rgba8888_mxt_9x60_wvga/debug/_ext/780564725/medium_but_up.o
 .text          0x00000000        0x0 build/lcdc_rgba8888_mxt_9x60_wvga/debug/_ext/780564725/sports_but_up.o
 .data          0x00000000        0x0 build/lcdc_rgba8888_mxt_9x60_wvga/debug/_ext/780564725/sports_but_up.o
 .bss           0x00000000        0x0 build/lcdc_rgba8888_mxt_9x60_wvga/debug/_ext/780564725/sports_but_up.o
 .text          0x00000000        0x0 build/lcdc_rgba8888_mxt_9x60_wvga/debug/_ext/780564725/medium_but_down.o
 .data          0x00000000        0x0 build/lcdc_rgba8888_mxt_9x60_wvga/debug/_ext/780564725/medium_but_down.o
 .bss           0x00000000        0x0 build/lcdc_rgba8888_mxt_9x60_wvga/debug/_ext/780564725/medium_but_down.o
 .text          0x00000000        0x0 build/lcdc_rgba8888_mxt_9x60_wvga/debug/_ext/780564725/wool_but_up.o
 .data          0x00000000        0x0 build/lcdc_rgba8888_mxt_9x60_wvga/debug/_ext/780564725/wool_but_up.o
 .bss           0x00000000        0x0 build/lcdc_rgba8888_mxt_9x60_wvga/debug/_ext/780564725/wool_but_up.o
 .text          0x00000000        0x0 build/lcdc_rgba8888_mxt_9x60_wvga/debug/_ext/780564725/bed_but_up.o
 .data          0x00000000        0x0 build/lcdc_rgba8888_mxt_9x60_wvga/debug/_ext/780564725/bed_but_up.o
 .bss           0x00000000        0x0 build/lcdc_rgba8888_mxt_9x60_wvga/debug/_ext/780564725/bed_but_up.o
 .text          0x00000000        0x0 build/lcdc_rgba8888_mxt_9x60_wvga/debug/_ext/780564725/PreWash0.o
 .data          0x00000000        0x0 build/lcdc_rgba8888_mxt_9x60_wvga/debug/_ext/780564725/PreWash0.o
 .bss           0x00000000        0x0 build/lcdc_rgba8888_mxt_9x60_wvga/debug/_ext/780564725/PreWash0.o
 .data.PreWash0
                0x00000000       0x3c build/lcdc_rgba8888_mxt_9x60_wvga/debug/_ext/780564725/PreWash0.o
 .rodata.PreWash0_data
                0x00000000    0x1a248 build/lcdc_rgba8888_mxt_9x60_wvga/debug/_ext/780564725/PreWash0.o
 .debug_info    0x00000000     0x112c build/lcdc_rgba8888_mxt_9x60_wvga/debug/_ext/780564725/PreWash0.o
 .debug_abbrev  0x00000000      0x1e0 build/lcdc_rgba8888_mxt_9x60_wvga/debug/_ext/780564725/PreWash0.o
 .debug_aranges
                0x00000000       0x18 build/lcdc_rgba8888_mxt_9x60_wvga/debug/_ext/780564725/PreWash0.o
 .debug_line    0x00000000      0x278 build/lcdc_rgba8888_mxt_9x60_wvga/debug/_ext/780564725/PreWash0.o
 .debug_str     0x00000000       0xeb build/lcdc_rgba8888_mxt_9x60_wvga/debug/_ext/780564725/PreWash0.o
 .comment       0x00000000       0x2c build/lcdc_rgba8888_mxt_9x60_wvga/debug/_ext/780564725/PreWash0.o
 .ARM.attributes
                0x00000000       0x32 build/lcdc_rgba8888_mxt_9x60_wvga/debug/_ext/780564725/PreWash0.o
 .text          0x00000000        0x0 build/lcdc_rgba8888_mxt_9x60_wvga/debug/_ext/780564725/low_but_down.o
 .data          0x00000000        0x0 build/lcdc_rgba8888_mxt_9x60_wvga/debug/_ext/780564725/low_but_down.o
 .bss           0x00000000        0x0 build/lcdc_rgba8888_mxt_9x60_wvga/debug/_ext/780564725/low_but_down.o
 .text          0x00000000        0x0 build/lcdc_rgba8888_mxt_9x60_wvga/debug/_ext/780564725/normal_but_down.o
 .data          0x00000000        0x0 build/lcdc_rgba8888_mxt_9x60_wvga/debug/_ext/780564725/normal_but_down.o
 .bss           0x00000000        0x0 build/lcdc_rgba8888_mxt_9x60_wvga/debug/_ext/780564725/normal_but_down.o
 .text          0x00000000        0x0 build/lcdc_rgba8888_mxt_9x60_wvga/debug/_ext/780564725/cold_but_down.o
 .data          0x00000000        0x0 build/lcdc_rgba8888_mxt_9x60_wvga/debug/_ext/780564725/cold_but_down.o
 .bss           0x00000000        0x0 build/lcdc_rgba8888_mxt_9x60_wvga/debug/_ext/780564725/cold_but_down.o
 .text          0x00000000        0x0 build/lcdc_rgba8888_mxt_9x60_wvga/debug/_ext/780564725/PreWash1.o
 .data          0x00000000        0x0 build/lcdc_rgba8888_mxt_9x60_wvga/debug/_ext/780564725/PreWash1.o
 .bss           0x00000000        0x0 build/lcdc_rgba8888_mxt_9x60_wvga/debug/_ext/780564725/PreWash1.o
 .data.PreWash1
                0x00000000       0x3c build/lcdc_rgba8888_mxt_9x60_wvga/debug/_ext/780564725/PreWash1.o
 .rodata.PreWash1_data
                0x00000000    0x9c400 build/lcdc_rgba8888_mxt_9x60_wvga/debug/_ext/780564725/PreWash1.o
 .debug_info    0x00000000     0x112c build/lcdc_rgba8888_mxt_9x60_wvga/debug/_ext/780564725/PreWash1.o
 .debug_abbrev  0x00000000      0x1e0 build/lcdc_rgba8888_mxt_9x60_wvga/debug/_ext/780564725/PreWash1.o
 .debug_aranges
                0x00000000       0x18 build/lcdc_rgba8888_mxt_9x60_wvga/debug/_ext/780564725/PreWash1.o
 .debug_line    0x00000000      0x278 build/lcdc_rgba8888_mxt_9x60_wvga/debug/_ext/780564725/PreWash1.o
 .debug_str     0x00000000       0xeb build/lcdc_rgba8888_mxt_9x60_wvga/debug/_ext/780564725/PreWash1.o
 .comment       0x00000000       0x2c build/lcdc_rgba8888_mxt_9x60_wvga/debug/_ext/780564725/PreWash1.o
 .ARM.attributes
                0x00000000       0x32 build/lcdc_rgba8888_mxt_9x60_wvga/debug/_ext/780564725/PreWash1.o
 .text          0x00000000        0x0 build/lcdc_rgba8888_mxt_9x60_wvga/debug/_ext/1849858236/le_gen_screen_Screen0.o
 .data          0x00000000        0x0 build/lcdc_rgba8888_mxt_9x60_wvga/debug/_ext/1849858236/le_gen_screen_Screen0.o
 .bss           0x00000000        0x0 build/lcdc_rgba8888_mxt_9x60_wvga/debug/_ext/1849858236/le_gen_screen_Screen0.o
 .text.screenDestroy_Screen0
                0x00000000       0x20 build/lcdc_rgba8888_mxt_9x60_wvga/debug/_ext/1849858236/le_gen_screen_Screen0.o
 .text.screenGetRoot_Screen0
                0x00000000       0x74 build/lcdc_rgba8888_mxt_9x60_wvga/debug/_ext/1849858236/le_gen_screen_Screen0.o
 .text          0x00000000        0x0 build/lcdc_rgba8888_mxt_9x60_wvga/debug/_ext/1247075393/le_gen_init.o
 .data          0x00000000        0x0 build/lcdc_rgba8888_mxt_9x60_wvga/debug/_ext/1247075393/le_gen_init.o
 .bss           0x00000000        0x0 build/lcdc_rgba8888_mxt_9x60_wvga/debug/_ext/1247075393/le_gen_init.o
 .text.legato_getCurrentScreen
                0x00000000       0x10 build/lcdc_rgba8888_mxt_9x60_wvga/debug/_ext/1247075393/le_gen_init.o
 .text.legato_isChangingScreens
                0x00000000       0x18 build/lcdc_rgba8888_mxt_9x60_wvga/debug/_ext/1247075393/le_gen_init.o
 .text          0x00000000        0x0 build/lcdc_rgba8888_mxt_9x60_wvga/debug/_ext/1247075393/le_gen_stringtable.o
 .data          0x00000000        0x0 build/lcdc_rgba8888_mxt_9x60_wvga/debug/_ext/1247075393/le_gen_stringtable.o
 .bss           0x00000000        0x0 build/lcdc_rgba8888_mxt_9x60_wvga/debug/_ext/1247075393/le_gen_stringtable.o
 .text          0x00000000        0x0 build/lcdc_rgba8888_mxt_9x60_wvga/debug/_ext/1247075393/le_gen_scheme.o
 .data          0x00000000        0x0 build/lcdc_rgba8888_mxt_9x60_wvga/debug/_ext/1247075393/le_gen_scheme.o
 .bss           0x00000000        0x0 build/lcdc_rgba8888_mxt_9x60_wvga/debug/_ext/1247075393/le_gen_scheme.o
 .rodata.GreyScheme
                0x00000000      0x2c8 build/lcdc_rgba8888_mxt_9x60_wvga/debug/_ext/1247075393/le_gen_scheme.o
 .text          0x00000000        0x0 build/lcdc_rgba8888_mxt_9x60_wvga/debug/_ext/1247075393/le_gen_globalpalette.o
 .data          0x00000000        0x0 build/lcdc_rgba8888_mxt_9x60_wvga/debug/_ext/1247075393/le_gen_globalpalette.o
 .bss           0x00000000        0x0 build/lcdc_rgba8888_mxt_9x60_wvga/debug/_ext/1247075393/le_gen_globalpalette.o
 .text          0x00000000        0x0 build/lcdc_rgba8888_mxt_9x60_wvga/debug/_ext/1247075393/le_gen_harmony.o
 .data          0x00000000        0x0 build/lcdc_rgba8888_mxt_9x60_wvga/debug/_ext/1247075393/le_gen_harmony.o
 .bss           0x00000000        0x0 build/lcdc_rgba8888_mxt_9x60_wvga/debug/_ext/1247075393/le_gen_harmony.o
 .text          0x00000000        0x0 build/lcdc_rgba8888_mxt_9x60_wvga/debug/_ext/1797725076/legato_imagedecoder_jpeg.o
 .data          0x00000000        0x0 build/lcdc_rgba8888_mxt_9x60_wvga/debug/_ext/1797725076/legato_imagedecoder_jpeg.o
 .bss           0x00000000        0x0 build/lcdc_rgba8888_mxt_9x60_wvga/debug/_ext/1797725076/legato_imagedecoder_jpeg.o
 .text          0x00000000        0x0 build/lcdc_rgba8888_mxt_9x60_wvga/debug/_ext/1797725076/legato_imagedecoder_jpeg_common.o
 .data          0x00000000        0x0 build/lcdc_rgba8888_mxt_9x60_wvga/debug/_ext/1797725076/legato_imagedecoder_jpeg_common.o
 .bss           0x00000000        0x0 build/lcdc_rgba8888_mxt_9x60_wvga/debug/_ext/1797725076/legato_imagedecoder_jpeg_common.o
 .text.JPEG_bInterpretResourceHeader
                0x00000000       0x3c build/lcdc_rgba8888_mxt_9x60_wvga/debug/_ext/1797725076/legato_imagedecoder_jpeg_common.o
 .bss.JPEG_JpegDecoder
                0x00000000      0xa10 build/lcdc_rgba8888_mxt_9x60_wvga/debug/_ext/1797725076/legato_imagedecoder_jpeg_common.o
 .text          0x00000000        0x0 build/lcdc_rgba8888_mxt_9x60_wvga/debug/_ext/1797725076/jidctint.o
 .data          0x00000000        0x0 build/lcdc_rgba8888_mxt_9x60_wvga/debug/_ext/1797725076/jidctint.o
 .bss           0x00000000        0x0 build/lcdc_rgba8888_mxt_9x60_wvga/debug/_ext/1797725076/jidctint.o
 .text          0x00000000        0x0 build/lcdc_rgba8888_mxt_9x60_wvga/debug/_ext/1797636377/legato_imagedecoder_mono.o
 .data          0x00000000        0x0 build/lcdc_rgba8888_mxt_9x60_wvga/debug/_ext/1797636377/legato_imagedecoder_mono.o
 .bss           0x00000000        0x0 build/lcdc_rgba8888_mxt_9x60_wvga/debug/_ext/1797636377/legato_imagedecoder_mono.o
 .text          0x00000000        0x0 build/lcdc_rgba8888_mxt_9x60_wvga/debug/_ext/1797636377/legato_imagedecoder_mono_read_internal.o
 .data          0x00000000        0x0 build/lcdc_rgba8888_mxt_9x60_wvga/debug/_ext/1797636377/legato_imagedecoder_mono_read_internal.o
 .bss           0x00000000        0x0 build/lcdc_rgba8888_mxt_9x60_wvga/debug/_ext/1797636377/legato_imagedecoder_mono_read_internal.o
 .text          0x00000000        0x0 build/lcdc_rgba8888_mxt_9x60_wvga/debug/_ext/1797636377/legato_imagedecoder_mono_read_stream.o
 .data          0x00000000        0x0 build/lcdc_rgba8888_mxt_9x60_wvga/debug/_ext/1797636377/legato_imagedecoder_mono_read_stream.o
 .bss           0x00000000        0x0 build/lcdc_rgba8888_mxt_9x60_wvga/debug/_ext/1797636377/legato_imagedecoder_mono_read_stream.o
 .debug_info    0x00000000      0x486 build/lcdc_rgba8888_mxt_9x60_wvga/debug/_ext/1797636377/legato_imagedecoder_mono_read_stream.o
 .debug_abbrev  0x00000000       0xb5 build/lcdc_rgba8888_mxt_9x60_wvga/debug/_ext/1797636377/legato_imagedecoder_mono_read_stream.o
 .debug_aranges
                0x00000000       0x18 build/lcdc_rgba8888_mxt_9x60_wvga/debug/_ext/1797636377/legato_imagedecoder_mono_read_stream.o
 .debug_line    0x00000000       0xb9 build/lcdc_rgba8888_mxt_9x60_wvga/debug/_ext/1797636377/legato_imagedecoder_mono_read_stream.o
 .debug_str     0x00000000        0x9 build/lcdc_rgba8888_mxt_9x60_wvga/debug/_ext/1797636377/legato_imagedecoder_mono_read_stream.o
 .comment       0x00000000       0x2c build/lcdc_rgba8888_mxt_9x60_wvga/debug/_ext/1797636377/legato_imagedecoder_mono_read_stream.o
 .ARM.attributes
                0x00000000       0x32 build/lcdc_rgba8888_mxt_9x60_wvga/debug/_ext/1797636377/legato_imagedecoder_mono_read_stream.o
 .text          0x00000000        0x0 build/lcdc_rgba8888_mxt_9x60_wvga/debug/_ext/1881677221/legato_imagedecoder_png.o
 .data          0x00000000        0x0 build/lcdc_rgba8888_mxt_9x60_wvga/debug/_ext/1881677221/legato_imagedecoder_png.o
 .bss           0x00000000        0x0 build/lcdc_rgba8888_mxt_9x60_wvga/debug/_ext/1881677221/legato_imagedecoder_png.o
 .text          0x00000000        0x0 build/lcdc_rgba8888_mxt_9x60_wvga/debug/_ext/1881677221/lodepng.o
 .data          0x00000000        0x0 build/lcdc_rgba8888_mxt_9x60_wvga/debug/_ext/1881677221/lodepng.o
 .bss           0x00000000        0x0 build/lcdc_rgba8888_mxt_9x60_wvga/debug/_ext/1881677221/lodepng.o
 .text.lodepng_decompress_settings_init
                0x00000000       0x18 build/lcdc_rgba8888_mxt_9x60_wvga/debug/_ext/1881677221/lodepng.o
 .text.lodepng_chunk_length
                0x00000000        0xc build/lcdc_rgba8888_mxt_9x60_wvga/debug/_ext/1881677221/lodepng.o
 .text.lodepng_chunk_type
                0x00000000       0x28 build/lcdc_rgba8888_mxt_9x60_wvga/debug/_ext/1881677221/lodepng.o
 .text.lodepng_chunk_ancillary
                0x00000000       0x10 build/lcdc_rgba8888_mxt_9x60_wvga/debug/_ext/1881677221/lodepng.o
 .text.lodepng_chunk_private
                0x00000000       0x10 build/lcdc_rgba8888_mxt_9x60_wvga/debug/_ext/1881677221/lodepng.o
 .text.lodepng_chunk_safetocopy
                0x00000000       0x10 build/lcdc_rgba8888_mxt_9x60_wvga/debug/_ext/1881677221/lodepng.o
 .text.lodepng_chunk_data
                0x00000000        0x8 build/lcdc_rgba8888_mxt_9x60_wvga/debug/_ext/1881677221/lodepng.o
 .text.lodepng_chunk_data_const
                0x00000000        0x8 build/lcdc_rgba8888_mxt_9x60_wvga/debug/_ext/1881677221/lodepng.o
 .text.lodepng_chunk_generate_crc
                0x00000000       0x44 build/lcdc_rgba8888_mxt_9x60_wvga/debug/_ext/1881677221/lodepng.o
 .text.lodepng_chunk_next
                0x00000000       0x18 build/lcdc_rgba8888_mxt_9x60_wvga/debug/_ext/1881677221/lodepng.o
 .text.lodepng_chunk_create
                0x00000000       0xe8 build/lcdc_rgba8888_mxt_9x60_wvga/debug/_ext/1881677221/lodepng.o
 .text.lodepng_color_mode_cleanup
                0x00000000        0xc build/lcdc_rgba8888_mxt_9x60_wvga/debug/_ext/1881677221/lodepng.o
 .text.lodepng_palette_add
                0x00000000       0x94 build/lcdc_rgba8888_mxt_9x60_wvga/debug/_ext/1881677221/lodepng.o
 .text.lodepng_get_channels
                0x00000000       0x10 build/lcdc_rgba8888_mxt_9x60_wvga/debug/_ext/1881677221/lodepng.o
 .text.lodepng_is_greyscale_type
                0x00000000       0x14 build/lcdc_rgba8888_mxt_9x60_wvga/debug/_ext/1881677221/lodepng.o
 .text.lodepng_is_alpha_type
                0x00000000       0x10 build/lcdc_rgba8888_mxt_9x60_wvga/debug/_ext/1881677221/lodepng.o
 .text.lodepng_is_palette_type
                0x00000000       0x14 build/lcdc_rgba8888_mxt_9x60_wvga/debug/_ext/1881677221/lodepng.o
 .text.lodepng_has_palette_alpha
                0x00000000       0x58 build/lcdc_rgba8888_mxt_9x60_wvga/debug/_ext/1881677221/lodepng.o
 .text.lodepng_can_have_alpha
                0x00000000       0x3c build/lcdc_rgba8888_mxt_9x60_wvga/debug/_ext/1881677221/lodepng.o
 .text.lodepng_get_raw_size_lct
                0x00000000       0x3c build/lcdc_rgba8888_mxt_9x60_wvga/debug/_ext/1881677221/lodepng.o
 .text.lodepng_clear_text
                0x00000000        0xc build/lcdc_rgba8888_mxt_9x60_wvga/debug/_ext/1881677221/lodepng.o
 .text.lodepng_clear_itext
                0x00000000        0xc build/lcdc_rgba8888_mxt_9x60_wvga/debug/_ext/1881677221/lodepng.o
 .text.lodepng_info_copy
                0x00000000      0x1c8 build/lcdc_rgba8888_mxt_9x60_wvga/debug/_ext/1881677221/lodepng.o
 .text.lodepng_info_swap
                0x00000000       0x4c build/lcdc_rgba8888_mxt_9x60_wvga/debug/_ext/1881677221/lodepng.o
 .text.lodepng_decode32
                0x00000000       0x2c build/lcdc_rgba8888_mxt_9x60_wvga/debug/_ext/1881677221/lodepng.o
 .text.lodepng_decode24
                0x00000000       0x2c build/lcdc_rgba8888_mxt_9x60_wvga/debug/_ext/1881677221/lodepng.o
 .text.lodepng_state_copy
                0x00000000       0x64 build/lcdc_rgba8888_mxt_9x60_wvga/debug/_ext/1881677221/lodepng.o
 .bss.lodepng_default_decompress_settings
                0x00000000       0x10 build/lcdc_rgba8888_mxt_9x60_wvga/debug/_ext/1881677221/lodepng.o
 .data.LODEPNG_VERSION_STRING
                0x00000000        0x4 build/lcdc_rgba8888_mxt_9x60_wvga/debug/_ext/1881677221/lodepng.o
 .text          0x00000000        0x0 build/lcdc_rgba8888_mxt_9x60_wvga/debug/_ext/1881678756/legato_imagedecoder_raw_palette_stream.o
 .data          0x00000000        0x0 build/lcdc_rgba8888_mxt_9x60_wvga/debug/_ext/1881678756/legato_imagedecoder_raw_palette_stream.o
 .bss           0x00000000        0x0 build/lcdc_rgba8888_mxt_9x60_wvga/debug/_ext/1881678756/legato_imagedecoder_raw_palette_stream.o
 .debug_info    0x00000000      0xd17 build/lcdc_rgba8888_mxt_9x60_wvga/debug/_ext/1881678756/legato_imagedecoder_raw_palette_stream.o
 .debug_abbrev  0x00000000      0x17b build/lcdc_rgba8888_mxt_9x60_wvga/debug/_ext/1881678756/legato_imagedecoder_raw_palette_stream.o
 .debug_aranges
                0x00000000       0x18 build/lcdc_rgba8888_mxt_9x60_wvga/debug/_ext/1881678756/legato_imagedecoder_raw_palette_stream.o
 .debug_line    0x00000000      0x10f build/lcdc_rgba8888_mxt_9x60_wvga/debug/_ext/1881678756/legato_imagedecoder_raw_palette_stream.o
 .debug_str     0x00000000       0x8b build/lcdc_rgba8888_mxt_9x60_wvga/debug/_ext/1881678756/legato_imagedecoder_raw_palette_stream.o
 .comment       0x00000000       0x2c build/lcdc_rgba8888_mxt_9x60_wvga/debug/_ext/1881678756/legato_imagedecoder_raw_palette_stream.o
 .ARM.attributes
                0x00000000       0x32 build/lcdc_rgba8888_mxt_9x60_wvga/debug/_ext/1881678756/legato_imagedecoder_raw_palette_stream.o
 .text          0x00000000        0x0 build/lcdc_rgba8888_mxt_9x60_wvga/debug/_ext/1881678756/legato_imagedecoder_raw_setup.o
 .data          0x00000000        0x0 build/lcdc_rgba8888_mxt_9x60_wvga/debug/_ext/1881678756/legato_imagedecoder_raw_setup.o
 .bss           0x00000000        0x0 build/lcdc_rgba8888_mxt_9x60_wvga/debug/_ext/1881678756/legato_imagedecoder_raw_setup.o
 .text          0x00000000        0x0 build/lcdc_rgba8888_mxt_9x60_wvga/debug/_ext/1881678756/legato_imagedecoder_raw_scale.o
 .data          0x00000000        0x0 build/lcdc_rgba8888_mxt_9x60_wvga/debug/_ext/1881678756/legato_imagedecoder_raw_scale.o
 .bss           0x00000000        0x0 build/lcdc_rgba8888_mxt_9x60_wvga/debug/_ext/1881678756/legato_imagedecoder_raw_scale.o
 .text          0x00000000        0x0 build/lcdc_rgba8888_mxt_9x60_wvga/debug/_ext/1881678756/legato_imagedecoder_raw_mask.o
 .data          0x00000000        0x0 build/lcdc_rgba8888_mxt_9x60_wvga/debug/_ext/1881678756/legato_imagedecoder_raw_mask.o
 .bss           0x00000000        0x0 build/lcdc_rgba8888_mxt_9x60_wvga/debug/_ext/1881678756/legato_imagedecoder_raw_mask.o
 .text          0x00000000        0x0 build/lcdc_rgba8888_mxt_9x60_wvga/debug/_ext/1881678756/legato_imagedecoder_raw_convert.o
 .data          0x00000000        0x0 build/lcdc_rgba8888_mxt_9x60_wvga/debug/_ext/1881678756/legato_imagedecoder_raw_convert.o
 .bss           0x00000000        0x0 build/lcdc_rgba8888_mxt_9x60_wvga/debug/_ext/1881678756/legato_imagedecoder_raw_convert.o
 .text          0x00000000        0x0 build/lcdc_rgba8888_mxt_9x60_wvga/debug/_ext/1881678756/legato_imagedecoder_raw_read_internal.o
 .data          0x00000000        0x0 build/lcdc_rgba8888_mxt_9x60_wvga/debug/_ext/1881678756/legato_imagedecoder_raw_read_internal.o
 .bss           0x00000000        0x0 build/lcdc_rgba8888_mxt_9x60_wvga/debug/_ext/1881678756/legato_imagedecoder_raw_read_internal.o
 .text          0x00000000        0x0 build/lcdc_rgba8888_mxt_9x60_wvga/debug/_ext/1881678756/legato_imagedecoder_raw_write.o
 .data          0x00000000        0x0 build/lcdc_rgba8888_mxt_9x60_wvga/debug/_ext/1881678756/legato_imagedecoder_raw_write.o
 .bss           0x00000000        0x0 build/lcdc_rgba8888_mxt_9x60_wvga/debug/_ext/1881678756/legato_imagedecoder_raw_write.o
 .text          0x00000000        0x0 build/lcdc_rgba8888_mxt_9x60_wvga/debug/_ext/1881678756/legato_imagedecoder_raw_blend.o
 .data          0x00000000        0x0 build/lcdc_rgba8888_mxt_9x60_wvga/debug/_ext/1881678756/legato_imagedecoder_raw_blend.o
 .bss           0x00000000        0x0 build/lcdc_rgba8888_mxt_9x60_wvga/debug/_ext/1881678756/legato_imagedecoder_raw_blend.o
 .text          0x00000000        0x0 build/lcdc_rgba8888_mxt_9x60_wvga/debug/_ext/1881678756/legato_imagedecoder_raw_read_stream_rleindex.o
 .data          0x00000000        0x0 build/lcdc_rgba8888_mxt_9x60_wvga/debug/_ext/1881678756/legato_imagedecoder_raw_read_stream_rleindex.o
 .bss           0x00000000        0x0 build/lcdc_rgba8888_mxt_9x60_wvga/debug/_ext/1881678756/legato_imagedecoder_raw_read_stream_rleindex.o
 .debug_info    0x00000000      0x48d build/lcdc_rgba8888_mxt_9x60_wvga/debug/_ext/1881678756/legato_imagedecoder_raw_read_stream_rleindex.o
 .debug_abbrev  0x00000000       0xb5 build/lcdc_rgba8888_mxt_9x60_wvga/debug/_ext/1881678756/legato_imagedecoder_raw_read_stream_rleindex.o
 .debug_aranges
                0x00000000       0x18 build/lcdc_rgba8888_mxt_9x60_wvga/debug/_ext/1881678756/legato_imagedecoder_raw_read_stream_rleindex.o
 .debug_line    0x00000000       0xb9 build/lcdc_rgba8888_mxt_9x60_wvga/debug/_ext/1881678756/legato_imagedecoder_raw_read_stream_rleindex.o
 .debug_str     0x00000000        0x9 build/lcdc_rgba8888_mxt_9x60_wvga/debug/_ext/1881678756/legato_imagedecoder_raw_read_stream_rleindex.o
 .comment       0x00000000       0x2c build/lcdc_rgba8888_mxt_9x60_wvga/debug/_ext/1881678756/legato_imagedecoder_raw_read_stream_rleindex.o
 .ARM.attributes
                0x00000000       0x32 build/lcdc_rgba8888_mxt_9x60_wvga/debug/_ext/1881678756/legato_imagedecoder_raw_read_stream_rleindex.o
 .text          0x00000000        0x0 build/lcdc_rgba8888_mxt_9x60_wvga/debug/_ext/1881678756/legato_imagedecoder_raw_read_stream_rlecolor.o
 .data          0x00000000        0x0 build/lcdc_rgba8888_mxt_9x60_wvga/debug/_ext/1881678756/legato_imagedecoder_raw_read_stream_rlecolor.o
 .bss           0x00000000        0x0 build/lcdc_rgba8888_mxt_9x60_wvga/debug/_ext/1881678756/legato_imagedecoder_raw_read_stream_rlecolor.o
 .debug_info    0x00000000      0x48d build/lcdc_rgba8888_mxt_9x60_wvga/debug/_ext/1881678756/legato_imagedecoder_raw_read_stream_rlecolor.o
 .debug_abbrev  0x00000000       0xb5 build/lcdc_rgba8888_mxt_9x60_wvga/debug/_ext/1881678756/legato_imagedecoder_raw_read_stream_rlecolor.o
 .debug_aranges
                0x00000000       0x18 build/lcdc_rgba8888_mxt_9x60_wvga/debug/_ext/1881678756/legato_imagedecoder_raw_read_stream_rlecolor.o
 .debug_line    0x00000000       0xb9 build/lcdc_rgba8888_mxt_9x60_wvga/debug/_ext/1881678756/legato_imagedecoder_raw_read_stream_rlecolor.o
 .debug_str     0x00000000        0x9 build/lcdc_rgba8888_mxt_9x60_wvga/debug/_ext/1881678756/legato_imagedecoder_raw_read_stream_rlecolor.o
 .comment       0x00000000       0x2c build/lcdc_rgba8888_mxt_9x60_wvga/debug/_ext/1881678756/legato_imagedecoder_raw_read_stream_rlecolor.o
 .ARM.attributes
                0x00000000       0x32 build/lcdc_rgba8888_mxt_9x60_wvga/debug/_ext/1881678756/legato_imagedecoder_raw_read_stream_rlecolor.o
 .text          0x00000000        0x0 build/lcdc_rgba8888_mxt_9x60_wvga/debug/_ext/1881678756/legato_imagedecoder_raw_read_stream_color.o
 .data          0x00000000        0x0 build/lcdc_rgba8888_mxt_9x60_wvga/debug/_ext/1881678756/legato_imagedecoder_raw_read_stream_color.o
 .bss           0x00000000        0x0 build/lcdc_rgba8888_mxt_9x60_wvga/debug/_ext/1881678756/legato_imagedecoder_raw_read_stream_color.o
 .debug_info    0x00000000      0x48a build/lcdc_rgba8888_mxt_9x60_wvga/debug/_ext/1881678756/legato_imagedecoder_raw_read_stream_color.o
 .debug_abbrev  0x00000000       0xb5 build/lcdc_rgba8888_mxt_9x60_wvga/debug/_ext/1881678756/legato_imagedecoder_raw_read_stream_color.o
 .debug_aranges
                0x00000000       0x18 build/lcdc_rgba8888_mxt_9x60_wvga/debug/_ext/1881678756/legato_imagedecoder_raw_read_stream_color.o
 .debug_line    0x00000000       0xb9 build/lcdc_rgba8888_mxt_9x60_wvga/debug/_ext/1881678756/legato_imagedecoder_raw_read_stream_color.o
 .debug_str     0x00000000        0x9 build/lcdc_rgba8888_mxt_9x60_wvga/debug/_ext/1881678756/legato_imagedecoder_raw_read_stream_color.o
 .comment       0x00000000       0x2c build/lcdc_rgba8888_mxt_9x60_wvga/debug/_ext/1881678756/legato_imagedecoder_raw_read_stream_color.o
 .ARM.attributes
                0x00000000       0x32 build/lcdc_rgba8888_mxt_9x60_wvga/debug/_ext/1881678756/legato_imagedecoder_raw_read_stream_color.o
 .text          0x00000000        0x0 build/lcdc_rgba8888_mxt_9x60_wvga/debug/_ext/1881678756/legato_imagedecoder_raw_read_stream_index.o
 .data          0x00000000        0x0 build/lcdc_rgba8888_mxt_9x60_wvga/debug/_ext/1881678756/legato_imagedecoder_raw_read_stream_index.o
 .bss           0x00000000        0x0 build/lcdc_rgba8888_mxt_9x60_wvga/debug/_ext/1881678756/legato_imagedecoder_raw_read_stream_index.o
 .debug_info    0x00000000      0x48a build/lcdc_rgba8888_mxt_9x60_wvga/debug/_ext/1881678756/legato_imagedecoder_raw_read_stream_index.o
 .debug_abbrev  0x00000000       0xb5 build/lcdc_rgba8888_mxt_9x60_wvga/debug/_ext/1881678756/legato_imagedecoder_raw_read_stream_index.o
 .debug_aranges
                0x00000000       0x18 build/lcdc_rgba8888_mxt_9x60_wvga/debug/_ext/1881678756/legato_imagedecoder_raw_read_stream_index.o
 .debug_line    0x00000000       0xb9 build/lcdc_rgba8888_mxt_9x60_wvga/debug/_ext/1881678756/legato_imagedecoder_raw_read_stream_index.o
 .debug_str     0x00000000        0x9 build/lcdc_rgba8888_mxt_9x60_wvga/debug/_ext/1881678756/legato_imagedecoder_raw_read_stream_index.o
 .comment       0x00000000       0x2c build/lcdc_rgba8888_mxt_9x60_wvga/debug/_ext/1881678756/legato_imagedecoder_raw_read_stream_index.o
 .ARM.attributes
                0x00000000       0x32 build/lcdc_rgba8888_mxt_9x60_wvga/debug/_ext/1881678756/legato_imagedecoder_raw_read_stream_index.o
 .text          0x00000000        0x0 build/lcdc_rgba8888_mxt_9x60_wvga/debug/_ext/1881678756/legato_imagedecoder_raw_palette_internal.o
 .data          0x00000000        0x0 build/lcdc_rgba8888_mxt_9x60_wvga/debug/_ext/1881678756/legato_imagedecoder_raw_palette_internal.o
 .bss           0x00000000        0x0 build/lcdc_rgba8888_mxt_9x60_wvga/debug/_ext/1881678756/legato_imagedecoder_raw_palette_internal.o
 .text          0x00000000        0x0 build/lcdc_rgba8888_mxt_9x60_wvga/debug/_ext/1881678756/legato_imagedecoder_raw.o
 .data          0x00000000        0x0 build/lcdc_rgba8888_mxt_9x60_wvga/debug/_ext/1881678756/legato_imagedecoder_raw.o
 .bss           0x00000000        0x0 build/lcdc_rgba8888_mxt_9x60_wvga/debug/_ext/1881678756/legato_imagedecoder_raw.o
 .text          0x00000000        0x0 build/lcdc_rgba8888_mxt_9x60_wvga/debug/_ext/1881678756/legato_imagedecoder_raw_rotate.o
 .data          0x00000000        0x0 build/lcdc_rgba8888_mxt_9x60_wvga/debug/_ext/1881678756/legato_imagedecoder_raw_rotate.o
 .bss           0x00000000        0x0 build/lcdc_rgba8888_mxt_9x60_wvga/debug/_ext/1881678756/legato_imagedecoder_raw_rotate.o
 .text          0x00000000        0x0 build/lcdc_rgba8888_mxt_9x60_wvga/debug/_ext/927452043/legato_image_utils.o
 .data          0x00000000        0x0 build/lcdc_rgba8888_mxt_9x60_wvga/debug/_ext/927452043/legato_image_utils.o
 .bss           0x00000000        0x0 build/lcdc_rgba8888_mxt_9x60_wvga/debug/_ext/927452043/legato_image_utils.o
 .text          0x00000000        0x0 build/lcdc_rgba8888_mxt_9x60_wvga/debug/_ext/927452043/legato_palette.o
 .data          0x00000000        0x0 build/lcdc_rgba8888_mxt_9x60_wvga/debug/_ext/927452043/legato_palette.o
 .bss           0x00000000        0x0 build/lcdc_rgba8888_mxt_9x60_wvga/debug/_ext/927452043/legato_palette.o
 .text.lePalette_GetColor
                0x00000000       0x3c build/lcdc_rgba8888_mxt_9x60_wvga/debug/_ext/927452043/legato_palette.o
 .debug_info    0x00000000      0x8dc build/lcdc_rgba8888_mxt_9x60_wvga/debug/_ext/927452043/legato_palette.o
 .debug_abbrev  0x00000000      0x1a8 build/lcdc_rgba8888_mxt_9x60_wvga/debug/_ext/927452043/legato_palette.o
 .debug_loc     0x00000000       0xaa build/lcdc_rgba8888_mxt_9x60_wvga/debug/_ext/927452043/legato_palette.o
 .debug_aranges
                0x00000000       0x20 build/lcdc_rgba8888_mxt_9x60_wvga/debug/_ext/927452043/legato_palette.o
 .debug_ranges  0x00000000       0x10 build/lcdc_rgba8888_mxt_9x60_wvga/debug/_ext/927452043/legato_palette.o
 .debug_line    0x00000000      0x1c6 build/lcdc_rgba8888_mxt_9x60_wvga/debug/_ext/927452043/legato_palette.o
 .debug_str     0x00000000       0x51 build/lcdc_rgba8888_mxt_9x60_wvga/debug/_ext/927452043/legato_palette.o
 .comment       0x00000000       0x2c build/lcdc_rgba8888_mxt_9x60_wvga/debug/_ext/927452043/legato_palette.o
 .debug_frame   0x00000000       0x2c build/lcdc_rgba8888_mxt_9x60_wvga/debug/_ext/927452043/legato_palette.o
 .ARM.attributes
                0x00000000       0x2c build/lcdc_rgba8888_mxt_9x60_wvga/debug/_ext/927452043/legato_palette.o
 .text          0x00000000        0x0 build/lcdc_rgba8888_mxt_9x60_wvga/debug/_ext/927452043/legato_image.o
 .data          0x00000000        0x0 build/lcdc_rgba8888_mxt_9x60_wvga/debug/_ext/927452043/legato_image.o
 .bss           0x00000000        0x0 build/lcdc_rgba8888_mxt_9x60_wvga/debug/_ext/927452043/legato_image.o
 .text.leImage_Free
                0x00000000       0x40 build/lcdc_rgba8888_mxt_9x60_wvga/debug/_ext/927452043/legato_image.o
 .text.leImage_Resize
                0x00000000      0x10c build/lcdc_rgba8888_mxt_9x60_wvga/debug/_ext/927452043/legato_image.o
 .text.leImage_ResizeDraw
                0x00000000       0xc4 build/lcdc_rgba8888_mxt_9x60_wvga/debug/_ext/927452043/legato_image.o
 .text.leImage_Copy
                0x00000000       0xac build/lcdc_rgba8888_mxt_9x60_wvga/debug/_ext/927452043/legato_image.o
 .text.leImage_Render
                0x00000000       0xbc build/lcdc_rgba8888_mxt_9x60_wvga/debug/_ext/927452043/legato_image.o
 .text.leImage_Rotate
                0x00000000       0xb4 build/lcdc_rgba8888_mxt_9x60_wvga/debug/_ext/927452043/legato_image.o
 .text.leImage_RotateDraw
                0x00000000       0xbc build/lcdc_rgba8888_mxt_9x60_wvga/debug/_ext/927452043/legato_image.o
 .text.leProcessImage
                0x00000000       0x9c build/lcdc_rgba8888_mxt_9x60_wvga/debug/_ext/927452043/legato_image.o
 .text          0x00000000        0x0 build/lcdc_rgba8888_mxt_9x60_wvga/debug/_ext/1206263599/legato_memory.o
 .data          0x00000000        0x0 build/lcdc_rgba8888_mxt_9x60_wvga/debug/_ext/1206263599/legato_memory.o
 .bss           0x00000000        0x0 build/lcdc_rgba8888_mxt_9x60_wvga/debug/_ext/1206263599/legato_memory.o
 .text.leMemoryGetUsageReport
                0x00000000       0x6c build/lcdc_rgba8888_mxt_9x60_wvga/debug/_ext/1206263599/legato_memory.o
 .text.leMemoryPrintReport
                0x00000000       0x18 build/lcdc_rgba8888_mxt_9x60_wvga/debug/_ext/1206263599/legato_memory.o
 .text.leMemoryValidateHeaps
                0x00000000       0x48 build/lcdc_rgba8888_mxt_9x60_wvga/debug/_ext/1206263599/legato_memory.o
 .text          0x00000000        0x0 build/lcdc_rgba8888_mxt_9x60_wvga/debug/_ext/1206263599/legato_fixedheap.o
 .data          0x00000000        0x0 build/lcdc_rgba8888_mxt_9x60_wvga/debug/_ext/1206263599/legato_fixedheap.o
 .bss           0x00000000        0x0 build/lcdc_rgba8888_mxt_9x60_wvga/debug/_ext/1206263599/legato_fixedheap.o
 .text.leFixedHeap_Destroy
                0x00000000       0x34 build/lcdc_rgba8888_mxt_9x60_wvga/debug/_ext/1206263599/legato_fixedheap.o
 .text.leFixedHeap_Validate
                0x00000000        0x8 build/lcdc_rgba8888_mxt_9x60_wvga/debug/_ext/1206263599/legato_fixedheap.o
 .text          0x00000000        0x0 build/lcdc_rgba8888_mxt_9x60_wvga/debug/_ext/1206263599/legato_variableheap.o
 .data          0x00000000        0x0 build/lcdc_rgba8888_mxt_9x60_wvga/debug/_ext/1206263599/legato_variableheap.o
 .bss           0x00000000        0x0 build/lcdc_rgba8888_mxt_9x60_wvga/debug/_ext/1206263599/legato_variableheap.o
 .text.leVariableHeap_Destroy
                0x00000000       0x14 build/lcdc_rgba8888_mxt_9x60_wvga/debug/_ext/1206263599/legato_variableheap.o
 .text.leVariableHeap_Used
                0x00000000       0x34 build/lcdc_rgba8888_mxt_9x60_wvga/debug/_ext/1206263599/legato_variableheap.o
 .text.leVariableHeap_Dump
                0x00000000       0xf0 build/lcdc_rgba8888_mxt_9x60_wvga/debug/_ext/1206263599/legato_variableheap.o
 .rodata        0x00000000       0xb4 build/lcdc_rgba8888_mxt_9x60_wvga/debug/_ext/1206263599/legato_variableheap.o
 .text          0x00000000        0x0 build/lcdc_rgba8888_mxt_9x60_wvga/debug/_ext/564048019/legato_draw_rect.o
 .data          0x00000000        0x0 build/lcdc_rgba8888_mxt_9x60_wvga/debug/_ext/564048019/legato_draw_rect.o
 .bss           0x00000000        0x0 build/lcdc_rgba8888_mxt_9x60_wvga/debug/_ext/564048019/legato_draw_rect.o
 .text.leRenderer_RectLine
                0x00000000       0x98 build/lcdc_rgba8888_mxt_9x60_wvga/debug/_ext/564048019/legato_draw_rect.o
 .text.leRenderer_HorzGradientRect
                0x00000000       0x90 build/lcdc_rgba8888_mxt_9x60_wvga/debug/_ext/564048019/legato_draw_rect.o
 .text.leRenderer_VertGradientRect
                0x00000000       0x90 build/lcdc_rgba8888_mxt_9x60_wvga/debug/_ext/564048019/legato_draw_rect.o
 .text          0x00000000        0x0 build/lcdc_rgba8888_mxt_9x60_wvga/debug/_ext/564048019/legato_draw.o
 .data          0x00000000        0x0 build/lcdc_rgba8888_mxt_9x60_wvga/debug/_ext/564048019/legato_draw.o
 .bss           0x00000000        0x0 build/lcdc_rgba8888_mxt_9x60_wvga/debug/_ext/564048019/legato_draw.o
 .text.leRenderer_GetPixel_Safe
                0x00000000       0x60 build/lcdc_rgba8888_mxt_9x60_wvga/debug/_ext/564048019/legato_draw.o
 .text.leRenderer_PutPixel_Safe
                0x00000000       0x60 build/lcdc_rgba8888_mxt_9x60_wvga/debug/_ext/564048019/legato_draw.o
 .text          0x00000000        0x0 build/lcdc_rgba8888_mxt_9x60_wvga/debug/_ext/564048019/legato_draw_line.o
 .data          0x00000000        0x0 build/lcdc_rgba8888_mxt_9x60_wvga/debug/_ext/564048019/legato_draw_line.o
 .bss           0x00000000        0x0 build/lcdc_rgba8888_mxt_9x60_wvga/debug/_ext/564048019/legato_draw_line.o
 .text.leRenderer_DrawLine
                0x00000000      0x118 build/lcdc_rgba8888_mxt_9x60_wvga/debug/_ext/564048019/legato_draw_line.o
 .text.leRenderer_EllipseLine
                0x00000000       0xd0 build/lcdc_rgba8888_mxt_9x60_wvga/debug/_ext/564048019/legato_draw_line.o
 .text          0x00000000        0x0 build/lcdc_rgba8888_mxt_9x60_wvga/debug/_ext/564048019/legato_renderer.o
 .data          0x00000000        0x0 build/lcdc_rgba8888_mxt_9x60_wvga/debug/_ext/564048019/legato_renderer.o
 .bss           0x00000000        0x0 build/lcdc_rgba8888_mxt_9x60_wvga/debug/_ext/564048019/legato_renderer.o
 .text.leRenderer_GetDrawCount
                0x00000000       0x10 build/lcdc_rgba8888_mxt_9x60_wvga/debug/_ext/564048019/legato_renderer.o
 .text.leRenderer_GetGlobalPalette
                0x00000000       0x10 build/lcdc_rgba8888_mxt_9x60_wvga/debug/_ext/564048019/legato_renderer.o
 .text.leRenderer_SetGlobalPalette
                0x00000000       0x14 build/lcdc_rgba8888_mxt_9x60_wvga/debug/_ext/564048019/legato_renderer.o
 .text.leRenderer_GlobalPaletteLookup
                0x00000000       0x1c build/lcdc_rgba8888_mxt_9x60_wvga/debug/_ext/564048019/legato_renderer.o
 .text.leRenderer_CullDrawPoint
                0x00000000       0x20 build/lcdc_rgba8888_mxt_9x60_wvga/debug/_ext/564048019/legato_renderer.o
 .text.leRenderer_Shutdown
                0x00000000        0x4 build/lcdc_rgba8888_mxt_9x60_wvga/debug/_ext/564048019/legato_renderer.o
 .text._leRenderer_DestroyLayerState
                0x00000000       0x40 build/lcdc_rgba8888_mxt_9x60_wvga/debug/_ext/564048019/legato_renderer.o
 .text          0x00000000        0x0 build/lcdc_rgba8888_mxt_9x60_wvga/debug/_ext/564048019/legato_draw_arc.o
 .data          0x00000000        0x0 build/lcdc_rgba8888_mxt_9x60_wvga/debug/_ext/564048019/legato_draw_arc.o
 .bss           0x00000000        0x0 build/lcdc_rgba8888_mxt_9x60_wvga/debug/_ext/564048019/legato_draw_arc.o
 .text.leRenderer_ArcLine
                0x00000000       0x9c build/lcdc_rgba8888_mxt_9x60_wvga/debug/_ext/564048019/legato_draw_arc.o
 .text.leRenderer_CircleDraw
                0x00000000       0x38 build/lcdc_rgba8888_mxt_9x60_wvga/debug/_ext/564048019/legato_draw_arc.o
 .text          0x00000000        0x0 build/lcdc_rgba8888_mxt_9x60_wvga/debug/_ext/564048019/legato_gpu.o
 .data          0x00000000        0x0 build/lcdc_rgba8888_mxt_9x60_wvga/debug/_ext/564048019/legato_gpu.o
 .bss           0x00000000        0x0 build/lcdc_rgba8888_mxt_9x60_wvga/debug/_ext/564048019/legato_gpu.o
 .text          0x00000000        0x0 build/lcdc_rgba8888_mxt_9x60_wvga/debug/_ext/1020492831/legato_stringutils.o
 .data          0x00000000        0x0 build/lcdc_rgba8888_mxt_9x60_wvga/debug/_ext/1020492831/legato_stringutils.o
 .bss           0x00000000        0x0 build/lcdc_rgba8888_mxt_9x60_wvga/debug/_ext/1020492831/legato_stringutils.o
 .text.leStringUtils_FromCStr
                0x00000000       0x68 build/lcdc_rgba8888_mxt_9x60_wvga/debug/_ext/1020492831/legato_stringutils.o
 .text.leStringUtils_ToCStr
                0x00000000       0x70 build/lcdc_rgba8888_mxt_9x60_wvga/debug/_ext/1020492831/legato_stringutils.o
 .text.leStringUtils_GetLineCount
                0x00000000       0x40 build/lcdc_rgba8888_mxt_9x60_wvga/debug/_ext/1020492831/legato_stringutils.o
 .text.leStringUtils_GetLineCountCStr
                0x00000000       0x50 build/lcdc_rgba8888_mxt_9x60_wvga/debug/_ext/1020492831/legato_stringutils.o
 .text.leStringUtils_GetLineIndices
                0x00000000       0xa0 build/lcdc_rgba8888_mxt_9x60_wvga/debug/_ext/1020492831/legato_stringutils.o
 .text.leStringUtils_GetLineIndicesCStr
                0x00000000       0xb4 build/lcdc_rgba8888_mxt_9x60_wvga/debug/_ext/1020492831/legato_stringutils.o
 .text.leStringUtils_GetLineRect
                0x00000000      0x110 build/lcdc_rgba8888_mxt_9x60_wvga/debug/_ext/1020492831/legato_stringutils.o
 .text.leStringUtils_GetRect
                0x00000000       0xd0 build/lcdc_rgba8888_mxt_9x60_wvga/debug/_ext/1020492831/legato_stringutils.o
 .text.leStringUtils_GetLineRectCStr
                0x00000000      0x10c build/lcdc_rgba8888_mxt_9x60_wvga/debug/_ext/1020492831/legato_stringutils.o
 .text.leStringUtils_GetRectCStr
                0x00000000       0xcc build/lcdc_rgba8888_mxt_9x60_wvga/debug/_ext/1020492831/legato_stringutils.o
 .text.leStringUtils_GetCharRect
                0x00000000       0xe4 build/lcdc_rgba8888_mxt_9x60_wvga/debug/_ext/1020492831/legato_stringutils.o
 .text.leStringUtils_GetCharRectCStr
                0x00000000       0xec build/lcdc_rgba8888_mxt_9x60_wvga/debug/_ext/1020492831/legato_stringutils.o
 .text.leStringUtils_GetCharIndexAtPoint
                0x00000000      0x108 build/lcdc_rgba8888_mxt_9x60_wvga/debug/_ext/1020492831/legato_stringutils.o
 .text.leStringUtils_GetCharIndexAtPointCStr
                0x00000000      0x104 build/lcdc_rgba8888_mxt_9x60_wvga/debug/_ext/1020492831/legato_stringutils.o
 .text          0x00000000        0x0 build/lcdc_rgba8888_mxt_9x60_wvga/debug/_ext/1020492831/legato_tablestring.o
 .data          0x00000000        0x0 build/lcdc_rgba8888_mxt_9x60_wvga/debug/_ext/1020492831/legato_tablestring.o
 .bss           0x00000000        0x0 build/lcdc_rgba8888_mxt_9x60_wvga/debug/_ext/1020492831/legato_tablestring.o
 .text.leTableString_New
                0x00000000       0x24 build/lcdc_rgba8888_mxt_9x60_wvga/debug/_ext/1020492831/legato_tablestring.o
 .text._leTableString_ToChar
                0x00000000       0x84 build/lcdc_rgba8888_mxt_9x60_wvga/debug/_ext/1020492831/legato_tablestring.o
 .text._leTableString_SizeInBytes
                0x00000000       0x48 build/lcdc_rgba8888_mxt_9x60_wvga/debug/_ext/1020492831/legato_tablestring.o
 .text          0x00000000        0x0 build/lcdc_rgba8888_mxt_9x60_wvga/debug/_ext/1020492831/legato_dynamicstring.o
 .data          0x00000000        0x0 build/lcdc_rgba8888_mxt_9x60_wvga/debug/_ext/1020492831/legato_dynamicstring.o
 .bss           0x00000000        0x0 build/lcdc_rgba8888_mxt_9x60_wvga/debug/_ext/1020492831/legato_dynamicstring.o
 .text._leDynamicString_GetFont
                0x00000000        0x8 build/lcdc_rgba8888_mxt_9x60_wvga/debug/_ext/1020492831/legato_dynamicstring.o
 .text._leDynamicString_SetFont
                0x00000000       0x34 build/lcdc_rgba8888_mxt_9x60_wvga/debug/_ext/1020492831/legato_dynamicstring.o
 .text._leDynamicString_GetCapacity
                0x00000000        0x8 build/lcdc_rgba8888_mxt_9x60_wvga/debug/_ext/1020492831/legato_dynamicstring.o
 .text._leDynamicString_SetFromString
                0x00000000       0xcc build/lcdc_rgba8888_mxt_9x60_wvga/debug/_ext/1020492831/legato_dynamicstring.o
 .text._leDynamicString_SetFromChar
                0x00000000       0xa8 build/lcdc_rgba8888_mxt_9x60_wvga/debug/_ext/1020492831/legato_dynamicstring.o
 .text._leDynamicString_Length
                0x00000000        0x8 build/lcdc_rgba8888_mxt_9x60_wvga/debug/_ext/1020492831/legato_dynamicstring.o
 .text._leDynamicString_IsEmpty
                0x00000000       0x10 build/lcdc_rgba8888_mxt_9x60_wvga/debug/_ext/1020492831/legato_dynamicstring.o
 .text._leDynamicString_CharAt
                0x00000000       0x1c build/lcdc_rgba8888_mxt_9x60_wvga/debug/_ext/1020492831/legato_dynamicstring.o
 .text._leDynamicString_Compare
                0x00000000       0x8c build/lcdc_rgba8888_mxt_9x60_wvga/debug/_ext/1020492831/legato_dynamicstring.o
 .text._leDynamicString_Append
                0x00000000       0xec build/lcdc_rgba8888_mxt_9x60_wvga/debug/_ext/1020492831/legato_dynamicstring.o
 .text._leDynamicString_Insert
                0x00000000      0x184 build/lcdc_rgba8888_mxt_9x60_wvga/debug/_ext/1020492831/legato_dynamicstring.o
 .text._leDynamicString_Remove
                0x00000000       0xc8 build/lcdc_rgba8888_mxt_9x60_wvga/debug/_ext/1020492831/legato_dynamicstring.o
 .text._leDynamicString_Clear
                0x00000000       0x30 build/lcdc_rgba8888_mxt_9x60_wvga/debug/_ext/1020492831/legato_dynamicstring.o
 .text._leDynamicString_Destructor
                0x00000000       0x38 build/lcdc_rgba8888_mxt_9x60_wvga/debug/_ext/1020492831/legato_dynamicstring.o
 .text._leDynamicString_SetCapacity
                0x00000000       0xac build/lcdc_rgba8888_mxt_9x60_wvga/debug/_ext/1020492831/legato_dynamicstring.o
 .text._leDynamicString_SetFromCStr
                0x00000000       0xa8 build/lcdc_rgba8888_mxt_9x60_wvga/debug/_ext/1020492831/legato_dynamicstring.o
 .text._leDynamicString_ToChar
                0x00000000       0x50 build/lcdc_rgba8888_mxt_9x60_wvga/debug/_ext/1020492831/legato_dynamicstring.o
 .text.leDynamicString_Constructor
                0x00000000       0x34 build/lcdc_rgba8888_mxt_9x60_wvga/debug/_ext/1020492831/legato_dynamicstring.o
 .text.leDynamicString_New
                0x00000000       0x1c build/lcdc_rgba8888_mxt_9x60_wvga/debug/_ext/1020492831/legato_dynamicstring.o
 .rodata.dynamicStringVTable
                0x00000000       0x70 build/lcdc_rgba8888_mxt_9x60_wvga/debug/_ext/1020492831/legato_dynamicstring.o
 .debug_info    0x00000000     0x1c4c build/lcdc_rgba8888_mxt_9x60_wvga/debug/_ext/1020492831/legato_dynamicstring.o
 .debug_abbrev  0x00000000      0x30d build/lcdc_rgba8888_mxt_9x60_wvga/debug/_ext/1020492831/legato_dynamicstring.o
 .debug_loc     0x00000000      0xc0c build/lcdc_rgba8888_mxt_9x60_wvga/debug/_ext/1020492831/legato_dynamicstring.o
 .debug_aranges
                0x00000000       0xb0 build/lcdc_rgba8888_mxt_9x60_wvga/debug/_ext/1020492831/legato_dynamicstring.o
 .debug_ranges  0x00000000       0xa0 build/lcdc_rgba8888_mxt_9x60_wvga/debug/_ext/1020492831/legato_dynamicstring.o
 .debug_line    0x00000000      0x9df build/lcdc_rgba8888_mxt_9x60_wvga/debug/_ext/1020492831/legato_dynamicstring.o
 .debug_str     0x00000000      0x17a build/lcdc_rgba8888_mxt_9x60_wvga/debug/_ext/1020492831/legato_dynamicstring.o
 .comment       0x00000000       0x2c build/lcdc_rgba8888_mxt_9x60_wvga/debug/_ext/1020492831/legato_dynamicstring.o
 .debug_frame   0x00000000      0x218 build/lcdc_rgba8888_mxt_9x60_wvga/debug/_ext/1020492831/legato_dynamicstring.o
 .ARM.attributes
                0x00000000       0x2c build/lcdc_rgba8888_mxt_9x60_wvga/debug/_ext/1020492831/legato_dynamicstring.o
 .text          0x00000000        0x0 build/lcdc_rgba8888_mxt_9x60_wvga/debug/_ext/1020492831/legato_string_renderer_stream.o
 .data          0x00000000        0x0 build/lcdc_rgba8888_mxt_9x60_wvga/debug/_ext/1020492831/legato_string_renderer_stream.o
 .bss           0x00000000        0x0 build/lcdc_rgba8888_mxt_9x60_wvga/debug/_ext/1020492831/legato_string_renderer_stream.o
 .debug_info    0x00000000      0xd0b build/lcdc_rgba8888_mxt_9x60_wvga/debug/_ext/1020492831/legato_string_renderer_stream.o
 .debug_abbrev  0x00000000      0x17b build/lcdc_rgba8888_mxt_9x60_wvga/debug/_ext/1020492831/legato_string_renderer_stream.o
 .debug_aranges
                0x00000000       0x18 build/lcdc_rgba8888_mxt_9x60_wvga/debug/_ext/1020492831/legato_string_renderer_stream.o
 .debug_line    0x00000000      0x10f build/lcdc_rgba8888_mxt_9x60_wvga/debug/_ext/1020492831/legato_string_renderer_stream.o
 .debug_str     0x00000000       0x8b build/lcdc_rgba8888_mxt_9x60_wvga/debug/_ext/1020492831/legato_string_renderer_stream.o
 .comment       0x00000000       0x2c build/lcdc_rgba8888_mxt_9x60_wvga/debug/_ext/1020492831/legato_string_renderer_stream.o
 .ARM.attributes
                0x00000000       0x32 build/lcdc_rgba8888_mxt_9x60_wvga/debug/_ext/1020492831/legato_string_renderer_stream.o
 .text          0x00000000        0x0 build/lcdc_rgba8888_mxt_9x60_wvga/debug/_ext/1020492831/legato_stringtable.o
 .data          0x00000000        0x0 build/lcdc_rgba8888_mxt_9x60_wvga/debug/_ext/1020492831/legato_stringtable.o
 .bss           0x00000000        0x0 build/lcdc_rgba8888_mxt_9x60_wvga/debug/_ext/1020492831/legato_stringtable.o
 .text.leStringTable_GetStringCount
                0x00000000       0x14 build/lcdc_rgba8888_mxt_9x60_wvga/debug/_ext/1020492831/legato_stringtable.o
 .text.leStringTable_GetLanguageCount
                0x00000000       0x14 build/lcdc_rgba8888_mxt_9x60_wvga/debug/_ext/1020492831/legato_stringtable.o
 .text.leStringTable_GetActiveStringOffset
                0x00000000       0x24 build/lcdc_rgba8888_mxt_9x60_wvga/debug/_ext/1020492831/legato_stringtable.o
 .text          0x00000000        0x0 build/lcdc_rgba8888_mxt_9x60_wvga/debug/_ext/1020492831/legato_fixedstring.o
 .data          0x00000000        0x0 build/lcdc_rgba8888_mxt_9x60_wvga/debug/_ext/1020492831/legato_fixedstring.o
 .bss           0x00000000        0x0 build/lcdc_rgba8888_mxt_9x60_wvga/debug/_ext/1020492831/legato_fixedstring.o
 .text.leFixedString_New
                0x00000000       0x2c build/lcdc_rgba8888_mxt_9x60_wvga/debug/_ext/1020492831/legato_fixedstring.o
 .text          0x00000000        0x0 build/lcdc_rgba8888_mxt_9x60_wvga/debug/_ext/1020492831/legato_string_renderer.o
 .data          0x00000000        0x0 build/lcdc_rgba8888_mxt_9x60_wvga/debug/_ext/1020492831/legato_string_renderer.o
 .bss           0x00000000        0x0 build/lcdc_rgba8888_mxt_9x60_wvga/debug/_ext/1020492831/legato_string_renderer.o
 .text.leStringRenderer_DrawUString
                0x00000000      0x1c8 build/lcdc_rgba8888_mxt_9x60_wvga/debug/_ext/1020492831/legato_string_renderer.o
 .text.leStringRenderer_DrawCString
                0x00000000      0x1c0 build/lcdc_rgba8888_mxt_9x60_wvga/debug/_ext/1020492831/legato_string_renderer.o
 .text          0x00000000        0x0 build/lcdc_rgba8888_mxt_9x60_wvga/debug/_ext/1020492831/legato_string.o
 .data          0x00000000        0x0 build/lcdc_rgba8888_mxt_9x60_wvga/debug/_ext/1020492831/legato_string.o
 .bss           0x00000000        0x0 build/lcdc_rgba8888_mxt_9x60_wvga/debug/_ext/1020492831/legato_string.o
 .text.leString_Delete
                0x00000000       0x28 build/lcdc_rgba8888_mxt_9x60_wvga/debug/_ext/1020492831/legato_string.o
 .text          0x00000000        0x0 build/lcdc_rgba8888_mxt_9x60_wvga/debug/_ext/618648617/legato_widget_arc.o
 .data          0x00000000        0x0 build/lcdc_rgba8888_mxt_9x60_wvga/debug/_ext/618648617/legato_widget_arc.o
 .bss           0x00000000        0x0 build/lcdc_rgba8888_mxt_9x60_wvga/debug/_ext/618648617/legato_widget_arc.o
 .debug_info    0x00000000      0x473 build/lcdc_rgba8888_mxt_9x60_wvga/debug/_ext/618648617/legato_widget_arc.o
 .debug_abbrev  0x00000000       0xb5 build/lcdc_rgba8888_mxt_9x60_wvga/debug/_ext/618648617/legato_widget_arc.o
 .debug_aranges
                0x00000000       0x18 build/lcdc_rgba8888_mxt_9x60_wvga/debug/_ext/618648617/legato_widget_arc.o
 .debug_line    0x00000000       0xb9 build/lcdc_rgba8888_mxt_9x60_wvga/debug/_ext/618648617/legato_widget_arc.o
 .debug_str     0x00000000        0x9 build/lcdc_rgba8888_mxt_9x60_wvga/debug/_ext/618648617/legato_widget_arc.o
 .comment       0x00000000       0x2c build/lcdc_rgba8888_mxt_9x60_wvga/debug/_ext/618648617/legato_widget_arc.o
 .ARM.attributes
                0x00000000       0x32 build/lcdc_rgba8888_mxt_9x60_wvga/debug/_ext/618648617/legato_widget_arc.o
 .text          0x00000000        0x0 build/lcdc_rgba8888_mxt_9x60_wvga/debug/_ext/618648617/legato_widget_arc_skin_classic.o
 .data          0x00000000        0x0 build/lcdc_rgba8888_mxt_9x60_wvga/debug/_ext/618648617/legato_widget_arc_skin_classic.o
 .bss           0x00000000        0x0 build/lcdc_rgba8888_mxt_9x60_wvga/debug/_ext/618648617/legato_widget_arc_skin_classic.o
 .debug_info    0x00000000      0x480 build/lcdc_rgba8888_mxt_9x60_wvga/debug/_ext/618648617/legato_widget_arc_skin_classic.o
 .debug_abbrev  0x00000000       0xb5 build/lcdc_rgba8888_mxt_9x60_wvga/debug/_ext/618648617/legato_widget_arc_skin_classic.o
 .debug_aranges
                0x00000000       0x18 build/lcdc_rgba8888_mxt_9x60_wvga/debug/_ext/618648617/legato_widget_arc_skin_classic.o
 .debug_line    0x00000000       0xb9 build/lcdc_rgba8888_mxt_9x60_wvga/debug/_ext/618648617/legato_widget_arc_skin_classic.o
 .debug_str     0x00000000        0x9 build/lcdc_rgba8888_mxt_9x60_wvga/debug/_ext/618648617/legato_widget_arc_skin_classic.o
 .comment       0x00000000       0x2c build/lcdc_rgba8888_mxt_9x60_wvga/debug/_ext/618648617/legato_widget_arc_skin_classic.o
 .ARM.attributes
                0x00000000       0x32 build/lcdc_rgba8888_mxt_9x60_wvga/debug/_ext/618648617/legato_widget_arc_skin_classic.o
 .text          0x00000000        0x0 build/lcdc_rgba8888_mxt_9x60_wvga/debug/_ext/332049738/legato_widget_bar_graph.o
 .data          0x00000000        0x0 build/lcdc_rgba8888_mxt_9x60_wvga/debug/_ext/332049738/legato_widget_bar_graph.o
 .bss           0x00000000        0x0 build/lcdc_rgba8888_mxt_9x60_wvga/debug/_ext/332049738/legato_widget_bar_graph.o
 .debug_info    0x00000000      0x47e build/lcdc_rgba8888_mxt_9x60_wvga/debug/_ext/332049738/legato_widget_bar_graph.o
 .debug_abbrev  0x00000000       0xb5 build/lcdc_rgba8888_mxt_9x60_wvga/debug/_ext/332049738/legato_widget_bar_graph.o
 .debug_aranges
                0x00000000       0x18 build/lcdc_rgba8888_mxt_9x60_wvga/debug/_ext/332049738/legato_widget_bar_graph.o
 .debug_line    0x00000000       0xb9 build/lcdc_rgba8888_mxt_9x60_wvga/debug/_ext/332049738/legato_widget_bar_graph.o
 .debug_str     0x00000000        0x9 build/lcdc_rgba8888_mxt_9x60_wvga/debug/_ext/332049738/legato_widget_bar_graph.o
 .comment       0x00000000       0x2c build/lcdc_rgba8888_mxt_9x60_wvga/debug/_ext/332049738/legato_widget_bar_graph.o
 .ARM.attributes
                0x00000000       0x32 build/lcdc_rgba8888_mxt_9x60_wvga/debug/_ext/332049738/legato_widget_bar_graph.o
 .text          0x00000000        0x0 build/lcdc_rgba8888_mxt_9x60_wvga/debug/_ext/332049738/legato_widget_bar_graph_skin_classic.o
 .data          0x00000000        0x0 build/lcdc_rgba8888_mxt_9x60_wvga/debug/_ext/332049738/legato_widget_bar_graph_skin_classic.o
 .bss           0x00000000        0x0 build/lcdc_rgba8888_mxt_9x60_wvga/debug/_ext/332049738/legato_widget_bar_graph_skin_classic.o
 .debug_info    0x00000000      0x48b build/lcdc_rgba8888_mxt_9x60_wvga/debug/_ext/332049738/legato_widget_bar_graph_skin_classic.o
 .debug_abbrev  0x00000000       0xb5 build/lcdc_rgba8888_mxt_9x60_wvga/debug/_ext/332049738/legato_widget_bar_graph_skin_classic.o
 .debug_aranges
                0x00000000       0x18 build/lcdc_rgba8888_mxt_9x60_wvga/debug/_ext/332049738/legato_widget_bar_graph_skin_classic.o
 .debug_line    0x00000000       0xb9 build/lcdc_rgba8888_mxt_9x60_wvga/debug/_ext/332049738/legato_widget_bar_graph_skin_classic.o
 .debug_str     0x00000000        0x9 build/lcdc_rgba8888_mxt_9x60_wvga/debug/_ext/332049738/legato_widget_bar_graph_skin_classic.o
 .comment       0x00000000       0x2c build/lcdc_rgba8888_mxt_9x60_wvga/debug/_ext/332049738/legato_widget_bar_graph_skin_classic.o
 .ARM.attributes
                0x00000000       0x32 build/lcdc_rgba8888_mxt_9x60_wvga/debug/_ext/332049738/legato_widget_bar_graph_skin_classic.o
 .text          0x00000000        0x0 build/lcdc_rgba8888_mxt_9x60_wvga/debug/_ext/424260723/legato_widget_button.o
 .data          0x00000000        0x0 build/lcdc_rgba8888_mxt_9x60_wvga/debug/_ext/424260723/legato_widget_button.o
 .bss           0x00000000        0x0 build/lcdc_rgba8888_mxt_9x60_wvga/debug/_ext/424260723/legato_widget_button.o
 .text          0x00000000        0x0 build/lcdc_rgba8888_mxt_9x60_wvga/debug/_ext/424260723/legato_widget_button_skin_classic.o
 .data          0x00000000        0x0 build/lcdc_rgba8888_mxt_9x60_wvga/debug/_ext/424260723/legato_widget_button_skin_classic.o
 .bss           0x00000000        0x0 build/lcdc_rgba8888_mxt_9x60_wvga/debug/_ext/424260723/legato_widget_button_skin_classic.o
 .text          0x00000000        0x0 build/lcdc_rgba8888_mxt_9x60_wvga/debug/_ext/1342728866/legato_widget_checkbox_skin_classic.o
 .data          0x00000000        0x0 build/lcdc_rgba8888_mxt_9x60_wvga/debug/_ext/1342728866/legato_widget_checkbox_skin_classic.o
 .bss           0x00000000        0x0 build/lcdc_rgba8888_mxt_9x60_wvga/debug/_ext/1342728866/legato_widget_checkbox_skin_classic.o
 .debug_info    0x00000000      0x48a build/lcdc_rgba8888_mxt_9x60_wvga/debug/_ext/1342728866/legato_widget_checkbox_skin_classic.o
 .debug_abbrev  0x00000000       0xb5 build/lcdc_rgba8888_mxt_9x60_wvga/debug/_ext/1342728866/legato_widget_checkbox_skin_classic.o
 .debug_aranges
                0x00000000       0x18 build/lcdc_rgba8888_mxt_9x60_wvga/debug/_ext/1342728866/legato_widget_checkbox_skin_classic.o
 .debug_line    0x00000000       0xb9 build/lcdc_rgba8888_mxt_9x60_wvga/debug/_ext/1342728866/legato_widget_checkbox_skin_classic.o
 .debug_str     0x00000000        0x9 build/lcdc_rgba8888_mxt_9x60_wvga/debug/_ext/1342728866/legato_widget_checkbox_skin_classic.o
 .comment       0x00000000       0x2c build/lcdc_rgba8888_mxt_9x60_wvga/debug/_ext/1342728866/legato_widget_checkbox_skin_classic.o
 .ARM.attributes
                0x00000000       0x32 build/lcdc_rgba8888_mxt_9x60_wvga/debug/_ext/1342728866/legato_widget_checkbox_skin_classic.o
 .text          0x00000000        0x0 build/lcdc_rgba8888_mxt_9x60_wvga/debug/_ext/1342728866/legato_widget_checkbox.o
 .data          0x00000000        0x0 build/lcdc_rgba8888_mxt_9x60_wvga/debug/_ext/1342728866/legato_widget_checkbox.o
 .bss           0x00000000        0x0 build/lcdc_rgba8888_mxt_9x60_wvga/debug/_ext/1342728866/legato_widget_checkbox.o
 .debug_info    0x00000000      0xd0d build/lcdc_rgba8888_mxt_9x60_wvga/debug/_ext/1342728866/legato_widget_checkbox.o
 .debug_abbrev  0x00000000      0x17b build/lcdc_rgba8888_mxt_9x60_wvga/debug/_ext/1342728866/legato_widget_checkbox.o
 .debug_aranges
                0x00000000       0x18 build/lcdc_rgba8888_mxt_9x60_wvga/debug/_ext/1342728866/legato_widget_checkbox.o
 .debug_line    0x00000000      0x10f build/lcdc_rgba8888_mxt_9x60_wvga/debug/_ext/1342728866/legato_widget_checkbox.o
 .debug_str     0x00000000       0x8b build/lcdc_rgba8888_mxt_9x60_wvga/debug/_ext/1342728866/legato_widget_checkbox.o
 .comment       0x00000000       0x2c build/lcdc_rgba8888_mxt_9x60_wvga/debug/_ext/1342728866/legato_widget_checkbox.o
 .ARM.attributes
                0x00000000       0x32 build/lcdc_rgba8888_mxt_9x60_wvga/debug/_ext/1342728866/legato_widget_checkbox.o
 .text          0x00000000        0x0 build/lcdc_rgba8888_mxt_9x60_wvga/debug/_ext/406789845/legato_widget_circle.o
 .data          0x00000000        0x0 build/lcdc_rgba8888_mxt_9x60_wvga/debug/_ext/406789845/legato_widget_circle.o
 .bss           0x00000000        0x0 build/lcdc_rgba8888_mxt_9x60_wvga/debug/_ext/406789845/legato_widget_circle.o
 .debug_info    0x00000000      0xd09 build/lcdc_rgba8888_mxt_9x60_wvga/debug/_ext/406789845/legato_widget_circle.o
 .debug_abbrev  0x00000000      0x17b build/lcdc_rgba8888_mxt_9x60_wvga/debug/_ext/406789845/legato_widget_circle.o
 .debug_aranges
                0x00000000       0x18 build/lcdc_rgba8888_mxt_9x60_wvga/debug/_ext/406789845/legato_widget_circle.o
 .debug_line    0x00000000      0x10f build/lcdc_rgba8888_mxt_9x60_wvga/debug/_ext/406789845/legato_widget_circle.o
 .debug_str     0x00000000       0x8b build/lcdc_rgba8888_mxt_9x60_wvga/debug/_ext/406789845/legato_widget_circle.o
 .comment       0x00000000       0x2c build/lcdc_rgba8888_mxt_9x60_wvga/debug/_ext/406789845/legato_widget_circle.o
 .ARM.attributes
                0x00000000       0x32 build/lcdc_rgba8888_mxt_9x60_wvga/debug/_ext/406789845/legato_widget_circle.o
 .text          0x00000000        0x0 build/lcdc_rgba8888_mxt_9x60_wvga/debug/_ext/406789845/legato_widget_circle_skin_classic.o
 .data          0x00000000        0x0 build/lcdc_rgba8888_mxt_9x60_wvga/debug/_ext/406789845/legato_widget_circle_skin_classic.o
 .bss           0x00000000        0x0 build/lcdc_rgba8888_mxt_9x60_wvga/debug/_ext/406789845/legato_widget_circle_skin_classic.o
 .debug_info    0x00000000      0xd16 build/lcdc_rgba8888_mxt_9x60_wvga/debug/_ext/406789845/legato_widget_circle_skin_classic.o
 .debug_abbrev  0x00000000      0x17b build/lcdc_rgba8888_mxt_9x60_wvga/debug/_ext/406789845/legato_widget_circle_skin_classic.o
 .debug_aranges
                0x00000000       0x18 build/lcdc_rgba8888_mxt_9x60_wvga/debug/_ext/406789845/legato_widget_circle_skin_classic.o
 .debug_line    0x00000000      0x10f build/lcdc_rgba8888_mxt_9x60_wvga/debug/_ext/406789845/legato_widget_circle_skin_classic.o
 .debug_str     0x00000000       0x8b build/lcdc_rgba8888_mxt_9x60_wvga/debug/_ext/406789845/legato_widget_circle_skin_classic.o
 .comment       0x00000000       0x2c build/lcdc_rgba8888_mxt_9x60_wvga/debug/_ext/406789845/legato_widget_circle_skin_classic.o
 .ARM.attributes
                0x00000000       0x32 build/lcdc_rgba8888_mxt_9x60_wvga/debug/_ext/406789845/legato_widget_circle_skin_classic.o
 .text          0x00000000        0x0 build/lcdc_rgba8888_mxt_9x60_wvga/debug/_ext/481355007/legato_widget_circular_gauge_skin_classic.o
 .data          0x00000000        0x0 build/lcdc_rgba8888_mxt_9x60_wvga/debug/_ext/481355007/legato_widget_circular_gauge_skin_classic.o
 .bss           0x00000000        0x0 build/lcdc_rgba8888_mxt_9x60_wvga/debug/_ext/481355007/legato_widget_circular_gauge_skin_classic.o
 .debug_info    0x00000000      0x495 build/lcdc_rgba8888_mxt_9x60_wvga/debug/_ext/481355007/legato_widget_circular_gauge_skin_classic.o
 .debug_abbrev  0x00000000       0xb5 build/lcdc_rgba8888_mxt_9x60_wvga/debug/_ext/481355007/legato_widget_circular_gauge_skin_classic.o
 .debug_aranges
                0x00000000       0x18 build/lcdc_rgba8888_mxt_9x60_wvga/debug/_ext/481355007/legato_widget_circular_gauge_skin_classic.o
 .debug_line    0x00000000       0xb9 build/lcdc_rgba8888_mxt_9x60_wvga/debug/_ext/481355007/legato_widget_circular_gauge_skin_classic.o
 .debug_str     0x00000000        0x9 build/lcdc_rgba8888_mxt_9x60_wvga/debug/_ext/481355007/legato_widget_circular_gauge_skin_classic.o
 .comment       0x00000000       0x2c build/lcdc_rgba8888_mxt_9x60_wvga/debug/_ext/481355007/legato_widget_circular_gauge_skin_classic.o
 .ARM.attributes
                0x00000000       0x32 build/lcdc_rgba8888_mxt_9x60_wvga/debug/_ext/481355007/legato_widget_circular_gauge_skin_classic.o
 .text          0x00000000        0x0 build/lcdc_rgba8888_mxt_9x60_wvga/debug/_ext/481355007/legato_widget_circular_gauge.o
 .data          0x00000000        0x0 build/lcdc_rgba8888_mxt_9x60_wvga/debug/_ext/481355007/legato_widget_circular_gauge.o
 .bss           0x00000000        0x0 build/lcdc_rgba8888_mxt_9x60_wvga/debug/_ext/481355007/legato_widget_circular_gauge.o
 .debug_info    0x00000000      0x488 build/lcdc_rgba8888_mxt_9x60_wvga/debug/_ext/481355007/legato_widget_circular_gauge.o
 .debug_abbrev  0x00000000       0xb5 build/lcdc_rgba8888_mxt_9x60_wvga/debug/_ext/481355007/legato_widget_circular_gauge.o
 .debug_aranges
                0x00000000       0x18 build/lcdc_rgba8888_mxt_9x60_wvga/debug/_ext/481355007/legato_widget_circular_gauge.o
 .debug_line    0x00000000       0xb9 build/lcdc_rgba8888_mxt_9x60_wvga/debug/_ext/481355007/legato_widget_circular_gauge.o
 .debug_str     0x00000000        0x9 build/lcdc_rgba8888_mxt_9x60_wvga/debug/_ext/481355007/legato_widget_circular_gauge.o
 .comment       0x00000000       0x2c build/lcdc_rgba8888_mxt_9x60_wvga/debug/_ext/481355007/legato_widget_circular_gauge.o
 .ARM.attributes
                0x00000000       0x32 build/lcdc_rgba8888_mxt_9x60_wvga/debug/_ext/481355007/legato_widget_circular_gauge.o
 .text          0x00000000        0x0 build/lcdc_rgba8888_mxt_9x60_wvga/debug/_ext/1904515685/legato_widget_circular_slider_skin_classic.o
 .data          0x00000000        0x0 build/lcdc_rgba8888_mxt_9x60_wvga/debug/_ext/1904515685/legato_widget_circular_slider_skin_classic.o
 .bss           0x00000000        0x0 build/lcdc_rgba8888_mxt_9x60_wvga/debug/_ext/1904515685/legato_widget_circular_slider_skin_classic.o
 .debug_info    0x00000000      0x497 build/lcdc_rgba8888_mxt_9x60_wvga/debug/_ext/1904515685/legato_widget_circular_slider_skin_classic.o
 .debug_abbrev  0x00000000       0xb5 build/lcdc_rgba8888_mxt_9x60_wvga/debug/_ext/1904515685/legato_widget_circular_slider_skin_classic.o
 .debug_aranges
                0x00000000       0x18 build/lcdc_rgba8888_mxt_9x60_wvga/debug/_ext/1904515685/legato_widget_circular_slider_skin_classic.o
 .debug_line    0x00000000       0xb9 build/lcdc_rgba8888_mxt_9x60_wvga/debug/_ext/1904515685/legato_widget_circular_slider_skin_classic.o
 .debug_str     0x00000000        0x9 build/lcdc_rgba8888_mxt_9x60_wvga/debug/_ext/1904515685/legato_widget_circular_slider_skin_classic.o
 .comment       0x00000000       0x2c build/lcdc_rgba8888_mxt_9x60_wvga/debug/_ext/1904515685/legato_widget_circular_slider_skin_classic.o
 .ARM.attributes
                0x00000000       0x32 build/lcdc_rgba8888_mxt_9x60_wvga/debug/_ext/1904515685/legato_widget_circular_slider_skin_classic.o
 .text          0x00000000        0x0 build/lcdc_rgba8888_mxt_9x60_wvga/debug/_ext/1904515685/legato_widget_circular_slider.o
 .data          0x00000000        0x0 build/lcdc_rgba8888_mxt_9x60_wvga/debug/_ext/1904515685/legato_widget_circular_slider.o
 .bss           0x00000000        0x0 build/lcdc_rgba8888_mxt_9x60_wvga/debug/_ext/1904515685/legato_widget_circular_slider.o
 .debug_info    0x00000000      0x48a build/lcdc_rgba8888_mxt_9x60_wvga/debug/_ext/1904515685/legato_widget_circular_slider.o
 .debug_abbrev  0x00000000       0xb5 build/lcdc_rgba8888_mxt_9x60_wvga/debug/_ext/1904515685/legato_widget_circular_slider.o
 .debug_aranges
                0x00000000       0x18 build/lcdc_rgba8888_mxt_9x60_wvga/debug/_ext/1904515685/legato_widget_circular_slider.o
 .debug_line    0x00000000       0xb9 build/lcdc_rgba8888_mxt_9x60_wvga/debug/_ext/1904515685/legato_widget_circular_slider.o
 .debug_str     0x00000000        0x9 build/lcdc_rgba8888_mxt_9x60_wvga/debug/_ext/1904515685/legato_widget_circular_slider.o
 .comment       0x00000000       0x2c build/lcdc_rgba8888_mxt_9x60_wvga/debug/_ext/1904515685/legato_widget_circular_slider.o
 .ARM.attributes
                0x00000000       0x32 build/lcdc_rgba8888_mxt_9x60_wvga/debug/_ext/1904515685/legato_widget_circular_slider.o
 .text          0x00000000        0x0 build/lcdc_rgba8888_mxt_9x60_wvga/debug/_ext/815359854/legato_widget_drawsurface_skin_classic.o
 .data          0x00000000        0x0 build/lcdc_rgba8888_mxt_9x60_wvga/debug/_ext/815359854/legato_widget_drawsurface_skin_classic.o
 .bss           0x00000000        0x0 build/lcdc_rgba8888_mxt_9x60_wvga/debug/_ext/815359854/legato_widget_drawsurface_skin_classic.o
 .debug_info    0x00000000      0x490 build/lcdc_rgba8888_mxt_9x60_wvga/debug/_ext/815359854/legato_widget_drawsurface_skin_classic.o
 .debug_abbrev  0x00000000       0xb5 build/lcdc_rgba8888_mxt_9x60_wvga/debug/_ext/815359854/legato_widget_drawsurface_skin_classic.o
 .debug_aranges
                0x00000000       0x18 build/lcdc_rgba8888_mxt_9x60_wvga/debug/_ext/815359854/legato_widget_drawsurface_skin_classic.o
 .debug_line    0x00000000       0xb9 build/lcdc_rgba8888_mxt_9x60_wvga/debug/_ext/815359854/legato_widget_drawsurface_skin_classic.o
 .debug_str     0x00000000        0x9 build/lcdc_rgba8888_mxt_9x60_wvga/debug/_ext/815359854/legato_widget_drawsurface_skin_classic.o
 .comment       0x00000000       0x2c build/lcdc_rgba8888_mxt_9x60_wvga/debug/_ext/815359854/legato_widget_drawsurface_skin_classic.o
 .ARM.attributes
                0x00000000       0x32 build/lcdc_rgba8888_mxt_9x60_wvga/debug/_ext/815359854/legato_widget_drawsurface_skin_classic.o
 .text          0x00000000        0x0 build/lcdc_rgba8888_mxt_9x60_wvga/debug/_ext/815359854/legato_widget_drawsurface.o
 .data          0x00000000        0x0 build/lcdc_rgba8888_mxt_9x60_wvga/debug/_ext/815359854/legato_widget_drawsurface.o
 .bss           0x00000000        0x0 build/lcdc_rgba8888_mxt_9x60_wvga/debug/_ext/815359854/legato_widget_drawsurface.o
 .debug_info    0x00000000      0x483 build/lcdc_rgba8888_mxt_9x60_wvga/debug/_ext/815359854/legato_widget_drawsurface.o
 .debug_abbrev  0x00000000       0xb5 build/lcdc_rgba8888_mxt_9x60_wvga/debug/_ext/815359854/legato_widget_drawsurface.o
 .debug_aranges
                0x00000000       0x18 build/lcdc_rgba8888_mxt_9x60_wvga/debug/_ext/815359854/legato_widget_drawsurface.o
 .debug_line    0x00000000       0xb9 build/lcdc_rgba8888_mxt_9x60_wvga/debug/_ext/815359854/legato_widget_drawsurface.o
 .debug_str     0x00000000        0x9 build/lcdc_rgba8888_mxt_9x60_wvga/debug/_ext/815359854/legato_widget_drawsurface.o
 .comment       0x00000000       0x2c build/lcdc_rgba8888_mxt_9x60_wvga/debug/_ext/815359854/legato_widget_drawsurface.o
 .ARM.attributes
                0x00000000       0x32 build/lcdc_rgba8888_mxt_9x60_wvga/debug/_ext/815359854/legato_widget_drawsurface.o
 .text          0x00000000        0x0 build/lcdc_rgba8888_mxt_9x60_wvga/debug/_ext/1504997579/legato_widget_gradient_skin_classic.o
 .data          0x00000000        0x0 build/lcdc_rgba8888_mxt_9x60_wvga/debug/_ext/1504997579/legato_widget_gradient_skin_classic.o
 .bss           0x00000000        0x0 build/lcdc_rgba8888_mxt_9x60_wvga/debug/_ext/1504997579/legato_widget_gradient_skin_classic.o
 .debug_info    0x00000000      0x48a build/lcdc_rgba8888_mxt_9x60_wvga/debug/_ext/1504997579/legato_widget_gradient_skin_classic.o
 .debug_abbrev  0x00000000       0xb5 build/lcdc_rgba8888_mxt_9x60_wvga/debug/_ext/1504997579/legato_widget_gradient_skin_classic.o
 .debug_aranges
                0x00000000       0x18 build/lcdc_rgba8888_mxt_9x60_wvga/debug/_ext/1504997579/legato_widget_gradient_skin_classic.o
 .debug_line    0x00000000       0xb9 build/lcdc_rgba8888_mxt_9x60_wvga/debug/_ext/1504997579/legato_widget_gradient_skin_classic.o
 .debug_str     0x00000000        0x9 build/lcdc_rgba8888_mxt_9x60_wvga/debug/_ext/1504997579/legato_widget_gradient_skin_classic.o
 .comment       0x00000000       0x2c build/lcdc_rgba8888_mxt_9x60_wvga/debug/_ext/1504997579/legato_widget_gradient_skin_classic.o
 .ARM.attributes
                0x00000000       0x32 build/lcdc_rgba8888_mxt_9x60_wvga/debug/_ext/1504997579/legato_widget_gradient_skin_classic.o
 .text          0x00000000        0x0 build/lcdc_rgba8888_mxt_9x60_wvga/debug/_ext/1504997579/legato_widget_gradient.o
 .data          0x00000000        0x0 build/lcdc_rgba8888_mxt_9x60_wvga/debug/_ext/1504997579/legato_widget_gradient.o
 .bss           0x00000000        0x0 build/lcdc_rgba8888_mxt_9x60_wvga/debug/_ext/1504997579/legato_widget_gradient.o
 .debug_info    0x00000000      0x47d build/lcdc_rgba8888_mxt_9x60_wvga/debug/_ext/1504997579/legato_widget_gradient.o
 .debug_abbrev  0x00000000       0xb5 build/lcdc_rgba8888_mxt_9x60_wvga/debug/_ext/1504997579/legato_widget_gradient.o
 .debug_aranges
                0x00000000       0x18 build/lcdc_rgba8888_mxt_9x60_wvga/debug/_ext/1504997579/legato_widget_gradient.o
 .debug_line    0x00000000       0xb9 build/lcdc_rgba8888_mxt_9x60_wvga/debug/_ext/1504997579/legato_widget_gradient.o
 .debug_str     0x00000000        0x9 build/lcdc_rgba8888_mxt_9x60_wvga/debug/_ext/1504997579/legato_widget_gradient.o
 .comment       0x00000000       0x2c build/lcdc_rgba8888_mxt_9x60_wvga/debug/_ext/1504997579/legato_widget_gradient.o
 .ARM.attributes
                0x00000000       0x32 build/lcdc_rgba8888_mxt_9x60_wvga/debug/_ext/1504997579/legato_widget_gradient.o
 .text          0x00000000        0x0 build/lcdc_rgba8888_mxt_9x60_wvga/debug/_ext/1921711239/legato_widget_groupbox.o
 .data          0x00000000        0x0 build/lcdc_rgba8888_mxt_9x60_wvga/debug/_ext/1921711239/legato_widget_groupbox.o
 .bss           0x00000000        0x0 build/lcdc_rgba8888_mxt_9x60_wvga/debug/_ext/1921711239/legato_widget_groupbox.o
 .debug_info    0x00000000      0x47d build/lcdc_rgba8888_mxt_9x60_wvga/debug/_ext/1921711239/legato_widget_groupbox.o
 .debug_abbrev  0x00000000       0xb5 build/lcdc_rgba8888_mxt_9x60_wvga/debug/_ext/1921711239/legato_widget_groupbox.o
 .debug_aranges
                0x00000000       0x18 build/lcdc_rgba8888_mxt_9x60_wvga/debug/_ext/1921711239/legato_widget_groupbox.o
 .debug_line    0x00000000       0xb9 build/lcdc_rgba8888_mxt_9x60_wvga/debug/_ext/1921711239/legato_widget_groupbox.o
 .debug_str     0x00000000        0x9 build/lcdc_rgba8888_mxt_9x60_wvga/debug/_ext/1921711239/legato_widget_groupbox.o
 .comment       0x00000000       0x2c build/lcdc_rgba8888_mxt_9x60_wvga/debug/_ext/1921711239/legato_widget_groupbox.o
 .ARM.attributes
                0x00000000       0x32 build/lcdc_rgba8888_mxt_9x60_wvga/debug/_ext/1921711239/legato_widget_groupbox.o
 .text          0x00000000        0x0 build/lcdc_rgba8888_mxt_9x60_wvga/debug/_ext/1921711239/legato_widget_groupbox_skin_classic.o
 .data          0x00000000        0x0 build/lcdc_rgba8888_mxt_9x60_wvga/debug/_ext/1921711239/legato_widget_groupbox_skin_classic.o
 .bss           0x00000000        0x0 build/lcdc_rgba8888_mxt_9x60_wvga/debug/_ext/1921711239/legato_widget_groupbox_skin_classic.o
 .debug_info    0x00000000      0x48a build/lcdc_rgba8888_mxt_9x60_wvga/debug/_ext/1921711239/legato_widget_groupbox_skin_classic.o
 .debug_abbrev  0x00000000       0xb5 build/lcdc_rgba8888_mxt_9x60_wvga/debug/_ext/1921711239/legato_widget_groupbox_skin_classic.o
 .debug_aranges
                0x00000000       0x18 build/lcdc_rgba8888_mxt_9x60_wvga/debug/_ext/1921711239/legato_widget_groupbox_skin_classic.o
 .debug_line    0x00000000       0xb9 build/lcdc_rgba8888_mxt_9x60_wvga/debug/_ext/1921711239/legato_widget_groupbox_skin_classic.o
 .debug_str     0x00000000        0x9 build/lcdc_rgba8888_mxt_9x60_wvga/debug/_ext/1921711239/legato_widget_groupbox_skin_classic.o
 .comment       0x00000000       0x2c build/lcdc_rgba8888_mxt_9x60_wvga/debug/_ext/1921711239/legato_widget_groupbox_skin_classic.o
 .ARM.attributes
                0x00000000       0x32 build/lcdc_rgba8888_mxt_9x60_wvga/debug/_ext/1921711239/legato_widget_groupbox_skin_classic.o
 .text          0x00000000        0x0 build/lcdc_rgba8888_mxt_9x60_wvga/debug/_ext/1808593504/legato_widget_image.o
 .data          0x00000000        0x0 build/lcdc_rgba8888_mxt_9x60_wvga/debug/_ext/1808593504/legato_widget_image.o
 .bss           0x00000000        0x0 build/lcdc_rgba8888_mxt_9x60_wvga/debug/_ext/1808593504/legato_widget_image.o
 .text          0x00000000        0x0 build/lcdc_rgba8888_mxt_9x60_wvga/debug/_ext/1808593504/legato_widget_image_skin_classic.o
 .data          0x00000000        0x0 build/lcdc_rgba8888_mxt_9x60_wvga/debug/_ext/1808593504/legato_widget_image_skin_classic.o
 .bss           0x00000000        0x0 build/lcdc_rgba8888_mxt_9x60_wvga/debug/_ext/1808593504/legato_widget_image_skin_classic.o
 .text          0x00000000        0x0 build/lcdc_rgba8888_mxt_9x60_wvga/debug/_ext/340446469/legato_widget_imagerotate.o
 .data          0x00000000        0x0 build/lcdc_rgba8888_mxt_9x60_wvga/debug/_ext/340446469/legato_widget_imagerotate.o
 .bss           0x00000000        0x0 build/lcdc_rgba8888_mxt_9x60_wvga/debug/_ext/340446469/legato_widget_imagerotate.o
 .debug_info    0x00000000      0x483 build/lcdc_rgba8888_mxt_9x60_wvga/debug/_ext/340446469/legato_widget_imagerotate.o
 .debug_abbrev  0x00000000       0xb5 build/lcdc_rgba8888_mxt_9x60_wvga/debug/_ext/340446469/legato_widget_imagerotate.o
 .debug_aranges
                0x00000000       0x18 build/lcdc_rgba8888_mxt_9x60_wvga/debug/_ext/340446469/legato_widget_imagerotate.o
 .debug_line    0x00000000       0xb9 build/lcdc_rgba8888_mxt_9x60_wvga/debug/_ext/340446469/legato_widget_imagerotate.o
 .debug_str     0x00000000        0x9 build/lcdc_rgba8888_mxt_9x60_wvga/debug/_ext/340446469/legato_widget_imagerotate.o
 .comment       0x00000000       0x2c build/lcdc_rgba8888_mxt_9x60_wvga/debug/_ext/340446469/legato_widget_imagerotate.o
 .ARM.attributes
                0x00000000       0x32 build/lcdc_rgba8888_mxt_9x60_wvga/debug/_ext/340446469/legato_widget_imagerotate.o
 .text          0x00000000        0x0 build/lcdc_rgba8888_mxt_9x60_wvga/debug/_ext/340446469/legato_widget_imagerotate_skin_classic.o
 .data          0x00000000        0x0 build/lcdc_rgba8888_mxt_9x60_wvga/debug/_ext/340446469/legato_widget_imagerotate_skin_classic.o
 .bss           0x00000000        0x0 build/lcdc_rgba8888_mxt_9x60_wvga/debug/_ext/340446469/legato_widget_imagerotate_skin_classic.o
 .debug_info    0x00000000      0x490 build/lcdc_rgba8888_mxt_9x60_wvga/debug/_ext/340446469/legato_widget_imagerotate_skin_classic.o
 .debug_abbrev  0x00000000       0xb5 build/lcdc_rgba8888_mxt_9x60_wvga/debug/_ext/340446469/legato_widget_imagerotate_skin_classic.o
 .debug_aranges
                0x00000000       0x18 build/lcdc_rgba8888_mxt_9x60_wvga/debug/_ext/340446469/legato_widget_imagerotate_skin_classic.o
 .debug_line    0x00000000       0xb9 build/lcdc_rgba8888_mxt_9x60_wvga/debug/_ext/340446469/legato_widget_imagerotate_skin_classic.o
 .debug_str     0x00000000        0x9 build/lcdc_rgba8888_mxt_9x60_wvga/debug/_ext/340446469/legato_widget_imagerotate_skin_classic.o
 .comment       0x00000000       0x2c build/lcdc_rgba8888_mxt_9x60_wvga/debug/_ext/340446469/legato_widget_imagerotate_skin_classic.o
 .ARM.attributes
                0x00000000       0x32 build/lcdc_rgba8888_mxt_9x60_wvga/debug/_ext/340446469/legato_widget_imagerotate_skin_classic.o
 .text          0x00000000        0x0 build/lcdc_rgba8888_mxt_9x60_wvga/debug/_ext/1513586602/legato_widget_imagescale.o
 .data          0x00000000        0x0 build/lcdc_rgba8888_mxt_9x60_wvga/debug/_ext/1513586602/legato_widget_imagescale.o
 .bss           0x00000000        0x0 build/lcdc_rgba8888_mxt_9x60_wvga/debug/_ext/1513586602/legato_widget_imagescale.o
 .debug_info    0x00000000      0x481 build/lcdc_rgba8888_mxt_9x60_wvga/debug/_ext/1513586602/legato_widget_imagescale.o
 .debug_abbrev  0x00000000       0xb5 build/lcdc_rgba8888_mxt_9x60_wvga/debug/_ext/1513586602/legato_widget_imagescale.o
 .debug_aranges
                0x00000000       0x18 build/lcdc_rgba8888_mxt_9x60_wvga/debug/_ext/1513586602/legato_widget_imagescale.o
 .debug_line    0x00000000       0xb9 build/lcdc_rgba8888_mxt_9x60_wvga/debug/_ext/1513586602/legato_widget_imagescale.o
 .debug_str     0x00000000        0x9 build/lcdc_rgba8888_mxt_9x60_wvga/debug/_ext/1513586602/legato_widget_imagescale.o
 .comment       0x00000000       0x2c build/lcdc_rgba8888_mxt_9x60_wvga/debug/_ext/1513586602/legato_widget_imagescale.o
 .ARM.attributes
                0x00000000       0x32 build/lcdc_rgba8888_mxt_9x60_wvga/debug/_ext/1513586602/legato_widget_imagescale.o
 .text          0x00000000        0x0 build/lcdc_rgba8888_mxt_9x60_wvga/debug/_ext/1513586602/legato_widget_imagescale_skin_classic.o
 .data          0x00000000        0x0 build/lcdc_rgba8888_mxt_9x60_wvga/debug/_ext/1513586602/legato_widget_imagescale_skin_classic.o
 .bss           0x00000000        0x0 build/lcdc_rgba8888_mxt_9x60_wvga/debug/_ext/1513586602/legato_widget_imagescale_skin_classic.o
 .debug_info    0x00000000      0x48e build/lcdc_rgba8888_mxt_9x60_wvga/debug/_ext/1513586602/legato_widget_imagescale_skin_classic.o
 .debug_abbrev  0x00000000       0xb5 build/lcdc_rgba8888_mxt_9x60_wvga/debug/_ext/1513586602/legato_widget_imagescale_skin_classic.o
 .debug_aranges
                0x00000000       0x18 build/lcdc_rgba8888_mxt_9x60_wvga/debug/_ext/1513586602/legato_widget_imagescale_skin_classic.o
 .debug_line    0x00000000       0xb9 build/lcdc_rgba8888_mxt_9x60_wvga/debug/_ext/1513586602/legato_widget_imagescale_skin_classic.o
 .debug_str     0x00000000        0x9 build/lcdc_rgba8888_mxt_9x60_wvga/debug/_ext/1513586602/legato_widget_imagescale_skin_classic.o
 .comment       0x00000000       0x2c build/lcdc_rgba8888_mxt_9x60_wvga/debug/_ext/1513586602/legato_widget_imagescale_skin_classic.o
 .ARM.attributes
                0x00000000       0x32 build/lcdc_rgba8888_mxt_9x60_wvga/debug/_ext/1513586602/legato_widget_imagescale_skin_classic.o
 .text          0x00000000        0x0 build/lcdc_rgba8888_mxt_9x60_wvga/debug/_ext/638313825/legato_widget_imagesequence.o
 .data          0x00000000        0x0 build/lcdc_rgba8888_mxt_9x60_wvga/debug/_ext/638313825/legato_widget_imagesequence.o
 .bss           0x00000000        0x0 build/lcdc_rgba8888_mxt_9x60_wvga/debug/_ext/638313825/legato_widget_imagesequence.o
 .debug_info    0x00000000      0x487 build/lcdc_rgba8888_mxt_9x60_wvga/debug/_ext/638313825/legato_widget_imagesequence.o
 .debug_abbrev  0x00000000       0xb5 build/lcdc_rgba8888_mxt_9x60_wvga/debug/_ext/638313825/legato_widget_imagesequence.o
 .debug_aranges
                0x00000000       0x18 build/lcdc_rgba8888_mxt_9x60_wvga/debug/_ext/638313825/legato_widget_imagesequence.o
 .debug_line    0x00000000       0xb9 build/lcdc_rgba8888_mxt_9x60_wvga/debug/_ext/638313825/legato_widget_imagesequence.o
 .debug_str     0x00000000        0x9 build/lcdc_rgba8888_mxt_9x60_wvga/debug/_ext/638313825/legato_widget_imagesequence.o
 .comment       0x00000000       0x2c build/lcdc_rgba8888_mxt_9x60_wvga/debug/_ext/638313825/legato_widget_imagesequence.o
 .ARM.attributes
                0x00000000       0x32 build/lcdc_rgba8888_mxt_9x60_wvga/debug/_ext/638313825/legato_widget_imagesequence.o
 .text          0x00000000        0x0 build/lcdc_rgba8888_mxt_9x60_wvga/debug/_ext/638313825/legato_widget_imagesequence_skin_classic.o
 .data          0x00000000        0x0 build/lcdc_rgba8888_mxt_9x60_wvga/debug/_ext/638313825/legato_widget_imagesequence_skin_classic.o
 .bss           0x00000000        0x0 build/lcdc_rgba8888_mxt_9x60_wvga/debug/_ext/638313825/legato_widget_imagesequence_skin_classic.o
 .debug_info    0x00000000      0x494 build/lcdc_rgba8888_mxt_9x60_wvga/debug/_ext/638313825/legato_widget_imagesequence_skin_classic.o
 .debug_abbrev  0x00000000       0xb5 build/lcdc_rgba8888_mxt_9x60_wvga/debug/_ext/638313825/legato_widget_imagesequence_skin_classic.o
 .debug_aranges
                0x00000000       0x18 build/lcdc_rgba8888_mxt_9x60_wvga/debug/_ext/638313825/legato_widget_imagesequence_skin_classic.o
 .debug_line    0x00000000       0xb9 build/lcdc_rgba8888_mxt_9x60_wvga/debug/_ext/638313825/legato_widget_imagesequence_skin_classic.o
 .debug_str     0x00000000        0x9 build/lcdc_rgba8888_mxt_9x60_wvga/debug/_ext/638313825/legato_widget_imagesequence_skin_classic.o
 .comment       0x00000000       0x2c build/lcdc_rgba8888_mxt_9x60_wvga/debug/_ext/638313825/legato_widget_imagesequence_skin_classic.o
 .ARM.attributes
                0x00000000       0x32 build/lcdc_rgba8888_mxt_9x60_wvga/debug/_ext/638313825/legato_widget_imagesequence_skin_classic.o
 .text          0x00000000        0x0 build/lcdc_rgba8888_mxt_9x60_wvga/debug/_ext/181230033/legato_widget_keypad.o
 .data          0x00000000        0x0 build/lcdc_rgba8888_mxt_9x60_wvga/debug/_ext/181230033/legato_widget_keypad.o
 .bss           0x00000000        0x0 build/lcdc_rgba8888_mxt_9x60_wvga/debug/_ext/181230033/legato_widget_keypad.o
 .debug_info    0x00000000      0xd09 build/lcdc_rgba8888_mxt_9x60_wvga/debug/_ext/181230033/legato_widget_keypad.o
 .debug_abbrev  0x00000000      0x17b build/lcdc_rgba8888_mxt_9x60_wvga/debug/_ext/181230033/legato_widget_keypad.o
 .debug_aranges
                0x00000000       0x18 build/lcdc_rgba8888_mxt_9x60_wvga/debug/_ext/181230033/legato_widget_keypad.o
 .debug_line    0x00000000      0x10f build/lcdc_rgba8888_mxt_9x60_wvga/debug/_ext/181230033/legato_widget_keypad.o
 .debug_str     0x00000000       0x8b build/lcdc_rgba8888_mxt_9x60_wvga/debug/_ext/181230033/legato_widget_keypad.o
 .comment       0x00000000       0x2c build/lcdc_rgba8888_mxt_9x60_wvga/debug/_ext/181230033/legato_widget_keypad.o
 .ARM.attributes
                0x00000000       0x32 build/lcdc_rgba8888_mxt_9x60_wvga/debug/_ext/181230033/legato_widget_keypad.o
 .text          0x00000000        0x0 build/lcdc_rgba8888_mxt_9x60_wvga/debug/_ext/181230033/legato_widget_keypad_skin_classic.o
 .data          0x00000000        0x0 build/lcdc_rgba8888_mxt_9x60_wvga/debug/_ext/181230033/legato_widget_keypad_skin_classic.o
 .bss           0x00000000        0x0 build/lcdc_rgba8888_mxt_9x60_wvga/debug/_ext/181230033/legato_widget_keypad_skin_classic.o
 .debug_info    0x00000000      0x486 build/lcdc_rgba8888_mxt_9x60_wvga/debug/_ext/181230033/legato_widget_keypad_skin_classic.o
 .debug_abbrev  0x00000000       0xb5 build/lcdc_rgba8888_mxt_9x60_wvga/debug/_ext/181230033/legato_widget_keypad_skin_classic.o
 .debug_aranges
                0x00000000       0x18 build/lcdc_rgba8888_mxt_9x60_wvga/debug/_ext/181230033/legato_widget_keypad_skin_classic.o
 .debug_line    0x00000000       0xb9 build/lcdc_rgba8888_mxt_9x60_wvga/debug/_ext/181230033/legato_widget_keypad_skin_classic.o
 .debug_str     0x00000000        0x9 build/lcdc_rgba8888_mxt_9x60_wvga/debug/_ext/181230033/legato_widget_keypad_skin_classic.o
 .comment       0x00000000       0x2c build/lcdc_rgba8888_mxt_9x60_wvga/debug/_ext/181230033/legato_widget_keypad_skin_classic.o
 .ARM.attributes
                0x00000000       0x32 build/lcdc_rgba8888_mxt_9x60_wvga/debug/_ext/181230033/legato_widget_keypad_skin_classic.o
 .text          0x00000000        0x0 build/lcdc_rgba8888_mxt_9x60_wvga/debug/_ext/1806179527/legato_widget_label_skin_classic.o
 .data          0x00000000        0x0 build/lcdc_rgba8888_mxt_9x60_wvga/debug/_ext/1806179527/legato_widget_label_skin_classic.o
 .bss           0x00000000        0x0 build/lcdc_rgba8888_mxt_9x60_wvga/debug/_ext/1806179527/legato_widget_label_skin_classic.o
 .text          0x00000000        0x0 build/lcdc_rgba8888_mxt_9x60_wvga/debug/_ext/1806179527/legato_widget_label.o
 .data          0x00000000        0x0 build/lcdc_rgba8888_mxt_9x60_wvga/debug/_ext/1806179527/legato_widget_label.o
 .bss           0x00000000        0x0 build/lcdc_rgba8888_mxt_9x60_wvga/debug/_ext/1806179527/legato_widget_label.o
 .text          0x00000000        0x0 build/lcdc_rgba8888_mxt_9x60_wvga/debug/_ext/1997918449/legato_widget_line_skin_classic.o
 .data          0x00000000        0x0 build/lcdc_rgba8888_mxt_9x60_wvga/debug/_ext/1997918449/legato_widget_line_skin_classic.o
 .bss           0x00000000        0x0 build/lcdc_rgba8888_mxt_9x60_wvga/debug/_ext/1997918449/legato_widget_line_skin_classic.o
 .debug_info    0x00000000      0x482 build/lcdc_rgba8888_mxt_9x60_wvga/debug/_ext/1997918449/legato_widget_line_skin_classic.o
 .debug_abbrev  0x00000000       0xb5 build/lcdc_rgba8888_mxt_9x60_wvga/debug/_ext/1997918449/legato_widget_line_skin_classic.o
 .debug_aranges
                0x00000000       0x18 build/lcdc_rgba8888_mxt_9x60_wvga/debug/_ext/1997918449/legato_widget_line_skin_classic.o
 .debug_line    0x00000000       0xb9 build/lcdc_rgba8888_mxt_9x60_wvga/debug/_ext/1997918449/legato_widget_line_skin_classic.o
 .debug_str     0x00000000        0x9 build/lcdc_rgba8888_mxt_9x60_wvga/debug/_ext/1997918449/legato_widget_line_skin_classic.o
 .comment       0x00000000       0x2c build/lcdc_rgba8888_mxt_9x60_wvga/debug/_ext/1997918449/legato_widget_line_skin_classic.o
 .ARM.attributes
                0x00000000       0x32 build/lcdc_rgba8888_mxt_9x60_wvga/debug/_ext/1997918449/legato_widget_line_skin_classic.o
 .text          0x00000000        0x0 build/lcdc_rgba8888_mxt_9x60_wvga/debug/_ext/1997918449/legato_widget_line.o
 .data          0x00000000        0x0 build/lcdc_rgba8888_mxt_9x60_wvga/debug/_ext/1997918449/legato_widget_line.o
 .bss           0x00000000        0x0 build/lcdc_rgba8888_mxt_9x60_wvga/debug/_ext/1997918449/legato_widget_line.o
 .debug_info    0x00000000      0x475 build/lcdc_rgba8888_mxt_9x60_wvga/debug/_ext/1997918449/legato_widget_line.o
 .debug_abbrev  0x00000000       0xb5 build/lcdc_rgba8888_mxt_9x60_wvga/debug/_ext/1997918449/legato_widget_line.o
 .debug_aranges
                0x00000000       0x18 build/lcdc_rgba8888_mxt_9x60_wvga/debug/_ext/1997918449/legato_widget_line.o
 .debug_line    0x00000000       0xb9 build/lcdc_rgba8888_mxt_9x60_wvga/debug/_ext/1997918449/legato_widget_line.o
 .debug_str     0x00000000        0x9 build/lcdc_rgba8888_mxt_9x60_wvga/debug/_ext/1997918449/legato_widget_line.o
 .comment       0x00000000       0x2c build/lcdc_rgba8888_mxt_9x60_wvga/debug/_ext/1997918449/legato_widget_line.o
 .ARM.attributes
                0x00000000       0x32 build/lcdc_rgba8888_mxt_9x60_wvga/debug/_ext/1997918449/legato_widget_line.o
 .text          0x00000000        0x0 build/lcdc_rgba8888_mxt_9x60_wvga/debug/_ext/862674017/legato_widget_line_graph.o
 .data          0x00000000        0x0 build/lcdc_rgba8888_mxt_9x60_wvga/debug/_ext/862674017/legato_widget_line_graph.o
 .bss           0x00000000        0x0 build/lcdc_rgba8888_mxt_9x60_wvga/debug/_ext/862674017/legato_widget_line_graph.o
 .debug_info    0x00000000      0xd10 build/lcdc_rgba8888_mxt_9x60_wvga/debug/_ext/862674017/legato_widget_line_graph.o
 .debug_abbrev  0x00000000      0x17b build/lcdc_rgba8888_mxt_9x60_wvga/debug/_ext/862674017/legato_widget_line_graph.o
 .debug_aranges
                0x00000000       0x18 build/lcdc_rgba8888_mxt_9x60_wvga/debug/_ext/862674017/legato_widget_line_graph.o
 .debug_line    0x00000000      0x10f build/lcdc_rgba8888_mxt_9x60_wvga/debug/_ext/862674017/legato_widget_line_graph.o
 .debug_str     0x00000000       0x8b build/lcdc_rgba8888_mxt_9x60_wvga/debug/_ext/862674017/legato_widget_line_graph.o
 .comment       0x00000000       0x2c build/lcdc_rgba8888_mxt_9x60_wvga/debug/_ext/862674017/legato_widget_line_graph.o
 .ARM.attributes
                0x00000000       0x32 build/lcdc_rgba8888_mxt_9x60_wvga/debug/_ext/862674017/legato_widget_line_graph.o
 .text          0x00000000        0x0 build/lcdc_rgba8888_mxt_9x60_wvga/debug/_ext/862674017/legato_widget_line_graph_skin_classic.o
 .data          0x00000000        0x0 build/lcdc_rgba8888_mxt_9x60_wvga/debug/_ext/862674017/legato_widget_line_graph_skin_classic.o
 .bss           0x00000000        0x0 build/lcdc_rgba8888_mxt_9x60_wvga/debug/_ext/862674017/legato_widget_line_graph_skin_classic.o
 .debug_info    0x00000000      0x48d build/lcdc_rgba8888_mxt_9x60_wvga/debug/_ext/862674017/legato_widget_line_graph_skin_classic.o
 .debug_abbrev  0x00000000       0xb5 build/lcdc_rgba8888_mxt_9x60_wvga/debug/_ext/862674017/legato_widget_line_graph_skin_classic.o
 .debug_aranges
                0x00000000       0x18 build/lcdc_rgba8888_mxt_9x60_wvga/debug/_ext/862674017/legato_widget_line_graph_skin_classic.o
 .debug_line    0x00000000       0xb9 build/lcdc_rgba8888_mxt_9x60_wvga/debug/_ext/862674017/legato_widget_line_graph_skin_classic.o
 .debug_str     0x00000000        0x9 build/lcdc_rgba8888_mxt_9x60_wvga/debug/_ext/862674017/legato_widget_line_graph_skin_classic.o
 .comment       0x00000000       0x2c build/lcdc_rgba8888_mxt_9x60_wvga/debug/_ext/862674017/legato_widget_line_graph_skin_classic.o
 .ARM.attributes
                0x00000000       0x32 build/lcdc_rgba8888_mxt_9x60_wvga/debug/_ext/862674017/legato_widget_line_graph_skin_classic.o
 .text          0x00000000        0x0 build/lcdc_rgba8888_mxt_9x60_wvga/debug/_ext/1997918279/legato_widget_list_skin_classic.o
 .data          0x00000000        0x0 build/lcdc_rgba8888_mxt_9x60_wvga/debug/_ext/1997918279/legato_widget_list_skin_classic.o
 .bss           0x00000000        0x0 build/lcdc_rgba8888_mxt_9x60_wvga/debug/_ext/1997918279/legato_widget_list_skin_classic.o
 .debug_info    0x00000000      0x482 build/lcdc_rgba8888_mxt_9x60_wvga/debug/_ext/1997918279/legato_widget_list_skin_classic.o
 .debug_abbrev  0x00000000       0xb5 build/lcdc_rgba8888_mxt_9x60_wvga/debug/_ext/1997918279/legato_widget_list_skin_classic.o
 .debug_aranges
                0x00000000       0x18 build/lcdc_rgba8888_mxt_9x60_wvga/debug/_ext/1997918279/legato_widget_list_skin_classic.o
 .debug_line    0x00000000       0xb9 build/lcdc_rgba8888_mxt_9x60_wvga/debug/_ext/1997918279/legato_widget_list_skin_classic.o
 .debug_str     0x00000000        0x9 build/lcdc_rgba8888_mxt_9x60_wvga/debug/_ext/1997918279/legato_widget_list_skin_classic.o
 .comment       0x00000000       0x2c build/lcdc_rgba8888_mxt_9x60_wvga/debug/_ext/1997918279/legato_widget_list_skin_classic.o
 .ARM.attributes
                0x00000000       0x32 build/lcdc_rgba8888_mxt_9x60_wvga/debug/_ext/1997918279/legato_widget_list_skin_classic.o
 .text          0x00000000        0x0 build/lcdc_rgba8888_mxt_9x60_wvga/debug/_ext/1997918279/legato_widget_list.o
 .data          0x00000000        0x0 build/lcdc_rgba8888_mxt_9x60_wvga/debug/_ext/1997918279/legato_widget_list.o
 .bss           0x00000000        0x0 build/lcdc_rgba8888_mxt_9x60_wvga/debug/_ext/1997918279/legato_widget_list.o
 .debug_info    0x00000000      0xd05 build/lcdc_rgba8888_mxt_9x60_wvga/debug/_ext/1997918279/legato_widget_list.o
 .debug_abbrev  0x00000000      0x17b build/lcdc_rgba8888_mxt_9x60_wvga/debug/_ext/1997918279/legato_widget_list.o
 .debug_aranges
                0x00000000       0x18 build/lcdc_rgba8888_mxt_9x60_wvga/debug/_ext/1997918279/legato_widget_list.o
 .debug_line    0x00000000      0x10f build/lcdc_rgba8888_mxt_9x60_wvga/debug/_ext/1997918279/legato_widget_list.o
 .debug_str     0x00000000       0x8b build/lcdc_rgba8888_mxt_9x60_wvga/debug/_ext/1997918279/legato_widget_list.o
 .comment       0x00000000       0x2c build/lcdc_rgba8888_mxt_9x60_wvga/debug/_ext/1997918279/legato_widget_list.o
 .ARM.attributes
                0x00000000       0x32 build/lcdc_rgba8888_mxt_9x60_wvga/debug/_ext/1997918279/legato_widget_list.o
 .text          0x00000000        0x0 build/lcdc_rgba8888_mxt_9x60_wvga/debug/_ext/276203710/legato_widget_listwheel_skin_classic.o
 .data          0x00000000        0x0 build/lcdc_rgba8888_mxt_9x60_wvga/debug/_ext/276203710/legato_widget_listwheel_skin_classic.o
 .bss           0x00000000        0x0 build/lcdc_rgba8888_mxt_9x60_wvga/debug/_ext/276203710/legato_widget_listwheel_skin_classic.o
 .debug_info    0x00000000      0x48c build/lcdc_rgba8888_mxt_9x60_wvga/debug/_ext/276203710/legato_widget_listwheel_skin_classic.o
 .debug_abbrev  0x00000000       0xb5 build/lcdc_rgba8888_mxt_9x60_wvga/debug/_ext/276203710/legato_widget_listwheel_skin_classic.o
 .debug_aranges
                0x00000000       0x18 build/lcdc_rgba8888_mxt_9x60_wvga/debug/_ext/276203710/legato_widget_listwheel_skin_classic.o
 .debug_line    0x00000000       0xb9 build/lcdc_rgba8888_mxt_9x60_wvga/debug/_ext/276203710/legato_widget_listwheel_skin_classic.o
 .debug_str     0x00000000        0x9 build/lcdc_rgba8888_mxt_9x60_wvga/debug/_ext/276203710/legato_widget_listwheel_skin_classic.o
 .comment       0x00000000       0x2c build/lcdc_rgba8888_mxt_9x60_wvga/debug/_ext/276203710/legato_widget_listwheel_skin_classic.o
 .ARM.attributes
                0x00000000       0x32 build/lcdc_rgba8888_mxt_9x60_wvga/debug/_ext/276203710/legato_widget_listwheel_skin_classic.o
 .text          0x00000000        0x0 build/lcdc_rgba8888_mxt_9x60_wvga/debug/_ext/276203710/legato_widget_listwheel.o
 .data          0x00000000        0x0 build/lcdc_rgba8888_mxt_9x60_wvga/debug/_ext/276203710/legato_widget_listwheel.o
 .bss           0x00000000        0x0 build/lcdc_rgba8888_mxt_9x60_wvga/debug/_ext/276203710/legato_widget_listwheel.o
 .debug_info    0x00000000      0xd0f build/lcdc_rgba8888_mxt_9x60_wvga/debug/_ext/276203710/legato_widget_listwheel.o
 .debug_abbrev  0x00000000      0x17b build/lcdc_rgba8888_mxt_9x60_wvga/debug/_ext/276203710/legato_widget_listwheel.o
 .debug_aranges
                0x00000000       0x18 build/lcdc_rgba8888_mxt_9x60_wvga/debug/_ext/276203710/legato_widget_listwheel.o
 .debug_line    0x00000000      0x10f build/lcdc_rgba8888_mxt_9x60_wvga/debug/_ext/276203710/legato_widget_listwheel.o
 .debug_str     0x00000000       0x8b build/lcdc_rgba8888_mxt_9x60_wvga/debug/_ext/276203710/legato_widget_listwheel.o
 .comment       0x00000000       0x2c build/lcdc_rgba8888_mxt_9x60_wvga/debug/_ext/276203710/legato_widget_listwheel.o
 .ARM.attributes
                0x00000000       0x32 build/lcdc_rgba8888_mxt_9x60_wvga/debug/_ext/276203710/legato_widget_listwheel.o
 .text          0x00000000        0x0 build/lcdc_rgba8888_mxt_9x60_wvga/debug/_ext/726382445/legato_widget_pie_chart_skin_classic.o
 .data          0x00000000        0x0 build/lcdc_rgba8888_mxt_9x60_wvga/debug/_ext/726382445/legato_widget_pie_chart_skin_classic.o
 .bss           0x00000000        0x0 build/lcdc_rgba8888_mxt_9x60_wvga/debug/_ext/726382445/legato_widget_pie_chart_skin_classic.o
 .debug_info    0x00000000      0x48b build/lcdc_rgba8888_mxt_9x60_wvga/debug/_ext/726382445/legato_widget_pie_chart_skin_classic.o
 .debug_abbrev  0x00000000       0xb5 build/lcdc_rgba8888_mxt_9x60_wvga/debug/_ext/726382445/legato_widget_pie_chart_skin_classic.o
 .debug_aranges
                0x00000000       0x18 build/lcdc_rgba8888_mxt_9x60_wvga/debug/_ext/726382445/legato_widget_pie_chart_skin_classic.o
 .debug_line    0x00000000       0xb9 build/lcdc_rgba8888_mxt_9x60_wvga/debug/_ext/726382445/legato_widget_pie_chart_skin_classic.o
 .debug_str     0x00000000        0x9 build/lcdc_rgba8888_mxt_9x60_wvga/debug/_ext/726382445/legato_widget_pie_chart_skin_classic.o
 .comment       0x00000000       0x2c build/lcdc_rgba8888_mxt_9x60_wvga/debug/_ext/726382445/legato_widget_pie_chart_skin_classic.o
 .ARM.attributes
                0x00000000       0x32 build/lcdc_rgba8888_mxt_9x60_wvga/debug/_ext/726382445/legato_widget_pie_chart_skin_classic.o
 .text          0x00000000        0x0 build/lcdc_rgba8888_mxt_9x60_wvga/debug/_ext/726382445/legato_widget_pie_chart.o
 .data          0x00000000        0x0 build/lcdc_rgba8888_mxt_9x60_wvga/debug/_ext/726382445/legato_widget_pie_chart.o
 .bss           0x00000000        0x0 build/lcdc_rgba8888_mxt_9x60_wvga/debug/_ext/726382445/legato_widget_pie_chart.o
 .debug_info    0x00000000      0x47e build/lcdc_rgba8888_mxt_9x60_wvga/debug/_ext/726382445/legato_widget_pie_chart.o
 .debug_abbrev  0x00000000       0xb5 build/lcdc_rgba8888_mxt_9x60_wvga/debug/_ext/726382445/legato_widget_pie_chart.o
 .debug_aranges
                0x00000000       0x18 build/lcdc_rgba8888_mxt_9x60_wvga/debug/_ext/726382445/legato_widget_pie_chart.o
 .debug_line    0x00000000       0xb9 build/lcdc_rgba8888_mxt_9x60_wvga/debug/_ext/726382445/legato_widget_pie_chart.o
 .debug_str     0x00000000        0x9 build/lcdc_rgba8888_mxt_9x60_wvga/debug/_ext/726382445/legato_widget_pie_chart.o
 .comment       0x00000000       0x2c build/lcdc_rgba8888_mxt_9x60_wvga/debug/_ext/726382445/legato_widget_pie_chart.o
 .ARM.attributes
                0x00000000       0x32 build/lcdc_rgba8888_mxt_9x60_wvga/debug/_ext/726382445/legato_widget_pie_chart.o
 .text          0x00000000        0x0 build/lcdc_rgba8888_mxt_9x60_wvga/debug/_ext/2027768651/legato_widget_progressbar.o
 .data          0x00000000        0x0 build/lcdc_rgba8888_mxt_9x60_wvga/debug/_ext/2027768651/legato_widget_progressbar.o
 .bss           0x00000000        0x0 build/lcdc_rgba8888_mxt_9x60_wvga/debug/_ext/2027768651/legato_widget_progressbar.o
 .debug_info    0x00000000      0xd13 build/lcdc_rgba8888_mxt_9x60_wvga/debug/_ext/2027768651/legato_widget_progressbar.o
 .debug_abbrev  0x00000000      0x17b build/lcdc_rgba8888_mxt_9x60_wvga/debug/_ext/2027768651/legato_widget_progressbar.o
 .debug_aranges
                0x00000000       0x18 build/lcdc_rgba8888_mxt_9x60_wvga/debug/_ext/2027768651/legato_widget_progressbar.o
 .debug_line    0x00000000      0x10f build/lcdc_rgba8888_mxt_9x60_wvga/debug/_ext/2027768651/legato_widget_progressbar.o
 .debug_str     0x00000000       0x8b build/lcdc_rgba8888_mxt_9x60_wvga/debug/_ext/2027768651/legato_widget_progressbar.o
 .comment       0x00000000       0x2c build/lcdc_rgba8888_mxt_9x60_wvga/debug/_ext/2027768651/legato_widget_progressbar.o
 .ARM.attributes
                0x00000000       0x32 build/lcdc_rgba8888_mxt_9x60_wvga/debug/_ext/2027768651/legato_widget_progressbar.o
 .text          0x00000000        0x0 build/lcdc_rgba8888_mxt_9x60_wvga/debug/_ext/2027768651/legato_widget_progressbar_skin_classic.o
 .data          0x00000000        0x0 build/lcdc_rgba8888_mxt_9x60_wvga/debug/_ext/2027768651/legato_widget_progressbar_skin_classic.o
 .bss           0x00000000        0x0 build/lcdc_rgba8888_mxt_9x60_wvga/debug/_ext/2027768651/legato_widget_progressbar_skin_classic.o
 .debug_info    0x00000000      0x490 build/lcdc_rgba8888_mxt_9x60_wvga/debug/_ext/2027768651/legato_widget_progressbar_skin_classic.o
 .debug_abbrev  0x00000000       0xb5 build/lcdc_rgba8888_mxt_9x60_wvga/debug/_ext/2027768651/legato_widget_progressbar_skin_classic.o
 .debug_aranges
                0x00000000       0x18 build/lcdc_rgba8888_mxt_9x60_wvga/debug/_ext/2027768651/legato_widget_progressbar_skin_classic.o
 .debug_line    0x00000000       0xb9 build/lcdc_rgba8888_mxt_9x60_wvga/debug/_ext/2027768651/legato_widget_progressbar_skin_classic.o
 .debug_str     0x00000000        0x9 build/lcdc_rgba8888_mxt_9x60_wvga/debug/_ext/2027768651/legato_widget_progressbar_skin_classic.o
 .comment       0x00000000       0x2c build/lcdc_rgba8888_mxt_9x60_wvga/debug/_ext/2027768651/legato_widget_progressbar_skin_classic.o
 .ARM.attributes
                0x00000000       0x32 build/lcdc_rgba8888_mxt_9x60_wvga/debug/_ext/2027768651/legato_widget_progressbar_skin_classic.o
 .text          0x00000000        0x0 build/lcdc_rgba8888_mxt_9x60_wvga/debug/_ext/1747593511/legato_widget_radial_menu_skin_classic.o
 .data          0x00000000        0x0 build/lcdc_rgba8888_mxt_9x60_wvga/debug/_ext/1747593511/legato_widget_radial_menu_skin_classic.o
 .bss           0x00000000        0x0 build/lcdc_rgba8888_mxt_9x60_wvga/debug/_ext/1747593511/legato_widget_radial_menu_skin_classic.o
 .debug_info    0x00000000      0xd1f build/lcdc_rgba8888_mxt_9x60_wvga/debug/_ext/1747593511/legato_widget_radial_menu_skin_classic.o
 .debug_abbrev  0x00000000      0x17b build/lcdc_rgba8888_mxt_9x60_wvga/debug/_ext/1747593511/legato_widget_radial_menu_skin_classic.o
 .debug_aranges
                0x00000000       0x18 build/lcdc_rgba8888_mxt_9x60_wvga/debug/_ext/1747593511/legato_widget_radial_menu_skin_classic.o
 .debug_line    0x00000000      0x10f build/lcdc_rgba8888_mxt_9x60_wvga/debug/_ext/1747593511/legato_widget_radial_menu_skin_classic.o
 .debug_str     0x00000000       0x8b build/lcdc_rgba8888_mxt_9x60_wvga/debug/_ext/1747593511/legato_widget_radial_menu_skin_classic.o
 .comment       0x00000000       0x2c build/lcdc_rgba8888_mxt_9x60_wvga/debug/_ext/1747593511/legato_widget_radial_menu_skin_classic.o
 .ARM.attributes
                0x00000000       0x32 build/lcdc_rgba8888_mxt_9x60_wvga/debug/_ext/1747593511/legato_widget_radial_menu_skin_classic.o
 .text          0x00000000        0x0 build/lcdc_rgba8888_mxt_9x60_wvga/debug/_ext/1747593511/legato_widget_radial_menu.o
 .data          0x00000000        0x0 build/lcdc_rgba8888_mxt_9x60_wvga/debug/_ext/1747593511/legato_widget_radial_menu.o
 .bss           0x00000000        0x0 build/lcdc_rgba8888_mxt_9x60_wvga/debug/_ext/1747593511/legato_widget_radial_menu.o
 .debug_info    0x00000000      0xd12 build/lcdc_rgba8888_mxt_9x60_wvga/debug/_ext/1747593511/legato_widget_radial_menu.o
 .debug_abbrev  0x00000000      0x17b build/lcdc_rgba8888_mxt_9x60_wvga/debug/_ext/1747593511/legato_widget_radial_menu.o
 .debug_aranges
                0x00000000       0x18 build/lcdc_rgba8888_mxt_9x60_wvga/debug/_ext/1747593511/legato_widget_radial_menu.o
 .debug_line    0x00000000      0x10f build/lcdc_rgba8888_mxt_9x60_wvga/debug/_ext/1747593511/legato_widget_radial_menu.o
 .debug_str     0x00000000       0x8b build/lcdc_rgba8888_mxt_9x60_wvga/debug/_ext/1747593511/legato_widget_radial_menu.o
 .comment       0x00000000       0x2c build/lcdc_rgba8888_mxt_9x60_wvga/debug/_ext/1747593511/legato_widget_radial_menu.o
 .ARM.attributes
                0x00000000       0x32 build/lcdc_rgba8888_mxt_9x60_wvga/debug/_ext/1747593511/legato_widget_radial_menu.o
 .text          0x00000000        0x0 build/lcdc_rgba8888_mxt_9x60_wvga/debug/_ext/1747593511/legato_widget_radial_menu_state.o
 .data          0x00000000        0x0 build/lcdc_rgba8888_mxt_9x60_wvga/debug/_ext/1747593511/legato_widget_radial_menu_state.o
 .bss           0x00000000        0x0 build/lcdc_rgba8888_mxt_9x60_wvga/debug/_ext/1747593511/legato_widget_radial_menu_state.o
 .debug_info    0x00000000      0xd18 build/lcdc_rgba8888_mxt_9x60_wvga/debug/_ext/1747593511/legato_widget_radial_menu_state.o
 .debug_abbrev  0x00000000      0x17b build/lcdc_rgba8888_mxt_9x60_wvga/debug/_ext/1747593511/legato_widget_radial_menu_state.o
 .debug_aranges
                0x00000000       0x18 build/lcdc_rgba8888_mxt_9x60_wvga/debug/_ext/1747593511/legato_widget_radial_menu_state.o
 .debug_line    0x00000000      0x10f build/lcdc_rgba8888_mxt_9x60_wvga/debug/_ext/1747593511/legato_widget_radial_menu_state.o
 .debug_str     0x00000000       0x8b build/lcdc_rgba8888_mxt_9x60_wvga/debug/_ext/1747593511/legato_widget_radial_menu_state.o
 .comment       0x00000000       0x2c build/lcdc_rgba8888_mxt_9x60_wvga/debug/_ext/1747593511/legato_widget_radial_menu_state.o
 .ARM.attributes
                0x00000000       0x32 build/lcdc_rgba8888_mxt_9x60_wvga/debug/_ext/1747593511/legato_widget_radial_menu_state.o
 .text          0x00000000        0x0 build/lcdc_rgba8888_mxt_9x60_wvga/debug/_ext/920874866/legato_radiobutton_group.o
 .data          0x00000000        0x0 build/lcdc_rgba8888_mxt_9x60_wvga/debug/_ext/920874866/legato_radiobutton_group.o
 .bss           0x00000000        0x0 build/lcdc_rgba8888_mxt_9x60_wvga/debug/_ext/920874866/legato_radiobutton_group.o
 .debug_info    0x00000000      0x482 build/lcdc_rgba8888_mxt_9x60_wvga/debug/_ext/920874866/legato_radiobutton_group.o
 .debug_abbrev  0x00000000       0xb5 build/lcdc_rgba8888_mxt_9x60_wvga/debug/_ext/920874866/legato_radiobutton_group.o
 .debug_aranges
                0x00000000       0x18 build/lcdc_rgba8888_mxt_9x60_wvga/debug/_ext/920874866/legato_radiobutton_group.o
 .debug_line    0x00000000       0xb9 build/lcdc_rgba8888_mxt_9x60_wvga/debug/_ext/920874866/legato_radiobutton_group.o
 .debug_str     0x00000000        0x9 build/lcdc_rgba8888_mxt_9x60_wvga/debug/_ext/920874866/legato_radiobutton_group.o
 .comment       0x00000000       0x2c build/lcdc_rgba8888_mxt_9x60_wvga/debug/_ext/920874866/legato_radiobutton_group.o
 .ARM.attributes
                0x00000000       0x32 build/lcdc_rgba8888_mxt_9x60_wvga/debug/_ext/920874866/legato_radiobutton_group.o
 .text          0x00000000        0x0 build/lcdc_rgba8888_mxt_9x60_wvga/debug/_ext/920874866/legato_widget_radiobutton.o
 .data          0x00000000        0x0 build/lcdc_rgba8888_mxt_9x60_wvga/debug/_ext/920874866/legato_widget_radiobutton.o
 .bss           0x00000000        0x0 build/lcdc_rgba8888_mxt_9x60_wvga/debug/_ext/920874866/legato_widget_radiobutton.o
 .debug_info    0x00000000      0xd13 build/lcdc_rgba8888_mxt_9x60_wvga/debug/_ext/920874866/legato_widget_radiobutton.o
 .debug_abbrev  0x00000000      0x17b build/lcdc_rgba8888_mxt_9x60_wvga/debug/_ext/920874866/legato_widget_radiobutton.o
 .debug_aranges
                0x00000000       0x18 build/lcdc_rgba8888_mxt_9x60_wvga/debug/_ext/920874866/legato_widget_radiobutton.o
 .debug_line    0x00000000      0x10f build/lcdc_rgba8888_mxt_9x60_wvga/debug/_ext/920874866/legato_widget_radiobutton.o
 .debug_str     0x00000000       0x8b build/lcdc_rgba8888_mxt_9x60_wvga/debug/_ext/920874866/legato_widget_radiobutton.o
 .comment       0x00000000       0x2c build/lcdc_rgba8888_mxt_9x60_wvga/debug/_ext/920874866/legato_widget_radiobutton.o
 .ARM.attributes
                0x00000000       0x32 build/lcdc_rgba8888_mxt_9x60_wvga/debug/_ext/920874866/legato_widget_radiobutton.o
 .text          0x00000000        0x0 build/lcdc_rgba8888_mxt_9x60_wvga/debug/_ext/920874866/legato_widget_radiobutton_skin_classic.o
 .data          0x00000000        0x0 build/lcdc_rgba8888_mxt_9x60_wvga/debug/_ext/920874866/legato_widget_radiobutton_skin_classic.o
 .bss           0x00000000        0x0 build/lcdc_rgba8888_mxt_9x60_wvga/debug/_ext/920874866/legato_widget_radiobutton_skin_classic.o
 .debug_info    0x00000000      0x490 build/lcdc_rgba8888_mxt_9x60_wvga/debug/_ext/920874866/legato_widget_radiobutton_skin_classic.o
 .debug_abbrev  0x00000000       0xb5 build/lcdc_rgba8888_mxt_9x60_wvga/debug/_ext/920874866/legato_widget_radiobutton_skin_classic.o
 .debug_aranges
                0x00000000       0x18 build/lcdc_rgba8888_mxt_9x60_wvga/debug/_ext/920874866/legato_widget_radiobutton_skin_classic.o
 .debug_line    0x00000000       0xb9 build/lcdc_rgba8888_mxt_9x60_wvga/debug/_ext/920874866/legato_widget_radiobutton_skin_classic.o
 .debug_str     0x00000000        0x9 build/lcdc_rgba8888_mxt_9x60_wvga/debug/_ext/920874866/legato_widget_radiobutton_skin_classic.o
 .comment       0x00000000       0x2c build/lcdc_rgba8888_mxt_9x60_wvga/debug/_ext/920874866/legato_widget_radiobutton_skin_classic.o
 .ARM.attributes
                0x00000000       0x32 build/lcdc_rgba8888_mxt_9x60_wvga/debug/_ext/920874866/legato_widget_radiobutton_skin_classic.o
 .text          0x00000000        0x0 build/lcdc_rgba8888_mxt_9x60_wvga/debug/_ext/2047371060/legato_widget_rectangle_skin_classic.o
 .data          0x00000000        0x0 build/lcdc_rgba8888_mxt_9x60_wvga/debug/_ext/2047371060/legato_widget_rectangle_skin_classic.o
 .bss           0x00000000        0x0 build/lcdc_rgba8888_mxt_9x60_wvga/debug/_ext/2047371060/legato_widget_rectangle_skin_classic.o
 .text          0x00000000        0x0 build/lcdc_rgba8888_mxt_9x60_wvga/debug/_ext/2047371060/legato_widget_rectangle.o
 .data          0x00000000        0x0 build/lcdc_rgba8888_mxt_9x60_wvga/debug/_ext/2047371060/legato_widget_rectangle.o
 .bss           0x00000000        0x0 build/lcdc_rgba8888_mxt_9x60_wvga/debug/_ext/2047371060/legato_widget_rectangle.o
 .text          0x00000000        0x0 build/lcdc_rgba8888_mxt_9x60_wvga/debug/_ext/1343864811/legato_widget_scrollbar_skin_classic.o
 .data          0x00000000        0x0 build/lcdc_rgba8888_mxt_9x60_wvga/debug/_ext/1343864811/legato_widget_scrollbar_skin_classic.o
 .bss           0x00000000        0x0 build/lcdc_rgba8888_mxt_9x60_wvga/debug/_ext/1343864811/legato_widget_scrollbar_skin_classic.o
 .debug_info    0x00000000      0x48c build/lcdc_rgba8888_mxt_9x60_wvga/debug/_ext/1343864811/legato_widget_scrollbar_skin_classic.o
 .debug_abbrev  0x00000000       0xb5 build/lcdc_rgba8888_mxt_9x60_wvga/debug/_ext/1343864811/legato_widget_scrollbar_skin_classic.o
 .debug_aranges
                0x00000000       0x18 build/lcdc_rgba8888_mxt_9x60_wvga/debug/_ext/1343864811/legato_widget_scrollbar_skin_classic.o
 .debug_line    0x00000000       0xb9 build/lcdc_rgba8888_mxt_9x60_wvga/debug/_ext/1343864811/legato_widget_scrollbar_skin_classic.o
 .debug_str     0x00000000        0x9 build/lcdc_rgba8888_mxt_9x60_wvga/debug/_ext/1343864811/legato_widget_scrollbar_skin_classic.o
 .comment       0x00000000       0x2c build/lcdc_rgba8888_mxt_9x60_wvga/debug/_ext/1343864811/legato_widget_scrollbar_skin_classic.o
 .ARM.attributes
                0x00000000       0x32 build/lcdc_rgba8888_mxt_9x60_wvga/debug/_ext/1343864811/legato_widget_scrollbar_skin_classic.o
 .text          0x00000000        0x0 build/lcdc_rgba8888_mxt_9x60_wvga/debug/_ext/1343864811/legato_widget_scrollbar.o
 .data          0x00000000        0x0 build/lcdc_rgba8888_mxt_9x60_wvga/debug/_ext/1343864811/legato_widget_scrollbar.o
 .bss           0x00000000        0x0 build/lcdc_rgba8888_mxt_9x60_wvga/debug/_ext/1343864811/legato_widget_scrollbar.o
 .debug_info    0x00000000      0xd0f build/lcdc_rgba8888_mxt_9x60_wvga/debug/_ext/1343864811/legato_widget_scrollbar.o
 .debug_abbrev  0x00000000      0x17b build/lcdc_rgba8888_mxt_9x60_wvga/debug/_ext/1343864811/legato_widget_scrollbar.o
 .debug_aranges
                0x00000000       0x18 build/lcdc_rgba8888_mxt_9x60_wvga/debug/_ext/1343864811/legato_widget_scrollbar.o
 .debug_line    0x00000000      0x10f build/lcdc_rgba8888_mxt_9x60_wvga/debug/_ext/1343864811/legato_widget_scrollbar.o
 .debug_str     0x00000000       0x8b build/lcdc_rgba8888_mxt_9x60_wvga/debug/_ext/1343864811/legato_widget_scrollbar.o
 .comment       0x00000000       0x2c build/lcdc_rgba8888_mxt_9x60_wvga/debug/_ext/1343864811/legato_widget_scrollbar.o
 .ARM.attributes
                0x00000000       0x32 build/lcdc_rgba8888_mxt_9x60_wvga/debug/_ext/1343864811/legato_widget_scrollbar.o
 .text          0x00000000        0x0 build/lcdc_rgba8888_mxt_9x60_wvga/debug/_ext/53779772/legato_widget_slider_skin_classic.o
 .data          0x00000000        0x0 build/lcdc_rgba8888_mxt_9x60_wvga/debug/_ext/53779772/legato_widget_slider_skin_classic.o
 .bss           0x00000000        0x0 build/lcdc_rgba8888_mxt_9x60_wvga/debug/_ext/53779772/legato_widget_slider_skin_classic.o
 .debug_info    0x00000000      0x486 build/lcdc_rgba8888_mxt_9x60_wvga/debug/_ext/53779772/legato_widget_slider_skin_classic.o
 .debug_abbrev  0x00000000       0xb5 build/lcdc_rgba8888_mxt_9x60_wvga/debug/_ext/53779772/legato_widget_slider_skin_classic.o
 .debug_aranges
                0x00000000       0x18 build/lcdc_rgba8888_mxt_9x60_wvga/debug/_ext/53779772/legato_widget_slider_skin_classic.o
 .debug_line    0x00000000       0xb9 build/lcdc_rgba8888_mxt_9x60_wvga/debug/_ext/53779772/legato_widget_slider_skin_classic.o
 .debug_str     0x00000000        0x9 build/lcdc_rgba8888_mxt_9x60_wvga/debug/_ext/53779772/legato_widget_slider_skin_classic.o
 .comment       0x00000000       0x2c build/lcdc_rgba8888_mxt_9x60_wvga/debug/_ext/53779772/legato_widget_slider_skin_classic.o
 .ARM.attributes
                0x00000000       0x32 build/lcdc_rgba8888_mxt_9x60_wvga/debug/_ext/53779772/legato_widget_slider_skin_classic.o
 .text          0x00000000        0x0 build/lcdc_rgba8888_mxt_9x60_wvga/debug/_ext/53779772/legato_widget_slider.o
 .data          0x00000000        0x0 build/lcdc_rgba8888_mxt_9x60_wvga/debug/_ext/53779772/legato_widget_slider.o
 .bss           0x00000000        0x0 build/lcdc_rgba8888_mxt_9x60_wvga/debug/_ext/53779772/legato_widget_slider.o
 .debug_info    0x00000000      0xd09 build/lcdc_rgba8888_mxt_9x60_wvga/debug/_ext/53779772/legato_widget_slider.o
 .debug_abbrev  0x00000000      0x17b build/lcdc_rgba8888_mxt_9x60_wvga/debug/_ext/53779772/legato_widget_slider.o
 .debug_aranges
                0x00000000       0x18 build/lcdc_rgba8888_mxt_9x60_wvga/debug/_ext/53779772/legato_widget_slider.o
 .debug_line    0x00000000      0x10f build/lcdc_rgba8888_mxt_9x60_wvga/debug/_ext/53779772/legato_widget_slider.o
 .debug_str     0x00000000       0x8b build/lcdc_rgba8888_mxt_9x60_wvga/debug/_ext/53779772/legato_widget_slider.o
 .comment       0x00000000       0x2c build/lcdc_rgba8888_mxt_9x60_wvga/debug/_ext/53779772/legato_widget_slider.o
 .ARM.attributes
                0x00000000       0x32 build/lcdc_rgba8888_mxt_9x60_wvga/debug/_ext/53779772/legato_widget_slider.o
 .text          0x00000000        0x0 build/lcdc_rgba8888_mxt_9x60_wvga/debug/_ext/105363022/legato_widget_textfield_skin_classic.o
 .data          0x00000000        0x0 build/lcdc_rgba8888_mxt_9x60_wvga/debug/_ext/105363022/legato_widget_textfield_skin_classic.o
 .bss           0x00000000        0x0 build/lcdc_rgba8888_mxt_9x60_wvga/debug/_ext/105363022/legato_widget_textfield_skin_classic.o
 .debug_info    0x00000000      0xd1c build/lcdc_rgba8888_mxt_9x60_wvga/debug/_ext/105363022/legato_widget_textfield_skin_classic.o
 .debug_abbrev  0x00000000      0x17b build/lcdc_rgba8888_mxt_9x60_wvga/debug/_ext/105363022/legato_widget_textfield_skin_classic.o
 .debug_aranges
                0x00000000       0x18 build/lcdc_rgba8888_mxt_9x60_wvga/debug/_ext/105363022/legato_widget_textfield_skin_classic.o
 .debug_line    0x00000000      0x10f build/lcdc_rgba8888_mxt_9x60_wvga/debug/_ext/105363022/legato_widget_textfield_skin_classic.o
 .debug_str     0x00000000       0x8b build/lcdc_rgba8888_mxt_9x60_wvga/debug/_ext/105363022/legato_widget_textfield_skin_classic.o
 .comment       0x00000000       0x2c build/lcdc_rgba8888_mxt_9x60_wvga/debug/_ext/105363022/legato_widget_textfield_skin_classic.o
 .ARM.attributes
                0x00000000       0x32 build/lcdc_rgba8888_mxt_9x60_wvga/debug/_ext/105363022/legato_widget_textfield_skin_classic.o
 .text          0x00000000        0x0 build/lcdc_rgba8888_mxt_9x60_wvga/debug/_ext/105363022/legato_widget_textfield.o
 .data          0x00000000        0x0 build/lcdc_rgba8888_mxt_9x60_wvga/debug/_ext/105363022/legato_widget_textfield.o
 .bss           0x00000000        0x0 build/lcdc_rgba8888_mxt_9x60_wvga/debug/_ext/105363022/legato_widget_textfield.o
 .debug_info    0x00000000      0xd0f build/lcdc_rgba8888_mxt_9x60_wvga/debug/_ext/105363022/legato_widget_textfield.o
 .debug_abbrev  0x00000000      0x17b build/lcdc_rgba8888_mxt_9x60_wvga/debug/_ext/105363022/legato_widget_textfield.o
 .debug_aranges
                0x00000000       0x18 build/lcdc_rgba8888_mxt_9x60_wvga/debug/_ext/105363022/legato_widget_textfield.o
 .debug_line    0x00000000      0x10f build/lcdc_rgba8888_mxt_9x60_wvga/debug/_ext/105363022/legato_widget_textfield.o
 .debug_str     0x00000000       0x8b build/lcdc_rgba8888_mxt_9x60_wvga/debug/_ext/105363022/legato_widget_textfield.o
 .comment       0x00000000       0x2c build/lcdc_rgba8888_mxt_9x60_wvga/debug/_ext/105363022/legato_widget_textfield.o
 .ARM.attributes
                0x00000000       0x32 build/lcdc_rgba8888_mxt_9x60_wvga/debug/_ext/105363022/legato_widget_textfield.o
 .text          0x00000000        0x0 build/lcdc_rgba8888_mxt_9x60_wvga/debug/_ext/1290806806/legato_widget_touchtest.o
 .data          0x00000000        0x0 build/lcdc_rgba8888_mxt_9x60_wvga/debug/_ext/1290806806/legato_widget_touchtest.o
 .bss           0x00000000        0x0 build/lcdc_rgba8888_mxt_9x60_wvga/debug/_ext/1290806806/legato_widget_touchtest.o
 .debug_info    0x00000000      0x47f build/lcdc_rgba8888_mxt_9x60_wvga/debug/_ext/1290806806/legato_widget_touchtest.o
 .debug_abbrev  0x00000000       0xb5 build/lcdc_rgba8888_mxt_9x60_wvga/debug/_ext/1290806806/legato_widget_touchtest.o
 .debug_aranges
                0x00000000       0x18 build/lcdc_rgba8888_mxt_9x60_wvga/debug/_ext/1290806806/legato_widget_touchtest.o
 .debug_line    0x00000000       0xb9 build/lcdc_rgba8888_mxt_9x60_wvga/debug/_ext/1290806806/legato_widget_touchtest.o
 .debug_str     0x00000000        0x9 build/lcdc_rgba8888_mxt_9x60_wvga/debug/_ext/1290806806/legato_widget_touchtest.o
 .comment       0x00000000       0x2c build/lcdc_rgba8888_mxt_9x60_wvga/debug/_ext/1290806806/legato_widget_touchtest.o
 .ARM.attributes
                0x00000000       0x32 build/lcdc_rgba8888_mxt_9x60_wvga/debug/_ext/1290806806/legato_widget_touchtest.o
 .text          0x00000000        0x0 build/lcdc_rgba8888_mxt_9x60_wvga/debug/_ext/1290806806/legato_widget_touchtest_skin_classic.o
 .data          0x00000000        0x0 build/lcdc_rgba8888_mxt_9x60_wvga/debug/_ext/1290806806/legato_widget_touchtest_skin_classic.o
 .bss           0x00000000        0x0 build/lcdc_rgba8888_mxt_9x60_wvga/debug/_ext/1290806806/legato_widget_touchtest_skin_classic.o
 .debug_info    0x00000000      0xd1c build/lcdc_rgba8888_mxt_9x60_wvga/debug/_ext/1290806806/legato_widget_touchtest_skin_classic.o
 .debug_abbrev  0x00000000      0x17b build/lcdc_rgba8888_mxt_9x60_wvga/debug/_ext/1290806806/legato_widget_touchtest_skin_classic.o
 .debug_aranges
                0x00000000       0x18 build/lcdc_rgba8888_mxt_9x60_wvga/debug/_ext/1290806806/legato_widget_touchtest_skin_classic.o
 .debug_line    0x00000000      0x10f build/lcdc_rgba8888_mxt_9x60_wvga/debug/_ext/1290806806/legato_widget_touchtest_skin_classic.o
 .debug_str     0x00000000       0x8b build/lcdc_rgba8888_mxt_9x60_wvga/debug/_ext/1290806806/legato_widget_touchtest_skin_classic.o
 .comment       0x00000000       0x2c build/lcdc_rgba8888_mxt_9x60_wvga/debug/_ext/1290806806/legato_widget_touchtest_skin_classic.o
 .ARM.attributes
                0x00000000       0x32 build/lcdc_rgba8888_mxt_9x60_wvga/debug/_ext/1290806806/legato_widget_touchtest_skin_classic.o
 .text          0x00000000        0x0 build/lcdc_rgba8888_mxt_9x60_wvga/debug/_ext/165675083/legato_widget_window_skin_classic.o
 .data          0x00000000        0x0 build/lcdc_rgba8888_mxt_9x60_wvga/debug/_ext/165675083/legato_widget_window_skin_classic.o
 .bss           0x00000000        0x0 build/lcdc_rgba8888_mxt_9x60_wvga/debug/_ext/165675083/legato_widget_window_skin_classic.o
 .debug_info    0x00000000      0x486 build/lcdc_rgba8888_mxt_9x60_wvga/debug/_ext/165675083/legato_widget_window_skin_classic.o
 .debug_abbrev  0x00000000       0xb5 build/lcdc_rgba8888_mxt_9x60_wvga/debug/_ext/165675083/legato_widget_window_skin_classic.o
 .debug_aranges
                0x00000000       0x18 build/lcdc_rgba8888_mxt_9x60_wvga/debug/_ext/165675083/legato_widget_window_skin_classic.o
 .debug_line    0x00000000       0xb9 build/lcdc_rgba8888_mxt_9x60_wvga/debug/_ext/165675083/legato_widget_window_skin_classic.o
 .debug_str     0x00000000        0x9 build/lcdc_rgba8888_mxt_9x60_wvga/debug/_ext/165675083/legato_widget_window_skin_classic.o
 .comment       0x00000000       0x2c build/lcdc_rgba8888_mxt_9x60_wvga/debug/_ext/165675083/legato_widget_window_skin_classic.o
 .ARM.attributes
                0x00000000       0x32 build/lcdc_rgba8888_mxt_9x60_wvga/debug/_ext/165675083/legato_widget_window_skin_classic.o
 .text          0x00000000        0x0 build/lcdc_rgba8888_mxt_9x60_wvga/debug/_ext/165675083/legato_widget_window.o
 .data          0x00000000        0x0 build/lcdc_rgba8888_mxt_9x60_wvga/debug/_ext/165675083/legato_widget_window.o
 .bss           0x00000000        0x0 build/lcdc_rgba8888_mxt_9x60_wvga/debug/_ext/165675083/legato_widget_window.o
 .debug_info    0x00000000      0x479 build/lcdc_rgba8888_mxt_9x60_wvga/debug/_ext/165675083/legato_widget_window.o
 .debug_abbrev  0x00000000       0xb5 build/lcdc_rgba8888_mxt_9x60_wvga/debug/_ext/165675083/legato_widget_window.o
 .debug_aranges
                0x00000000       0x18 build/lcdc_rgba8888_mxt_9x60_wvga/debug/_ext/165675083/legato_widget_window.o
 .debug_line    0x00000000       0xb9 build/lcdc_rgba8888_mxt_9x60_wvga/debug/_ext/165675083/legato_widget_window.o
 .debug_str     0x00000000        0x9 build/lcdc_rgba8888_mxt_9x60_wvga/debug/_ext/165675083/legato_widget_window.o
 .comment       0x00000000       0x2c build/lcdc_rgba8888_mxt_9x60_wvga/debug/_ext/165675083/legato_widget_window.o
 .ARM.attributes
                0x00000000       0x32 build/lcdc_rgba8888_mxt_9x60_wvga/debug/_ext/165675083/legato_widget_window.o
 .text          0x00000000        0x0 build/lcdc_rgba8888_mxt_9x60_wvga/debug/_ext/916554220/legato_editwidget.o
 .data          0x00000000        0x0 build/lcdc_rgba8888_mxt_9x60_wvga/debug/_ext/916554220/legato_editwidget.o
 .bss           0x00000000        0x0 build/lcdc_rgba8888_mxt_9x60_wvga/debug/_ext/916554220/legato_editwidget.o
 .text._leEditWidget_EditStart
                0x00000000        0x8 build/lcdc_rgba8888_mxt_9x60_wvga/debug/_ext/916554220/legato_editwidget.o
 .text._leEditWidget_EditEnd
                0x00000000        0x4 build/lcdc_rgba8888_mxt_9x60_wvga/debug/_ext/916554220/legato_editwidget.o
 .text._leEditWidget_EditClear
                0x00000000        0x4 build/lcdc_rgba8888_mxt_9x60_wvga/debug/_ext/916554220/legato_editwidget.o
 .text._leEditWidget_EditAccept
                0x00000000        0x4 build/lcdc_rgba8888_mxt_9x60_wvga/debug/_ext/916554220/legato_editwidget.o
 .text._leEditWidget_EditSet
                0x00000000        0x4 build/lcdc_rgba8888_mxt_9x60_wvga/debug/_ext/916554220/legato_editwidget.o
 .text._leEditWidget_EditAppend
                0x00000000        0x4 build/lcdc_rgba8888_mxt_9x60_wvga/debug/_ext/916554220/legato_editwidget.o
 .text._leEditWidget_EditBackspace
                0x00000000        0x4 build/lcdc_rgba8888_mxt_9x60_wvga/debug/_ext/916554220/legato_editwidget.o
 .text._leEditWidget_Destructor
                0x00000000        0xc build/lcdc_rgba8888_mxt_9x60_wvga/debug/_ext/916554220/legato_editwidget.o
 .text.leEditWidget_Constructor
                0x00000000       0x20 build/lcdc_rgba8888_mxt_9x60_wvga/debug/_ext/916554220/legato_editwidget.o
 .text._leEditWidget_Clear
                0x00000000       0x20 build/lcdc_rgba8888_mxt_9x60_wvga/debug/_ext/916554220/legato_editwidget.o
 .text._leEditWidget_Accept
                0x00000000       0x20 build/lcdc_rgba8888_mxt_9x60_wvga/debug/_ext/916554220/legato_editwidget.o
 .text._leEditWidget_Set
                0x00000000       0x28 build/lcdc_rgba8888_mxt_9x60_wvga/debug/_ext/916554220/legato_editwidget.o
 .text._leEditWidget_Append
                0x00000000       0x28 build/lcdc_rgba8888_mxt_9x60_wvga/debug/_ext/916554220/legato_editwidget.o
 .text._leEditWidget_Backspace
                0x00000000       0x20 build/lcdc_rgba8888_mxt_9x60_wvga/debug/_ext/916554220/legato_editwidget.o
 .rodata.editWidgetVTable
                0x00000000      0x150 build/lcdc_rgba8888_mxt_9x60_wvga/debug/_ext/916554220/legato_editwidget.o
 .debug_info    0x00000000     0x38ca build/lcdc_rgba8888_mxt_9x60_wvga/debug/_ext/916554220/legato_editwidget.o
 .debug_abbrev  0x00000000      0x348 build/lcdc_rgba8888_mxt_9x60_wvga/debug/_ext/916554220/legato_editwidget.o
 .debug_loc     0x00000000      0x1f9 build/lcdc_rgba8888_mxt_9x60_wvga/debug/_ext/916554220/legato_editwidget.o
 .debug_aranges
                0x00000000       0x88 build/lcdc_rgba8888_mxt_9x60_wvga/debug/_ext/916554220/legato_editwidget.o
 .debug_ranges  0x00000000       0x78 build/lcdc_rgba8888_mxt_9x60_wvga/debug/_ext/916554220/legato_editwidget.o
 .debug_line    0x00000000      0x4fb build/lcdc_rgba8888_mxt_9x60_wvga/debug/_ext/916554220/legato_editwidget.o
 .debug_str     0x00000000      0x625 build/lcdc_rgba8888_mxt_9x60_wvga/debug/_ext/916554220/legato_editwidget.o
 .comment       0x00000000       0x2c build/lcdc_rgba8888_mxt_9x60_wvga/debug/_ext/916554220/legato_editwidget.o
 .debug_frame   0x00000000      0x128 build/lcdc_rgba8888_mxt_9x60_wvga/debug/_ext/916554220/legato_editwidget.o
 .ARM.attributes
                0x00000000       0x2c build/lcdc_rgba8888_mxt_9x60_wvga/debug/_ext/916554220/legato_editwidget.o
 .text          0x00000000        0x0 build/lcdc_rgba8888_mxt_9x60_wvga/debug/_ext/916554220/legato_widget_skin_classic.o
 .data          0x00000000        0x0 build/lcdc_rgba8888_mxt_9x60_wvga/debug/_ext/916554220/legato_widget_skin_classic.o
 .bss           0x00000000        0x0 build/lcdc_rgba8888_mxt_9x60_wvga/debug/_ext/916554220/legato_widget_skin_classic.o
 .text          0x00000000        0x0 build/lcdc_rgba8888_mxt_9x60_wvga/debug/_ext/916554220/legato_widget_skin_classic_common.o
 .data          0x00000000        0x0 build/lcdc_rgba8888_mxt_9x60_wvga/debug/_ext/916554220/legato_widget_skin_classic_common.o
 .bss           0x00000000        0x0 build/lcdc_rgba8888_mxt_9x60_wvga/debug/_ext/916554220/legato_widget_skin_classic_common.o
 .text.leDraw_2x1BevelBorder
                0x00000000       0xfc build/lcdc_rgba8888_mxt_9x60_wvga/debug/_ext/916554220/legato_widget_skin_classic_common.o
 .text.leDraw_1x2BevelBorder
                0x00000000      0x108 build/lcdc_rgba8888_mxt_9x60_wvga/debug/_ext/916554220/legato_widget_skin_classic_common.o
 .text.leDraw_2x2BevelBorder
                0x00000000      0x154 build/lcdc_rgba8888_mxt_9x60_wvga/debug/_ext/916554220/legato_widget_skin_classic_common.o
 .text.leWidget_SkinClassic_DrawStandardRoundCornerLineBorder
                0x00000000       0x48 build/lcdc_rgba8888_mxt_9x60_wvga/debug/_ext/916554220/legato_widget_skin_classic_common.o
 .text          0x00000000        0x0 build/lcdc_rgba8888_mxt_9x60_wvga/debug/_ext/916554220/legato_widget.o
 .data          0x00000000        0x0 build/lcdc_rgba8888_mxt_9x60_wvga/debug/_ext/916554220/legato_widget.o
 .bss           0x00000000        0x0 build/lcdc_rgba8888_mxt_9x60_wvga/debug/_ext/916554220/legato_widget.o
 .text          0x00000000        0x0 build/lcdc_rgba8888_mxt_9x60_wvga/debug/_ext/107307971/plib_aic.o
 .data          0x00000000        0x0 build/lcdc_rgba8888_mxt_9x60_wvga/debug/_ext/107307971/plib_aic.o
 .bss           0x00000000        0x0 build/lcdc_rgba8888_mxt_9x60_wvga/debug/_ext/107307971/plib_aic.o
 .text.AIC_INT_IrqEnable
                0x00000000       0x10 build/lcdc_rgba8888_mxt_9x60_wvga/debug/_ext/107307971/plib_aic.o
 .text          0x00000000        0x0 build/lcdc_rgba8888_mxt_9x60_wvga/debug/_ext/107309994/plib_clk.o
 .data          0x00000000        0x0 build/lcdc_rgba8888_mxt_9x60_wvga/debug/_ext/107309994/plib_clk.o
 .bss           0x00000000        0x0 build/lcdc_rgba8888_mxt_9x60_wvga/debug/_ext/107309994/plib_clk.o
 .text          0x00000000        0x0 build/lcdc_rgba8888_mxt_9x60_wvga/debug/_ext/1221451702/plib_flexcom0_twi_master.o
 .data          0x00000000        0x0 build/lcdc_rgba8888_mxt_9x60_wvga/debug/_ext/1221451702/plib_flexcom0_twi_master.o
 .bss           0x00000000        0x0 build/lcdc_rgba8888_mxt_9x60_wvga/debug/_ext/1221451702/plib_flexcom0_twi_master.o
 .text.FLEXCOM0_TWI_IsBusy
                0x00000000       0x20 build/lcdc_rgba8888_mxt_9x60_wvga/debug/_ext/1221451702/plib_flexcom0_twi_master.o
 .text          0x00000000        0x0 build/lcdc_rgba8888_mxt_9x60_wvga/debug/_ext/968098130/plib_lcdc.o
 .data          0x00000000        0x0 build/lcdc_rgba8888_mxt_9x60_wvga/debug/_ext/968098130/plib_lcdc.o
 .bss           0x00000000        0x0 build/lcdc_rgba8888_mxt_9x60_wvga/debug/_ext/968098130/plib_lcdc.o
 .text.LCDC_SetPixelClockPolarity
                0x00000000       0x24 build/lcdc_rgba8888_mxt_9x60_wvga/debug/_ext/968098130/plib_lcdc.o
 .text.LCDC_SetVSYNCPulseEnd
                0x00000000       0x2c build/lcdc_rgba8888_mxt_9x60_wvga/debug/_ext/968098130/plib_lcdc.o
 .text.LCDC_SetDisplaySignalPolarity
                0x00000000       0x2c build/lcdc_rgba8888_mxt_9x60_wvga/debug/_ext/968098130/plib_lcdc.o
 .text.LCDC_SetDitheringEnable
                0x00000000       0x2c build/lcdc_rgba8888_mxt_9x60_wvga/debug/_ext/968098130/plib_lcdc.o
 .text.LCDC_SetVSYNCPulseSetupConfig
                0x00000000       0x20 build/lcdc_rgba8888_mxt_9x60_wvga/debug/_ext/968098130/plib_lcdc.o
 .text.LCDC_SetVSYNCPulseHoldConfig
                0x00000000       0x20 build/lcdc_rgba8888_mxt_9x60_wvga/debug/_ext/968098130/plib_lcdc.o
 .text.LCDC_ClockReset
                0x00000000       0x18 build/lcdc_rgba8888_mxt_9x60_wvga/debug/_ext/968098130/plib_lcdc.o
 .text.LCDC_SYNCReset
                0x00000000       0x18 build/lcdc_rgba8888_mxt_9x60_wvga/debug/_ext/968098130/plib_lcdc.o
 .text.LCDC_DISPSignalReset
                0x00000000       0x18 build/lcdc_rgba8888_mxt_9x60_wvga/debug/_ext/968098130/plib_lcdc.o
 .text.LCDC_PWMReset
                0x00000000       0x18 build/lcdc_rgba8888_mxt_9x60_wvga/debug/_ext/968098130/plib_lcdc.o
 .text.LCDC_GetPixelClockStatusRunning
                0x00000000       0x14 build/lcdc_rgba8888_mxt_9x60_wvga/debug/_ext/968098130/plib_lcdc.o
 .text.LCDC_GetTimingEngineStatusRunning
                0x00000000       0x18 build/lcdc_rgba8888_mxt_9x60_wvga/debug/_ext/968098130/plib_lcdc.o
 .text.LCDC_GetDisplaySignalStatusActivated
                0x00000000       0x18 build/lcdc_rgba8888_mxt_9x60_wvga/debug/_ext/968098130/plib_lcdc.o
 .text.LCDC_GetPWMSignalStatusActivated
                0x00000000       0x18 build/lcdc_rgba8888_mxt_9x60_wvga/debug/_ext/968098130/plib_lcdc.o
 .text.LCDC_GetSynchronizationStatusInProgress
                0x00000000       0x18 build/lcdc_rgba8888_mxt_9x60_wvga/debug/_ext/968098130/plib_lcdc.o
 .text.LCDC_SetSOFInterruptEnable
                0x00000000       0x28 build/lcdc_rgba8888_mxt_9x60_wvga/debug/_ext/968098130/plib_lcdc.o
 .text.LCDC_SetLCDDisableInterruptEnable
                0x00000000       0x28 build/lcdc_rgba8888_mxt_9x60_wvga/debug/_ext/968098130/plib_lcdc.o
 .text.LCDC_UpdateAddToQueue
                0x00000000       0x70 build/lcdc_rgba8888_mxt_9x60_wvga/debug/_ext/968098130/plib_lcdc.o
 .text.LCDC_AddToQueueEnable
                0x00000000       0x70 build/lcdc_rgba8888_mxt_9x60_wvga/debug/_ext/968098130/plib_lcdc.o
 .text.LCDC_SetBlenderGlobalAlphaEnable
                0x00000000       0x94 build/lcdc_rgba8888_mxt_9x60_wvga/debug/_ext/968098130/plib_lcdc.o
 .text.LCDC_SetBlenderGlobalAlpha
                0x00000000       0x60 build/lcdc_rgba8888_mxt_9x60_wvga/debug/_ext/968098130/plib_lcdc.o
 .text.LCDC_IRQ_Disable
                0x00000000       0xd0 build/lcdc_rgba8888_mxt_9x60_wvga/debug/_ext/968098130/plib_lcdc.o
 .text.LCDC_IRQ_Status
                0x00000000       0x10 build/lcdc_rgba8888_mxt_9x60_wvga/debug/_ext/968098130/plib_lcdc.o
 .text.LCDC_SetHEOFilterPhaseOffset
                0x00000000       0x20 build/lcdc_rgba8888_mxt_9x60_wvga/debug/_ext/968098130/plib_lcdc.o
 .text          0x00000000        0x0 build/lcdc_rgba8888_mxt_9x60_wvga/debug/_ext/107319645/plib_mmu.o
 .data          0x00000000        0x0 build/lcdc_rgba8888_mxt_9x60_wvga/debug/_ext/107319645/plib_mmu.o
 .bss           0x00000000        0x0 build/lcdc_rgba8888_mxt_9x60_wvga/debug/_ext/107319645/plib_mmu.o
 .text.icache_Disable
                0x00000000       0x20 build/lcdc_rgba8888_mxt_9x60_wvga/debug/_ext/107319645/plib_mmu.o
 .text.dcache_CleanAll
                0x00000000       0x38 build/lcdc_rgba8888_mxt_9x60_wvga/debug/_ext/107319645/plib_mmu.o
 .text.dcache_CleanInvalidateAll
                0x00000000       0x38 build/lcdc_rgba8888_mxt_9x60_wvga/debug/_ext/107319645/plib_mmu.o
 .text.dcache_InvalidateByAddr
                0x00000000       0x4c build/lcdc_rgba8888_mxt_9x60_wvga/debug/_ext/107319645/plib_mmu.o
 .text.dcache_CleanByAddr
                0x00000000       0x4c build/lcdc_rgba8888_mxt_9x60_wvga/debug/_ext/107319645/plib_mmu.o
 .text.dcache_CleanInvalidateByAddr
                0x00000000       0x4c build/lcdc_rgba8888_mxt_9x60_wvga/debug/_ext/107319645/plib_mmu.o
 .text.dcache_Disable
                0x00000000       0x24 build/lcdc_rgba8888_mxt_9x60_wvga/debug/_ext/107319645/plib_mmu.o
 .text          0x00000000        0x0 build/lcdc_rgba8888_mxt_9x60_wvga/debug/_ext/107322398/plib_pio.o
 .data          0x00000000        0x0 build/lcdc_rgba8888_mxt_9x60_wvga/debug/_ext/107322398/plib_pio.o
 .bss           0x00000000        0x0 build/lcdc_rgba8888_mxt_9x60_wvga/debug/_ext/107322398/plib_pio.o
 .text.PIO_PortRead
                0x00000000        0x8 build/lcdc_rgba8888_mxt_9x60_wvga/debug/_ext/107322398/plib_pio.o
 .text.PIO_PortWrite
                0x00000000       0x18 build/lcdc_rgba8888_mxt_9x60_wvga/debug/_ext/107322398/plib_pio.o
 .text.PIO_PortLatchRead
                0x00000000        0x8 build/lcdc_rgba8888_mxt_9x60_wvga/debug/_ext/107322398/plib_pio.o
 .text.PIO_PortSet
                0x00000000        0x8 build/lcdc_rgba8888_mxt_9x60_wvga/debug/_ext/107322398/plib_pio.o
 .text.PIO_PortClear
                0x00000000        0x8 build/lcdc_rgba8888_mxt_9x60_wvga/debug/_ext/107322398/plib_pio.o
 .text.PIO_PortToggle
                0x00000000       0x10 build/lcdc_rgba8888_mxt_9x60_wvga/debug/_ext/107322398/plib_pio.o
 .text.PIO_PortInputEnable
                0x00000000        0x8 build/lcdc_rgba8888_mxt_9x60_wvga/debug/_ext/107322398/plib_pio.o
 .text.PIO_PortOutputEnable
                0x00000000        0x8 build/lcdc_rgba8888_mxt_9x60_wvga/debug/_ext/107322398/plib_pio.o
 .text          0x00000000        0x0 build/lcdc_rgba8888_mxt_9x60_wvga/debug/_ext/107324666/plib_rtt.o
 .data          0x00000000        0x0 build/lcdc_rgba8888_mxt_9x60_wvga/debug/_ext/107324666/plib_rtt.o
 .bss           0x00000000        0x0 build/lcdc_rgba8888_mxt_9x60_wvga/debug/_ext/107324666/plib_rtt.o
 .text.RTT_Disable
                0x00000000       0x14 build/lcdc_rgba8888_mxt_9x60_wvga/debug/_ext/107324666/plib_rtt.o
 .text.RTT_PrescalarUpdate
                0x00000000       0x34 build/lcdc_rgba8888_mxt_9x60_wvga/debug/_ext/107324666/plib_rtt.o
 .text.RTT_AlarmValueSet
                0x00000000       0x30 build/lcdc_rgba8888_mxt_9x60_wvga/debug/_ext/107324666/plib_rtt.o
 .text.RTT_EnableInterrupt
                0x00000000       0x14 build/lcdc_rgba8888_mxt_9x60_wvga/debug/_ext/107324666/plib_rtt.o
 .text.RTT_DisableInterrupt
                0x00000000       0x14 build/lcdc_rgba8888_mxt_9x60_wvga/debug/_ext/107324666/plib_rtt.o
 .text.RTT_TimerValueGet
                0x00000000       0x28 build/lcdc_rgba8888_mxt_9x60_wvga/debug/_ext/107324666/plib_rtt.o
 .text.RTT_FrequencyGet
                0x00000000       0x44 build/lcdc_rgba8888_mxt_9x60_wvga/debug/_ext/107324666/plib_rtt.o
 .text          0x00000000        0x0 build/lcdc_rgba8888_mxt_9x60_wvga/debug/_ext/273632537/plib_tc1.o
 .data          0x00000000        0x0 build/lcdc_rgba8888_mxt_9x60_wvga/debug/_ext/273632537/plib_tc1.o
 .bss           0x00000000        0x0 build/lcdc_rgba8888_mxt_9x60_wvga/debug/_ext/273632537/plib_tc1.o
 .text.TC1_CH0_TimerFrequencyGet
                0x00000000        0xc build/lcdc_rgba8888_mxt_9x60_wvga/debug/_ext/273632537/plib_tc1.o
 .text.TC1_CH0_TimerPeriodSet
                0x00000000       0x10 build/lcdc_rgba8888_mxt_9x60_wvga/debug/_ext/273632537/plib_tc1.o
 .text.TC1_CH0_TimerPeriodGet
                0x00000000       0x10 build/lcdc_rgba8888_mxt_9x60_wvga/debug/_ext/273632537/plib_tc1.o
 .text.TC1_CH0_TimerCounterGet
                0x00000000       0x10 build/lcdc_rgba8888_mxt_9x60_wvga/debug/_ext/273632537/plib_tc1.o
 .text          0x00000000        0x0 build/lcdc_rgba8888_mxt_9x60_wvga/debug/_ext/273632537/plib_tc0.o
 .data          0x00000000        0x0 build/lcdc_rgba8888_mxt_9x60_wvga/debug/_ext/273632537/plib_tc0.o
 .bss           0x00000000        0x0 build/lcdc_rgba8888_mxt_9x60_wvga/debug/_ext/273632537/plib_tc0.o
 .text.TC0_CH0_TimerPeriodGet
                0x00000000       0x10 build/lcdc_rgba8888_mxt_9x60_wvga/debug/_ext/273632537/plib_tc0.o
 .text.TC0_CH1_TimerFrequencyGet
                0x00000000        0xc build/lcdc_rgba8888_mxt_9x60_wvga/debug/_ext/273632537/plib_tc0.o
 .text.TC0_CH1_TimerPeriodSet
                0x00000000       0x10 build/lcdc_rgba8888_mxt_9x60_wvga/debug/_ext/273632537/plib_tc0.o
 .text.TC0_CH1_TimerPeriodGet
                0x00000000       0x10 build/lcdc_rgba8888_mxt_9x60_wvga/debug/_ext/273632537/plib_tc0.o
 .text.TC0_CH1_TimerCounterGet
                0x00000000       0x10 build/lcdc_rgba8888_mxt_9x60_wvga/debug/_ext/273632537/plib_tc0.o
 .text          0x00000000        0x0 build/lcdc_rgba8888_mxt_9x60_wvga/debug/_ext/129769842/xc32_monitor.o
 .data          0x00000000        0x0 build/lcdc_rgba8888_mxt_9x60_wvga/debug/_ext/129769842/xc32_monitor.o
 .bss           0x00000000        0x0 build/lcdc_rgba8888_mxt_9x60_wvga/debug/_ext/129769842/xc32_monitor.o
 .text.read     0x00000000        0x8 build/lcdc_rgba8888_mxt_9x60_wvga/debug/_ext/129769842/xc32_monitor.o
 .text          0x00000000        0x0 build/lcdc_rgba8888_mxt_9x60_wvga/debug/_ext/250812413/sys_cache.o
 .data          0x00000000        0x0 build/lcdc_rgba8888_mxt_9x60_wvga/debug/_ext/250812413/sys_cache.o
 .bss           0x00000000        0x0 build/lcdc_rgba8888_mxt_9x60_wvga/debug/_ext/250812413/sys_cache.o
 .text.SYS_CACHE_EnableCaches
                0x00000000       0x10 build/lcdc_rgba8888_mxt_9x60_wvga/debug/_ext/250812413/sys_cache.o
 .text.SYS_CACHE_DisableCaches
                0x00000000       0x10 build/lcdc_rgba8888_mxt_9x60_wvga/debug/_ext/250812413/sys_cache.o
 .text.SYS_CACHE_EnableICache
                0x00000000        0xc build/lcdc_rgba8888_mxt_9x60_wvga/debug/_ext/250812413/sys_cache.o
 .text.SYS_CACHE_DisableICache
                0x00000000        0xc build/lcdc_rgba8888_mxt_9x60_wvga/debug/_ext/250812413/sys_cache.o
 .text.SYS_CACHE_InvalidateICache
                0x00000000        0xc build/lcdc_rgba8888_mxt_9x60_wvga/debug/_ext/250812413/sys_cache.o
 .text.SYS_CACHE_EnableDCache
                0x00000000        0xc build/lcdc_rgba8888_mxt_9x60_wvga/debug/_ext/250812413/sys_cache.o
 .text.SYS_CACHE_DisableDCache
                0x00000000        0xc build/lcdc_rgba8888_mxt_9x60_wvga/debug/_ext/250812413/sys_cache.o
 .text.SYS_CACHE_InvalidateDCache
                0x00000000        0xc build/lcdc_rgba8888_mxt_9x60_wvga/debug/_ext/250812413/sys_cache.o
 .text.SYS_CACHE_CleanDCache
                0x00000000        0xc build/lcdc_rgba8888_mxt_9x60_wvga/debug/_ext/250812413/sys_cache.o
 .text.SYS_CACHE_CleanInvalidateDCache
                0x00000000        0xc build/lcdc_rgba8888_mxt_9x60_wvga/debug/_ext/250812413/sys_cache.o
 .text.SYS_CACHE_InvalidateDCache_by_Addr
                0x00000000        0xc build/lcdc_rgba8888_mxt_9x60_wvga/debug/_ext/250812413/sys_cache.o
 .text.SYS_CACHE_CleanDCache_by_Addr
                0x00000000        0xc build/lcdc_rgba8888_mxt_9x60_wvga/debug/_ext/250812413/sys_cache.o
 .text.SYS_CACHE_CleanInvalidateDCache_by_Addr
                0x00000000        0xc build/lcdc_rgba8888_mxt_9x60_wvga/debug/_ext/250812413/sys_cache.o
 .debug_info    0x00000000      0x77c build/lcdc_rgba8888_mxt_9x60_wvga/debug/_ext/250812413/sys_cache.o
 .debug_abbrev  0x00000000       0x9d build/lcdc_rgba8888_mxt_9x60_wvga/debug/_ext/250812413/sys_cache.o
 .debug_loc     0x00000000      0x27e build/lcdc_rgba8888_mxt_9x60_wvga/debug/_ext/250812413/sys_cache.o
 .debug_aranges
                0x00000000       0x80 build/lcdc_rgba8888_mxt_9x60_wvga/debug/_ext/250812413/sys_cache.o
 .debug_ranges  0x00000000       0x70 build/lcdc_rgba8888_mxt_9x60_wvga/debug/_ext/250812413/sys_cache.o
 .debug_line    0x00000000      0x246 build/lcdc_rgba8888_mxt_9x60_wvga/debug/_ext/250812413/sys_cache.o
 .debug_str     0x00000000       0xd6 build/lcdc_rgba8888_mxt_9x60_wvga/debug/_ext/250812413/sys_cache.o
 .comment       0x00000000       0x2c build/lcdc_rgba8888_mxt_9x60_wvga/debug/_ext/250812413/sys_cache.o
 .debug_frame   0x00000000      0x148 build/lcdc_rgba8888_mxt_9x60_wvga/debug/_ext/250812413/sys_cache.o
 .ARM.attributes
                0x00000000       0x2c build/lcdc_rgba8888_mxt_9x60_wvga/debug/_ext/250812413/sys_cache.o
 .text          0x00000000        0x0 build/lcdc_rgba8888_mxt_9x60_wvga/debug/_ext/256753733/sys_input.o
 .data          0x00000000        0x0 build/lcdc_rgba8888_mxt_9x60_wvga/debug/_ext/256753733/sys_input.o
 .bss           0x00000000        0x0 build/lcdc_rgba8888_mxt_9x60_wvga/debug/_ext/256753733/sys_input.o
 .text.SYS_INP_RemoveListener
                0x00000000       0x40 build/lcdc_rgba8888_mxt_9x60_wvga/debug/_ext/256753733/sys_input.o
 .text.SYS_INP_InjectKeyDown
                0x00000000       0x40 build/lcdc_rgba8888_mxt_9x60_wvga/debug/_ext/256753733/sys_input.o
 .text.SYS_INP_InjectKeyUp
                0x00000000       0x40 build/lcdc_rgba8888_mxt_9x60_wvga/debug/_ext/256753733/sys_input.o
 .text.SYS_INP_InjectMouseButtonDown
                0x00000000       0x40 build/lcdc_rgba8888_mxt_9x60_wvga/debug/_ext/256753733/sys_input.o
 .text.SYS_INP_InjectMouseButtonUp
                0x00000000       0x40 build/lcdc_rgba8888_mxt_9x60_wvga/debug/_ext/256753733/sys_input.o
 .text.SYS_INP_InjectMouseMove
                0x00000000       0x4c build/lcdc_rgba8888_mxt_9x60_wvga/debug/_ext/256753733/sys_input.o
 .text.SYS_INP_InjectFlickGesture
                0x00000000       0x58 build/lcdc_rgba8888_mxt_9x60_wvga/debug/_ext/256753733/sys_input.o
 .text.SYS_INP_InjectPinchGesture
                0x00000000       0x58 build/lcdc_rgba8888_mxt_9x60_wvga/debug/_ext/256753733/sys_input.o
 .text.SYS_INP_InjectStretchGesture
                0x00000000       0x58 build/lcdc_rgba8888_mxt_9x60_wvga/debug/_ext/256753733/sys_input.o
 .text.SYS_INP_InjectRotateGesture
                0x00000000       0x60 build/lcdc_rgba8888_mxt_9x60_wvga/debug/_ext/256753733/sys_input.o
 .text.SYS_INP_InjectGenericGesture
                0x00000000       0x58 build/lcdc_rgba8888_mxt_9x60_wvga/debug/_ext/256753733/sys_input.o
 .text          0x00000000        0x0 build/lcdc_rgba8888_mxt_9x60_wvga/debug/_ext/256753733/sys_input_listener.o
 .data          0x00000000        0x0 build/lcdc_rgba8888_mxt_9x60_wvga/debug/_ext/256753733/sys_input_listener.o
 .bss           0x00000000        0x0 build/lcdc_rgba8888_mxt_9x60_wvga/debug/_ext/256753733/sys_input_listener.o
 .text.defaultKeyDownHandler
                0x00000000        0x4 build/lcdc_rgba8888_mxt_9x60_wvga/debug/_ext/256753733/sys_input_listener.o
 .text.defaultKeyUpHandler
                0x00000000        0x4 build/lcdc_rgba8888_mxt_9x60_wvga/debug/_ext/256753733/sys_input_listener.o
 .text.defaultMouseMoveHandler
                0x00000000        0x4 build/lcdc_rgba8888_mxt_9x60_wvga/debug/_ext/256753733/sys_input_listener.o
 .text.defaultMouseButtonHandler
                0x00000000        0x4 build/lcdc_rgba8888_mxt_9x60_wvga/debug/_ext/256753733/sys_input_listener.o
 .text.defaultTouchStateHandler
                0x00000000        0x4 build/lcdc_rgba8888_mxt_9x60_wvga/debug/_ext/256753733/sys_input_listener.o
 .text.defaultTouchMoveHandler
                0x00000000        0x4 build/lcdc_rgba8888_mxt_9x60_wvga/debug/_ext/256753733/sys_input_listener.o
 .text.defaultFlickGestureHandler
                0x00000000        0x4 build/lcdc_rgba8888_mxt_9x60_wvga/debug/_ext/256753733/sys_input_listener.o
 .text.defaultPinchEventHandler
                0x00000000        0x4 build/lcdc_rgba8888_mxt_9x60_wvga/debug/_ext/256753733/sys_input_listener.o
 .text.defaultStretchEventHandler
                0x00000000        0x4 build/lcdc_rgba8888_mxt_9x60_wvga/debug/_ext/256753733/sys_input_listener.o
 .text.defaultRotateEventHandler
                0x00000000        0x4 build/lcdc_rgba8888_mxt_9x60_wvga/debug/_ext/256753733/sys_input_listener.o
 .text.SYS_INP_ListenerInit
                0x00000000       0x8c build/lcdc_rgba8888_mxt_9x60_wvga/debug/_ext/256753733/sys_input_listener.o
 .debug_info    0x00000000     0x1804 build/lcdc_rgba8888_mxt_9x60_wvga/debug/_ext/256753733/sys_input_listener.o
 .debug_abbrev  0x00000000      0x105 build/lcdc_rgba8888_mxt_9x60_wvga/debug/_ext/256753733/sys_input_listener.o
 .debug_aranges
                0x00000000       0x70 build/lcdc_rgba8888_mxt_9x60_wvga/debug/_ext/256753733/sys_input_listener.o
 .debug_ranges  0x00000000       0x60 build/lcdc_rgba8888_mxt_9x60_wvga/debug/_ext/256753733/sys_input_listener.o
 .debug_line    0x00000000      0x296 build/lcdc_rgba8888_mxt_9x60_wvga/debug/_ext/256753733/sys_input_listener.o
 .debug_str     0x00000000        0x0 build/lcdc_rgba8888_mxt_9x60_wvga/debug/_ext/256753733/sys_input_listener.o
 .comment       0x00000000       0x2c build/lcdc_rgba8888_mxt_9x60_wvga/debug/_ext/256753733/sys_input_listener.o
 .debug_frame   0x00000000       0xc0 build/lcdc_rgba8888_mxt_9x60_wvga/debug/_ext/256753733/sys_input_listener.o
 .ARM.attributes
                0x00000000       0x2c build/lcdc_rgba8888_mxt_9x60_wvga/debug/_ext/256753733/sys_input_listener.o
 .text          0x00000000        0x0 build/lcdc_rgba8888_mxt_9x60_wvga/debug/_ext/1928812927/sys_int.o
 .data          0x00000000        0x0 build/lcdc_rgba8888_mxt_9x60_wvga/debug/_ext/1928812927/sys_int.o
 .bss           0x00000000        0x0 build/lcdc_rgba8888_mxt_9x60_wvga/debug/_ext/1928812927/sys_int.o
 .text.SYS_INT_IsEnabled
                0x00000000       0x14 build/lcdc_rgba8888_mxt_9x60_wvga/debug/_ext/1928812927/sys_int.o
 .text.SYS_INT_Enable
                0x00000000        0xc build/lcdc_rgba8888_mxt_9x60_wvga/debug/_ext/1928812927/sys_int.o
 .text.SYS_INT_SourceEnable
                0x00000000       0x28 build/lcdc_rgba8888_mxt_9x60_wvga/debug/_ext/1928812927/sys_int.o
 .text.SYS_INT_SourceStatusGet
                0x00000000       0x78 build/lcdc_rgba8888_mxt_9x60_wvga/debug/_ext/1928812927/sys_int.o
 .text.SYS_INT_SourceStatusSet
                0x00000000       0x28 build/lcdc_rgba8888_mxt_9x60_wvga/debug/_ext/1928812927/sys_int.o
 .text.SYS_INT_SourceStatusClear
                0x00000000       0x28 build/lcdc_rgba8888_mxt_9x60_wvga/debug/_ext/1928812927/sys_int.o
 .text          0x00000000        0x0 build/lcdc_rgba8888_mxt_9x60_wvga/debug/_ext/1359593799/sys_time.o
 .data          0x00000000        0x0 build/lcdc_rgba8888_mxt_9x60_wvga/debug/_ext/1359593799/sys_time.o
 .bss           0x00000000        0x0 build/lcdc_rgba8888_mxt_9x60_wvga/debug/_ext/1359593799/sys_time.o
 .text.SYS_TIME_Deinitialize
                0x00000000       0x4c build/lcdc_rgba8888_mxt_9x60_wvga/debug/_ext/1359593799/sys_time.o
 .text.SYS_TIME_Status
                0x00000000       0x18 build/lcdc_rgba8888_mxt_9x60_wvga/debug/_ext/1359593799/sys_time.o
 .text.SYS_TIME_FrequencyGet
                0x00000000       0x10 build/lcdc_rgba8888_mxt_9x60_wvga/debug/_ext/1359593799/sys_time.o
 .text.SYS_TIME_Counter64Get
                0x00000000       0x48 build/lcdc_rgba8888_mxt_9x60_wvga/debug/_ext/1359593799/sys_time.o
 .text.SYS_TIME_CounterGet
                0x00000000        0xc build/lcdc_rgba8888_mxt_9x60_wvga/debug/_ext/1359593799/sys_time.o
 .text.SYS_TIME_CounterSet
                0x00000000       0x24 build/lcdc_rgba8888_mxt_9x60_wvga/debug/_ext/1359593799/sys_time.o
 .text.SYS_TIME_CountToUS
                0x00000000       0x64 build/lcdc_rgba8888_mxt_9x60_wvga/debug/_ext/1359593799/sys_time.o
 .text.SYS_TIME_CountToMS
                0x00000000       0x5c build/lcdc_rgba8888_mxt_9x60_wvga/debug/_ext/1359593799/sys_time.o
 .text.SYS_TIME_USToCount
                0x00000000       0x30 build/lcdc_rgba8888_mxt_9x60_wvga/debug/_ext/1359593799/sys_time.o
 .text.SYS_TIME_MSToCount
                0x00000000       0x2c build/lcdc_rgba8888_mxt_9x60_wvga/debug/_ext/1359593799/sys_time.o
 .text.SYS_TIME_TimerCreate
                0x00000000       0x2c build/lcdc_rgba8888_mxt_9x60_wvga/debug/_ext/1359593799/sys_time.o
 .text.SYS_TIME_TimerReload
                0x00000000       0xec build/lcdc_rgba8888_mxt_9x60_wvga/debug/_ext/1359593799/sys_time.o
 .text.SYS_TIME_TimerCounterGet
                0x00000000       0xe8 build/lcdc_rgba8888_mxt_9x60_wvga/debug/_ext/1359593799/sys_time.o
 .text.SYS_TIME_DelayUS
                0x00000000       0x88 build/lcdc_rgba8888_mxt_9x60_wvga/debug/_ext/1359593799/sys_time.o
 .text.SYS_TIME_CallbackRegisterUS
                0x00000000       0xa0 build/lcdc_rgba8888_mxt_9x60_wvga/debug/_ext/1359593799/sys_time.o
 .text          0x00000000        0x0 build/lcdc_rgba8888_mxt_9x60_wvga/debug/_ext/1455094228/fault_handlers.o
 .data          0x00000000        0x0 build/lcdc_rgba8888_mxt_9x60_wvga/debug/_ext/1455094228/fault_handlers.o
 .bss           0x00000000        0x0 build/lcdc_rgba8888_mxt_9x60_wvga/debug/_ext/1455094228/fault_handlers.o
 .data          0x00000000        0x0 build/lcdc_rgba8888_mxt_9x60_wvga/debug/_ext/1455094228/cstartup.o
 .bss           0x00000000        0x0 build/lcdc_rgba8888_mxt_9x60_wvga/debug/_ext/1455094228/cstartup.o
 .text          0x00000000        0x0 build/lcdc_rgba8888_mxt_9x60_wvga/debug/_ext/1455094228/interrupts.o
 .data          0x00000000        0x0 build/lcdc_rgba8888_mxt_9x60_wvga/debug/_ext/1455094228/interrupts.o
 .bss           0x00000000        0x0 build/lcdc_rgba8888_mxt_9x60_wvga/debug/_ext/1455094228/interrupts.o
 .text          0x00000000        0x0 build/lcdc_rgba8888_mxt_9x60_wvga/debug/_ext/1455094228/initialization.o
 .data          0x00000000        0x0 build/lcdc_rgba8888_mxt_9x60_wvga/debug/_ext/1455094228/initialization.o
 .bss           0x00000000        0x0 build/lcdc_rgba8888_mxt_9x60_wvga/debug/_ext/1455094228/initialization.o
 .text          0x00000000        0x0 build/lcdc_rgba8888_mxt_9x60_wvga/debug/_ext/1455094228/tasks.o
 .data          0x00000000        0x0 build/lcdc_rgba8888_mxt_9x60_wvga/debug/_ext/1455094228/tasks.o
 .bss           0x00000000        0x0 build/lcdc_rgba8888_mxt_9x60_wvga/debug/_ext/1455094228/tasks.o
 .text          0x00000000        0x0 build/lcdc_rgba8888_mxt_9x60_wvga/debug/_ext/1360937237/app.o
 .data          0x00000000        0x0 build/lcdc_rgba8888_mxt_9x60_wvga/debug/_ext/1360937237/app.o
 .bss           0x00000000        0x0 build/lcdc_rgba8888_mxt_9x60_wvga/debug/_ext/1360937237/app.o
 .text.event_Screen0_ButtonWidget_Opt_rinse_OnReleased
                0x00000000        0x4 build/lcdc_rgba8888_mxt_9x60_wvga/debug/_ext/1360937237/app.o
 .text.event_Screen0_ButtonWidget_Opt_load_OnReleased
                0x00000000        0x4 build/lcdc_rgba8888_mxt_9x60_wvga/debug/_ext/1360937237/app.o
 .text.event_Screen0_ButtonWidget_t4_OnReleased
                0x00000000       0x3c build/lcdc_rgba8888_mxt_9x60_wvga/debug/_ext/1360937237/app.o
 .text.event_Screen0_ButtonWidget_p4_OnReleased
                0x00000000       0x3c build/lcdc_rgba8888_mxt_9x60_wvga/debug/_ext/1360937237/app.o
 .text.event_Screen0_ButtonWidget_p5_OnReleased
                0x00000000       0x3c build/lcdc_rgba8888_mxt_9x60_wvga/debug/_ext/1360937237/app.o
 .text          0x00000000        0x0 build/lcdc_rgba8888_mxt_9x60_wvga/debug/_ext/1360937237/main.o
 .data          0x00000000        0x0 build/lcdc_rgba8888_mxt_9x60_wvga/debug/_ext/1360937237/main.o
 .bss           0x00000000        0x0 build/lcdc_rgba8888_mxt_9x60_wvga/debug/_ext/1360937237/main.o
 .text          0x00000000        0x0 c:/program files/microchip/xc32/v4.21/bin/bin/../../lib/gcc/pic32c/8.3.1/../../../../pic32c/lib/arm/v5te/nofp\libpic32c.a(data_init_0_1.o)
 .data          0x00000000        0x0 c:/program files/microchip/xc32/v4.21/bin/bin/../../lib/gcc/pic32c/8.3.1/../../../../pic32c/lib/arm/v5te/nofp\libpic32c.a(data_init_0_1.o)
 .bss           0x00000000        0x4 c:/program files/microchip/xc32/v4.21/bin/bin/../../lib/gcc/pic32c/8.3.1/../../../../pic32c/lib/arm/v5te/nofp\libpic32c.a(data_init_0_1.o)
 .xc_stack_usage
                0x00000000       0x2f c:/program files/microchip/xc32/v4.21/bin/bin/../../lib/gcc/pic32c/8.3.1/../../../../pic32c/lib/arm/v5te/nofp\libpic32c.a(data_init_0_1.o)
 .text.__pic32c_data_initialization_impl
                0x00000000       0x98 c:/program files/microchip/xc32/v4.21/bin/bin/../../lib/gcc/pic32c/8.3.1/../../../../pic32c/lib/arm/v5te/nofp\libpic32c.a(data_init_0_1.o)
 .xc_stack_usage.hdr
                0x00000000        0xe c:/program files/microchip/xc32/v4.21/bin/bin/../../lib/gcc/pic32c/8.3.1/../../../../pic32c/lib/arm/v5te/nofp\libpic32c.a(data_init_0_1.o)
 .debug_info    0x00000000      0x293 c:/program files/microchip/xc32/v4.21/bin/bin/../../lib/gcc/pic32c/8.3.1/../../../../pic32c/lib/arm/v5te/nofp\libpic32c.a(data_init_0_1.o)
 .debug_abbrev  0x00000000       0x2e c:/program files/microchip/xc32/v4.21/bin/bin/../../lib/gcc/pic32c/8.3.1/../../../../pic32c/lib/arm/v5te/nofp\libpic32c.a(data_init_0_1.o)
 .debug_loc     0x00000000       0x14 c:/program files/microchip/xc32/v4.21/bin/bin/../../lib/gcc/pic32c/8.3.1/../../../../pic32c/lib/arm/v5te/nofp\libpic32c.a(data_init_0_1.o)
 .debug_aranges
                0x00000000       0x20 c:/program files/microchip/xc32/v4.21/bin/bin/../../lib/gcc/pic32c/8.3.1/../../../../pic32c/lib/arm/v5te/nofp\libpic32c.a(data_init_0_1.o)
 .debug_ranges  0x00000000       0x10 c:/program files/microchip/xc32/v4.21/bin/bin/../../lib/gcc/pic32c/8.3.1/../../../../pic32c/lib/arm/v5te/nofp\libpic32c.a(data_init_0_1.o)
 .debug_line    0x00000000       0xfc c:/program files/microchip/xc32/v4.21/bin/bin/../../lib/gcc/pic32c/8.3.1/../../../../pic32c/lib/arm/v5te/nofp\libpic32c.a(data_init_0_1.o)
 .debug_str     0x00000000        0x0 c:/program files/microchip/xc32/v4.21/bin/bin/../../lib/gcc/pic32c/8.3.1/../../../../pic32c/lib/arm/v5te/nofp\libpic32c.a(data_init_0_1.o)
 .comment       0x00000000       0x2c c:/program files/microchip/xc32/v4.21/bin/bin/../../lib/gcc/pic32c/8.3.1/../../../../pic32c/lib/arm/v5te/nofp\libpic32c.a(data_init_0_1.o)
 .debug_frame   0x00000000       0x28 c:/program files/microchip/xc32/v4.21/bin/bin/../../lib/gcc/pic32c/8.3.1/../../../../pic32c/lib/arm/v5te/nofp\libpic32c.a(data_init_0_1.o)
 .ARM.attributes
                0x00000000       0x2b c:/program files/microchip/xc32/v4.21/bin/bin/../../lib/gcc/pic32c/8.3.1/../../../../pic32c/lib/arm/v5te/nofp\libpic32c.a(data_init_0_1.o)
 .data          0x00000000        0x0 c:/program files/microchip/xc32/v4.21/bin/bin/../../lib/gcc/pic32c/8.3.1/arm/v5te/nofp\libgcc.a(_udivsi3.o)
 .bss           0x00000000        0x0 c:/program files/microchip/xc32/v4.21/bin/bin/../../lib/gcc/pic32c/8.3.1/arm/v5te/nofp\libgcc.a(_udivsi3.o)
 .xc_stack_usage.hdr
                0x00000000        0xe c:/program files/microchip/xc32/v4.21/bin/bin/../../lib/gcc/pic32c/8.3.1/arm/v5te/nofp\libgcc.a(_udivsi3.o)
 .xc_stack_usage
                0x00000000       0x35 c:/program files/microchip/xc32/v4.21/bin/bin/../../lib/gcc/pic32c/8.3.1/arm/v5te/nofp\libgcc.a(_udivsi3.o)
 .data          0x00000000        0x0 c:/program files/microchip/xc32/v4.21/bin/bin/../../lib/gcc/pic32c/8.3.1/arm/v5te/nofp\libgcc.a(_divsi3.o)
 .bss           0x00000000        0x0 c:/program files/microchip/xc32/v4.21/bin/bin/../../lib/gcc/pic32c/8.3.1/arm/v5te/nofp\libgcc.a(_divsi3.o)
 .xc_stack_usage.hdr
                0x00000000        0xe c:/program files/microchip/xc32/v4.21/bin/bin/../../lib/gcc/pic32c/8.3.1/arm/v5te/nofp\libgcc.a(_divsi3.o)
 .xc_stack_usage
                0x00000000       0x33 c:/program files/microchip/xc32/v4.21/bin/bin/../../lib/gcc/pic32c/8.3.1/arm/v5te/nofp\libgcc.a(_divsi3.o)
 .data          0x00000000        0x0 c:/program files/microchip/xc32/v4.21/bin/bin/../../lib/gcc/pic32c/8.3.1/arm/v5te/nofp\libgcc.a(_dvmd_tls.o)
 .bss           0x00000000        0x0 c:/program files/microchip/xc32/v4.21/bin/bin/../../lib/gcc/pic32c/8.3.1/arm/v5te/nofp\libgcc.a(_dvmd_tls.o)
 .xc_stack_usage.hdr
                0x00000000        0xe c:/program files/microchip/xc32/v4.21/bin/bin/../../lib/gcc/pic32c/8.3.1/arm/v5te/nofp\libgcc.a(_dvmd_tls.o)
 .xc_stack_usage
                0x00000000       0x36 c:/program files/microchip/xc32/v4.21/bin/bin/../../lib/gcc/pic32c/8.3.1/arm/v5te/nofp\libgcc.a(_dvmd_tls.o)
 .data          0x00000000        0x0 c:/program files/microchip/xc32/v4.21/bin/bin/../../lib/gcc/pic32c/8.3.1/arm/v5te/nofp\libgcc.a(_arm_addsubsf3.o)
 .bss           0x00000000        0x0 c:/program files/microchip/xc32/v4.21/bin/bin/../../lib/gcc/pic32c/8.3.1/arm/v5te/nofp\libgcc.a(_arm_addsubsf3.o)
 .xc_stack_usage.hdr
                0x00000000        0xe c:/program files/microchip/xc32/v4.21/bin/bin/../../lib/gcc/pic32c/8.3.1/arm/v5te/nofp\libgcc.a(_arm_addsubsf3.o)
 .xc_stack_usage
                0x00000000       0xaf c:/program files/microchip/xc32/v4.21/bin/bin/../../lib/gcc/pic32c/8.3.1/arm/v5te/nofp\libgcc.a(_arm_addsubsf3.o)
 .data          0x00000000        0x0 c:/program files/microchip/xc32/v4.21/bin/bin/../../lib/gcc/pic32c/8.3.1/arm/v5te/nofp\libgcc.a(_arm_muldivsf3.o)
 .bss           0x00000000        0x0 c:/program files/microchip/xc32/v4.21/bin/bin/../../lib/gcc/pic32c/8.3.1/arm/v5te/nofp\libgcc.a(_arm_muldivsf3.o)
 .xc_stack_usage.hdr
                0x00000000        0xe c:/program files/microchip/xc32/v4.21/bin/bin/../../lib/gcc/pic32c/8.3.1/arm/v5te/nofp\libgcc.a(_arm_muldivsf3.o)
 .xc_stack_usage
                0x00000000       0x2c c:/program files/microchip/xc32/v4.21/bin/bin/../../lib/gcc/pic32c/8.3.1/arm/v5te/nofp\libgcc.a(_arm_muldivsf3.o)
 .data          0x00000000        0x0 c:/program files/microchip/xc32/v4.21/bin/bin/../../lib/gcc/pic32c/8.3.1/arm/v5te/nofp\libgcc.a(_arm_cmpsf2.o)
 .bss           0x00000000        0x0 c:/program files/microchip/xc32/v4.21/bin/bin/../../lib/gcc/pic32c/8.3.1/arm/v5te/nofp\libgcc.a(_arm_cmpsf2.o)
 .xc_stack_usage.hdr
                0x00000000        0xe c:/program files/microchip/xc32/v4.21/bin/bin/../../lib/gcc/pic32c/8.3.1/arm/v5te/nofp\libgcc.a(_arm_cmpsf2.o)
 .xc_stack_usage
                0x00000000      0x107 c:/program files/microchip/xc32/v4.21/bin/bin/../../lib/gcc/pic32c/8.3.1/arm/v5te/nofp\libgcc.a(_arm_cmpsf2.o)
 .data          0x00000000        0x0 c:/program files/microchip/xc32/v4.21/bin/bin/../../lib/gcc/pic32c/8.3.1/arm/v5te/nofp\libgcc.a(_arm_fixsfsi.o)
 .bss           0x00000000        0x0 c:/program files/microchip/xc32/v4.21/bin/bin/../../lib/gcc/pic32c/8.3.1/arm/v5te/nofp\libgcc.a(_arm_fixsfsi.o)
 .xc_stack_usage.hdr
                0x00000000        0xe c:/program files/microchip/xc32/v4.21/bin/bin/../../lib/gcc/pic32c/8.3.1/arm/v5te/nofp\libgcc.a(_arm_fixsfsi.o)
 .xc_stack_usage
                0x00000000       0x17 c:/program files/microchip/xc32/v4.21/bin/bin/../../lib/gcc/pic32c/8.3.1/arm/v5te/nofp\libgcc.a(_arm_fixsfsi.o)
 .data          0x00000000        0x0 c:/program files/microchip/xc32/v4.21/bin/bin/../../lib/gcc/pic32c/8.3.1/arm/v5te/nofp\libgcc.a(_arm_fixunssfsi.o)
 .bss           0x00000000        0x0 c:/program files/microchip/xc32/v4.21/bin/bin/../../lib/gcc/pic32c/8.3.1/arm/v5te/nofp\libgcc.a(_arm_fixunssfsi.o)
 .xc_stack_usage.hdr
                0x00000000        0xe c:/program files/microchip/xc32/v4.21/bin/bin/../../lib/gcc/pic32c/8.3.1/arm/v5te/nofp\libgcc.a(_arm_fixunssfsi.o)
 .xc_stack_usage
                0x00000000       0x1a c:/program files/microchip/xc32/v4.21/bin/bin/../../lib/gcc/pic32c/8.3.1/arm/v5te/nofp\libgcc.a(_arm_fixunssfsi.o)
 .data          0x00000000        0x0 c:/program files/microchip/xc32/v4.21/bin/bin/../../lib/gcc/pic32c/8.3.1/arm/v5te/nofp\libgcc.a(_aeabi_uldivmod.o)
 .bss           0x00000000        0x0 c:/program files/microchip/xc32/v4.21/bin/bin/../../lib/gcc/pic32c/8.3.1/arm/v5te/nofp\libgcc.a(_aeabi_uldivmod.o)
 .xc_stack_usage.hdr
                0x00000000        0xe c:/program files/microchip/xc32/v4.21/bin/bin/../../lib/gcc/pic32c/8.3.1/arm/v5te/nofp\libgcc.a(_aeabi_uldivmod.o)
 .xc_stack_usage
                0x00000000       0x1e c:/program files/microchip/xc32/v4.21/bin/bin/../../lib/gcc/pic32c/8.3.1/arm/v5te/nofp\libgcc.a(_aeabi_uldivmod.o)
 .data          0x00000000        0x0 c:/program files/microchip/xc32/v4.21/bin/bin/../../lib/gcc/pic32c/8.3.1/arm/v5te/nofp\libgcc.a(_udivmoddi4.o)
 .bss           0x00000000        0x0 c:/program files/microchip/xc32/v4.21/bin/bin/../../lib/gcc/pic32c/8.3.1/arm/v5te/nofp\libgcc.a(_udivmoddi4.o)
 .xc_stack_usage
                0x00000000       0x1a c:/program files/microchip/xc32/v4.21/bin/bin/../../lib/gcc/pic32c/8.3.1/arm/v5te/nofp\libgcc.a(_udivmoddi4.o)
 .ARM.extab     0x00000000        0x0 c:/program files/microchip/xc32/v4.21/bin/bin/../../lib/gcc/pic32c/8.3.1/arm/v5te/nofp\libgcc.a(_udivmoddi4.o)
 .xc_stack_usage.hdr
                0x00000000        0xe c:/program files/microchip/xc32/v4.21/bin/bin/../../lib/gcc/pic32c/8.3.1/arm/v5te/nofp\libgcc.a(_udivmoddi4.o)
 .text          0x00000000        0x0 c:/program files/microchip/xc32/v4.21/bin/bin/../../lib/gcc/pic32c/8.3.1/../../../../pic32c/lib/arm/v5te/nofp\libm-musl.a(atan.o)
 .data          0x00000000        0x0 c:/program files/microchip/xc32/v4.21/bin/bin/../../lib/gcc/pic32c/8.3.1/../../../../pic32c/lib/arm/v5te/nofp\libm-musl.a(atan.o)
 .bss           0x00000000        0x0 c:/program files/microchip/xc32/v4.21/bin/bin/../../lib/gcc/pic32c/8.3.1/../../../../pic32c/lib/arm/v5te/nofp\libm-musl.a(atan.o)
 .xc_stack_usage
                0x00000000       0x12 c:/program files/microchip/xc32/v4.21/bin/bin/../../lib/gcc/pic32c/8.3.1/../../../../pic32c/lib/arm/v5te/nofp\libm-musl.a(atan.o)
 .text.atan     0x00000000      0x438 c:/program files/microchip/xc32/v4.21/bin/bin/../../lib/gcc/pic32c/8.3.1/../../../../pic32c/lib/arm/v5te/nofp\libm-musl.a(atan.o)
 .rodata        0x00000000       0x40 c:/program files/microchip/xc32/v4.21/bin/bin/../../lib/gcc/pic32c/8.3.1/../../../../pic32c/lib/arm/v5te/nofp\libm-musl.a(atan.o)
 .xc_stack_usage.hdr
                0x00000000        0xe c:/program files/microchip/xc32/v4.21/bin/bin/../../lib/gcc/pic32c/8.3.1/../../../../pic32c/lib/arm/v5te/nofp\libm-musl.a(atan.o)
 .debug_info    0x00000000      0x59a c:/program files/microchip/xc32/v4.21/bin/bin/../../lib/gcc/pic32c/8.3.1/../../../../pic32c/lib/arm/v5te/nofp\libm-musl.a(atan.o)
 .debug_abbrev  0x00000000      0x178 c:/program files/microchip/xc32/v4.21/bin/bin/../../lib/gcc/pic32c/8.3.1/../../../../pic32c/lib/arm/v5te/nofp\libm-musl.a(atan.o)
 .debug_loc     0x00000000      0x2db c:/program files/microchip/xc32/v4.21/bin/bin/../../lib/gcc/pic32c/8.3.1/../../../../pic32c/lib/arm/v5te/nofp\libm-musl.a(atan.o)
 .debug_aranges
                0x00000000       0x20 c:/program files/microchip/xc32/v4.21/bin/bin/../../lib/gcc/pic32c/8.3.1/../../../../pic32c/lib/arm/v5te/nofp\libm-musl.a(atan.o)
 .debug_ranges  0x00000000       0x10 c:/program files/microchip/xc32/v4.21/bin/bin/../../lib/gcc/pic32c/8.3.1/../../../../pic32c/lib/arm/v5te/nofp\libm-musl.a(atan.o)
 .debug_line    0x00000000      0x2ed c:/program files/microchip/xc32/v4.21/bin/bin/../../lib/gcc/pic32c/8.3.1/../../../../pic32c/lib/arm/v5te/nofp\libm-musl.a(atan.o)
 .debug_str     0x00000000        0x0 c:/program files/microchip/xc32/v4.21/bin/bin/../../lib/gcc/pic32c/8.3.1/../../../../pic32c/lib/arm/v5te/nofp\libm-musl.a(atan.o)
 .comment       0x00000000       0x2c c:/program files/microchip/xc32/v4.21/bin/bin/../../lib/gcc/pic32c/8.3.1/../../../../pic32c/lib/arm/v5te/nofp\libm-musl.a(atan.o)
 .note.GNU-stack
                0x00000000        0x0 c:/program files/microchip/xc32/v4.21/bin/bin/../../lib/gcc/pic32c/8.3.1/../../../../pic32c/lib/arm/v5te/nofp\libm-musl.a(atan.o)
 .debug_frame   0x00000000       0x3c c:/program files/microchip/xc32/v4.21/bin/bin/../../lib/gcc/pic32c/8.3.1/../../../../pic32c/lib/arm/v5te/nofp\libm-musl.a(atan.o)
 .ARM.attributes
                0x00000000       0x2d c:/program files/microchip/xc32/v4.21/bin/bin/../../lib/gcc/pic32c/8.3.1/../../../../pic32c/lib/arm/v5te/nofp\libm-musl.a(atan.o)
 .text          0x00000000        0x0 c:/program files/microchip/xc32/v4.21/bin/bin/../../lib/gcc/pic32c/8.3.1/../../../../pic32c/lib/arm/v5te/nofp\libm-musl.a(fabs.o)
 .data          0x00000000        0x0 c:/program files/microchip/xc32/v4.21/bin/bin/../../lib/gcc/pic32c/8.3.1/../../../../pic32c/lib/arm/v5te/nofp\libm-musl.a(fabs.o)
 .bss           0x00000000        0x0 c:/program files/microchip/xc32/v4.21/bin/bin/../../lib/gcc/pic32c/8.3.1/../../../../pic32c/lib/arm/v5te/nofp\libm-musl.a(fabs.o)
 .xc_stack_usage
                0x00000000       0x12 c:/program files/microchip/xc32/v4.21/bin/bin/../../lib/gcc/pic32c/8.3.1/../../../../pic32c/lib/arm/v5te/nofp\libm-musl.a(fabs.o)
 .text.fabs     0x00000000        0xc c:/program files/microchip/xc32/v4.21/bin/bin/../../lib/gcc/pic32c/8.3.1/../../../../pic32c/lib/arm/v5te/nofp\libm-musl.a(fabs.o)
 .xc_stack_usage.hdr
                0x00000000        0xe c:/program files/microchip/xc32/v4.21/bin/bin/../../lib/gcc/pic32c/8.3.1/../../../../pic32c/lib/arm/v5te/nofp\libm-musl.a(fabs.o)
 .debug_info    0x00000000      0x321 c:/program files/microchip/xc32/v4.21/bin/bin/../../lib/gcc/pic32c/8.3.1/../../../../pic32c/lib/arm/v5te/nofp\libm-musl.a(fabs.o)
 .debug_abbrev  0x00000000       0x8a c:/program files/microchip/xc32/v4.21/bin/bin/../../lib/gcc/pic32c/8.3.1/../../../../pic32c/lib/arm/v5te/nofp\libm-musl.a(fabs.o)
 .debug_aranges
                0x00000000       0x20 c:/program files/microchip/xc32/v4.21/bin/bin/../../lib/gcc/pic32c/8.3.1/../../../../pic32c/lib/arm/v5te/nofp\libm-musl.a(fabs.o)
 .debug_ranges  0x00000000       0x10 c:/program files/microchip/xc32/v4.21/bin/bin/../../lib/gcc/pic32c/8.3.1/../../../../pic32c/lib/arm/v5te/nofp\libm-musl.a(fabs.o)
 .debug_line    0x00000000       0xd6 c:/program files/microchip/xc32/v4.21/bin/bin/../../lib/gcc/pic32c/8.3.1/../../../../pic32c/lib/arm/v5te/nofp\libm-musl.a(fabs.o)
 .debug_str     0x00000000        0x0 c:/program files/microchip/xc32/v4.21/bin/bin/../../lib/gcc/pic32c/8.3.1/../../../../pic32c/lib/arm/v5te/nofp\libm-musl.a(fabs.o)
 .comment       0x00000000       0x2c c:/program files/microchip/xc32/v4.21/bin/bin/../../lib/gcc/pic32c/8.3.1/../../../../pic32c/lib/arm/v5te/nofp\libm-musl.a(fabs.o)
 .note.GNU-stack
                0x00000000        0x0 c:/program files/microchip/xc32/v4.21/bin/bin/../../lib/gcc/pic32c/8.3.1/../../../../pic32c/lib/arm/v5te/nofp\libm-musl.a(fabs.o)
 .debug_frame   0x00000000       0x20 c:/program files/microchip/xc32/v4.21/bin/bin/../../lib/gcc/pic32c/8.3.1/../../../../pic32c/lib/arm/v5te/nofp\libm-musl.a(fabs.o)
 .ARM.attributes
                0x00000000       0x2d c:/program files/microchip/xc32/v4.21/bin/bin/../../lib/gcc/pic32c/8.3.1/../../../../pic32c/lib/arm/v5te/nofp\libm-musl.a(fabs.o)
 .text          0x00000000        0x0 c:/program files/microchip/xc32/v4.21/bin/bin/../../lib/gcc/pic32c/8.3.1/../../../../pic32c/lib/arm/v5te/nofp\libg-musl.a(__libc_start_main.o)
 .data          0x00000000        0x0 c:/program files/microchip/xc32/v4.21/bin/bin/../../lib/gcc/pic32c/8.3.1/../../../../pic32c/lib/arm/v5te/nofp\libg-musl.a(__libc_start_main.o)
 .bss           0x00000000        0x0 c:/program files/microchip/xc32/v4.21/bin/bin/../../lib/gcc/pic32c/8.3.1/../../../../pic32c/lib/arm/v5te/nofp\libg-musl.a(__libc_start_main.o)
 .xc_stack_usage
                0x00000000       0x34 c:/program files/microchip/xc32/v4.21/bin/bin/../../lib/gcc/pic32c/8.3.1/../../../../pic32c/lib/arm/v5te/nofp\libg-musl.a(__libc_start_main.o)
 .xc_stack_usage.hdr
                0x00000000        0xe c:/program files/microchip/xc32/v4.21/bin/bin/../../lib/gcc/pic32c/8.3.1/../../../../pic32c/lib/arm/v5te/nofp\libg-musl.a(__libc_start_main.o)
 .text          0x00000000        0x0 c:/program files/microchip/xc32/v4.21/bin/bin/../../lib/gcc/pic32c/8.3.1/../../../../pic32c/lib/arm/v5te/nofp\libg-musl.a(libc.o)
 .data          0x00000000        0x0 c:/program files/microchip/xc32/v4.21/bin/bin/../../lib/gcc/pic32c/8.3.1/../../../../pic32c/lib/arm/v5te/nofp\libg-musl.a(libc.o)
 .xc_stack_usage.hdr
                0x00000000        0xe c:/program files/microchip/xc32/v4.21/bin/bin/../../lib/gcc/pic32c/8.3.1/../../../../pic32c/lib/arm/v5te/nofp\libg-musl.a(libc.o)
 .text          0x00000000        0x0 c:/program files/microchip/xc32/v4.21/bin/bin/../../lib/gcc/pic32c/8.3.1/../../../../pic32c/lib/arm/v5te/nofp\libg-musl.a(__sio_printf_dosux.o)
 .data          0x00000000        0x0 c:/program files/microchip/xc32/v4.21/bin/bin/../../lib/gcc/pic32c/8.3.1/../../../../pic32c/lib/arm/v5te/nofp\libg-musl.a(__sio_printf_dosux.o)
 .bss           0x00000000        0x0 c:/program files/microchip/xc32/v4.21/bin/bin/../../lib/gcc/pic32c/8.3.1/../../../../pic32c/lib/arm/v5te/nofp\libg-musl.a(__sio_printf_dosux.o)
 .xc_stack_usage
                0x00000000       0x3b c:/program files/microchip/xc32/v4.21/bin/bin/../../lib/gcc/pic32c/8.3.1/../../../../pic32c/lib/arm/v5te/nofp\libg-musl.a(__sio_printf_dosux.o)
 .text.__wrap_printf
                0x00000000       0x38 c:/program files/microchip/xc32/v4.21/bin/bin/../../lib/gcc/pic32c/8.3.1/../../../../pic32c/lib/arm/v5te/nofp\libg-musl.a(__sio_printf_dosux.o)
 .text.__sio_printf_dosux
                0x00000000       0x24 c:/program files/microchip/xc32/v4.21/bin/bin/../../lib/gcc/pic32c/8.3.1/../../../../pic32c/lib/arm/v5te/nofp\libg-musl.a(__sio_printf_dosux.o)
 .xc_stack_usage.hdr
                0x00000000        0xe c:/program files/microchip/xc32/v4.21/bin/bin/../../lib/gcc/pic32c/8.3.1/../../../../pic32c/lib/arm/v5te/nofp\libg-musl.a(__sio_printf_dosux.o)
 .debug_info    0x00000000      0x48a c:/program files/microchip/xc32/v4.21/bin/bin/../../lib/gcc/pic32c/8.3.1/../../../../pic32c/lib/arm/v5te/nofp\libg-musl.a(__sio_printf_dosux.o)
 .debug_abbrev  0x00000000      0x145 c:/program files/microchip/xc32/v4.21/bin/bin/../../lib/gcc/pic32c/8.3.1/../../../../pic32c/lib/arm/v5te/nofp\libg-musl.a(__sio_printf_dosux.o)
 .debug_loc     0x00000000       0x91 c:/program files/microchip/xc32/v4.21/bin/bin/../../lib/gcc/pic32c/8.3.1/../../../../pic32c/lib/arm/v5te/nofp\libg-musl.a(__sio_printf_dosux.o)
 .debug_aranges
                0x00000000       0x28 c:/program files/microchip/xc32/v4.21/bin/bin/../../lib/gcc/pic32c/8.3.1/../../../../pic32c/lib/arm/v5te/nofp\libg-musl.a(__sio_printf_dosux.o)
 .debug_ranges  0x00000000       0x18 c:/program files/microchip/xc32/v4.21/bin/bin/../../lib/gcc/pic32c/8.3.1/../../../../pic32c/lib/arm/v5te/nofp\libg-musl.a(__sio_printf_dosux.o)
 .debug_line    0x00000000      0x1c9 c:/program files/microchip/xc32/v4.21/bin/bin/../../lib/gcc/pic32c/8.3.1/../../../../pic32c/lib/arm/v5te/nofp\libg-musl.a(__sio_printf_dosux.o)
 .debug_str     0x00000000       0x78 c:/program files/microchip/xc32/v4.21/bin/bin/../../lib/gcc/pic32c/8.3.1/../../../../pic32c/lib/arm/v5te/nofp\libg-musl.a(__sio_printf_dosux.o)
 .comment       0x00000000       0x2c c:/program files/microchip/xc32/v4.21/bin/bin/../../lib/gcc/pic32c/8.3.1/../../../../pic32c/lib/arm/v5te/nofp\libg-musl.a(__sio_printf_dosux.o)
 .note.GNU-stack
                0x00000000        0x0 c:/program files/microchip/xc32/v4.21/bin/bin/../../lib/gcc/pic32c/8.3.1/../../../../pic32c/lib/arm/v5te/nofp\libg-musl.a(__sio_printf_dosux.o)
 .debug_frame   0x00000000       0x5c c:/program files/microchip/xc32/v4.21/bin/bin/../../lib/gcc/pic32c/8.3.1/../../../../pic32c/lib/arm/v5te/nofp\libg-musl.a(__sio_printf_dosux.o)
 .ARM.attributes
                0x00000000       0x2d c:/program files/microchip/xc32/v4.21/bin/bin/../../lib/gcc/pic32c/8.3.1/../../../../pic32c/lib/arm/v5te/nofp\libg-musl.a(__sio_printf_dosux.o)
 .text          0x00000000        0x0 c:/program files/microchip/xc32/v4.21/bin/bin/../../lib/gcc/pic32c/8.3.1/../../../../pic32c/lib/arm/v5te/nofp\libg-musl.a(__sio_sprintf_dosux.o)
 .data          0x00000000        0x0 c:/program files/microchip/xc32/v4.21/bin/bin/../../lib/gcc/pic32c/8.3.1/../../../../pic32c/lib/arm/v5te/nofp\libg-musl.a(__sio_sprintf_dosux.o)
 .bss           0x00000000        0x0 c:/program files/microchip/xc32/v4.21/bin/bin/../../lib/gcc/pic32c/8.3.1/../../../../pic32c/lib/arm/v5te/nofp\libg-musl.a(__sio_sprintf_dosux.o)
 .xc_stack_usage
                0x00000000       0x3d c:/program files/microchip/xc32/v4.21/bin/bin/../../lib/gcc/pic32c/8.3.1/../../../../pic32c/lib/arm/v5te/nofp\libg-musl.a(__sio_sprintf_dosux.o)
 .text.__sio_sprintf_dosux
                0x00000000       0x24 c:/program files/microchip/xc32/v4.21/bin/bin/../../lib/gcc/pic32c/8.3.1/../../../../pic32c/lib/arm/v5te/nofp\libg-musl.a(__sio_sprintf_dosux.o)
 .xc_stack_usage.hdr
                0x00000000        0xe c:/program files/microchip/xc32/v4.21/bin/bin/../../lib/gcc/pic32c/8.3.1/../../../../pic32c/lib/arm/v5te/nofp\libg-musl.a(__sio_sprintf_dosux.o)
 .text          0x00000000        0x0 c:/program files/microchip/xc32/v4.21/bin/bin/../../lib/gcc/pic32c/8.3.1/../../../../pic32c/lib/arm/v5te/nofp\libg-musl.a(__sio_sscanf_dosux.o)
 .data          0x00000000        0x0 c:/program files/microchip/xc32/v4.21/bin/bin/../../lib/gcc/pic32c/8.3.1/../../../../pic32c/lib/arm/v5te/nofp\libg-musl.a(__sio_sscanf_dosux.o)
 .bss           0x00000000        0x0 c:/program files/microchip/xc32/v4.21/bin/bin/../../lib/gcc/pic32c/8.3.1/../../../../pic32c/lib/arm/v5te/nofp\libg-musl.a(__sio_sscanf_dosux.o)
 .xc_stack_usage
                0x00000000       0x3b c:/program files/microchip/xc32/v4.21/bin/bin/../../lib/gcc/pic32c/8.3.1/../../../../pic32c/lib/arm/v5te/nofp\libg-musl.a(__sio_sscanf_dosux.o)
 .text.__wrap_sscanf
                0x00000000       0x28 c:/program files/microchip/xc32/v4.21/bin/bin/../../lib/gcc/pic32c/8.3.1/../../../../pic32c/lib/arm/v5te/nofp\libg-musl.a(__sio_sscanf_dosux.o)
 .text.__sio_sscanf_dosux
                0x00000000       0x1c c:/program files/microchip/xc32/v4.21/bin/bin/../../lib/gcc/pic32c/8.3.1/../../../../pic32c/lib/arm/v5te/nofp\libg-musl.a(__sio_sscanf_dosux.o)
 .xc_stack_usage.hdr
                0x00000000        0xe c:/program files/microchip/xc32/v4.21/bin/bin/../../lib/gcc/pic32c/8.3.1/../../../../pic32c/lib/arm/v5te/nofp\libg-musl.a(__sio_sscanf_dosux.o)
 .debug_info    0x00000000      0x439 c:/program files/microchip/xc32/v4.21/bin/bin/../../lib/gcc/pic32c/8.3.1/../../../../pic32c/lib/arm/v5te/nofp\libg-musl.a(__sio_sscanf_dosux.o)
 .debug_abbrev  0x00000000      0x12e c:/program files/microchip/xc32/v4.21/bin/bin/../../lib/gcc/pic32c/8.3.1/../../../../pic32c/lib/arm/v5te/nofp\libg-musl.a(__sio_sscanf_dosux.o)
 .debug_loc     0x00000000       0xb6 c:/program files/microchip/xc32/v4.21/bin/bin/../../lib/gcc/pic32c/8.3.1/../../../../pic32c/lib/arm/v5te/nofp\libg-musl.a(__sio_sscanf_dosux.o)
 .debug_aranges
                0x00000000       0x28 c:/program files/microchip/xc32/v4.21/bin/bin/../../lib/gcc/pic32c/8.3.1/../../../../pic32c/lib/arm/v5te/nofp\libg-musl.a(__sio_sscanf_dosux.o)
 .debug_ranges  0x00000000       0x18 c:/program files/microchip/xc32/v4.21/bin/bin/../../lib/gcc/pic32c/8.3.1/../../../../pic32c/lib/arm/v5te/nofp\libg-musl.a(__sio_sscanf_dosux.o)
 .debug_line    0x00000000      0x1ae c:/program files/microchip/xc32/v4.21/bin/bin/../../lib/gcc/pic32c/8.3.1/../../../../pic32c/lib/arm/v5te/nofp\libg-musl.a(__sio_sscanf_dosux.o)
 .debug_str     0x00000000       0x5a c:/program files/microchip/xc32/v4.21/bin/bin/../../lib/gcc/pic32c/8.3.1/../../../../pic32c/lib/arm/v5te/nofp\libg-musl.a(__sio_sscanf_dosux.o)
 .comment       0x00000000       0x2c c:/program files/microchip/xc32/v4.21/bin/bin/../../lib/gcc/pic32c/8.3.1/../../../../pic32c/lib/arm/v5te/nofp\libg-musl.a(__sio_sscanf_dosux.o)
 .note.GNU-stack
                0x00000000        0x0 c:/program files/microchip/xc32/v4.21/bin/bin/../../lib/gcc/pic32c/8.3.1/../../../../pic32c/lib/arm/v5te/nofp\libg-musl.a(__sio_sscanf_dosux.o)
 .debug_frame   0x00000000       0x58 c:/program files/microchip/xc32/v4.21/bin/bin/../../lib/gcc/pic32c/8.3.1/../../../../pic32c/lib/arm/v5te/nofp\libg-musl.a(__sio_sscanf_dosux.o)
 .ARM.attributes
                0x00000000       0x2d c:/program files/microchip/xc32/v4.21/bin/bin/../../lib/gcc/pic32c/8.3.1/../../../../pic32c/lib/arm/v5te/nofp\libg-musl.a(__sio_sscanf_dosux.o)
 .text          0x00000000        0x0 c:/program files/microchip/xc32/v4.21/bin/bin/../../lib/gcc/pic32c/8.3.1/../../../../pic32c/lib/arm/v5te/nofp\libg-musl.a(__fmt_d.o)
 .data          0x00000000        0x0 c:/program files/microchip/xc32/v4.21/bin/bin/../../lib/gcc/pic32c/8.3.1/../../../../pic32c/lib/arm/v5te/nofp\libg-musl.a(__fmt_d.o)
 .bss           0x00000000        0x0 c:/program files/microchip/xc32/v4.21/bin/bin/../../lib/gcc/pic32c/8.3.1/../../../../pic32c/lib/arm/v5te/nofp\libg-musl.a(__fmt_d.o)
 .xc_stack_usage
                0x00000000       0x15 c:/program files/microchip/xc32/v4.21/bin/bin/../../lib/gcc/pic32c/8.3.1/../../../../pic32c/lib/arm/v5te/nofp\libg-musl.a(__fmt_d.o)
 .xc_stack_usage.hdr
                0x00000000        0xe c:/program files/microchip/xc32/v4.21/bin/bin/../../lib/gcc/pic32c/8.3.1/../../../../pic32c/lib/arm/v5te/nofp\libg-musl.a(__fmt_d.o)
 .text          0x00000000        0x0 c:/program files/microchip/xc32/v4.21/bin/bin/../../lib/gcc/pic32c/8.3.1/../../../../pic32c/lib/arm/v5te/nofp\libg-musl.a(__fmt_o.o)
 .data          0x00000000        0x0 c:/program files/microchip/xc32/v4.21/bin/bin/../../lib/gcc/pic32c/8.3.1/../../../../pic32c/lib/arm/v5te/nofp\libg-musl.a(__fmt_o.o)
 .bss           0x00000000        0x0 c:/program files/microchip/xc32/v4.21/bin/bin/../../lib/gcc/pic32c/8.3.1/../../../../pic32c/lib/arm/v5te/nofp\libg-musl.a(__fmt_o.o)
 .xc_stack_usage
                0x00000000       0x15 c:/program files/microchip/xc32/v4.21/bin/bin/../../lib/gcc/pic32c/8.3.1/../../../../pic32c/lib/arm/v5te/nofp\libg-musl.a(__fmt_o.o)
 .xc_stack_usage.hdr
                0x00000000        0xe c:/program files/microchip/xc32/v4.21/bin/bin/../../lib/gcc/pic32c/8.3.1/../../../../pic32c/lib/arm/v5te/nofp\libg-musl.a(__fmt_o.o)
 .text          0x00000000        0x0 c:/program files/microchip/xc32/v4.21/bin/bin/../../lib/gcc/pic32c/8.3.1/../../../../pic32c/lib/arm/v5te/nofp\libg-musl.a(__fmt_s.o)
 .data          0x00000000        0x0 c:/program files/microchip/xc32/v4.21/bin/bin/../../lib/gcc/pic32c/8.3.1/../../../../pic32c/lib/arm/v5te/nofp\libg-musl.a(__fmt_s.o)
 .bss           0x00000000        0x0 c:/program files/microchip/xc32/v4.21/bin/bin/../../lib/gcc/pic32c/8.3.1/../../../../pic32c/lib/arm/v5te/nofp\libg-musl.a(__fmt_s.o)
 .xc_stack_usage
                0x00000000       0x15 c:/program files/microchip/xc32/v4.21/bin/bin/../../lib/gcc/pic32c/8.3.1/../../../../pic32c/lib/arm/v5te/nofp\libg-musl.a(__fmt_s.o)
 .xc_stack_usage.hdr
                0x00000000        0xe c:/program files/microchip/xc32/v4.21/bin/bin/../../lib/gcc/pic32c/8.3.1/../../../../pic32c/lib/arm/v5te/nofp\libg-musl.a(__fmt_s.o)
 .text          0x00000000        0x0 c:/program files/microchip/xc32/v4.21/bin/bin/../../lib/gcc/pic32c/8.3.1/../../../../pic32c/lib/arm/v5te/nofp\libg-musl.a(__fmt_u.o)
 .data          0x00000000        0x0 c:/program files/microchip/xc32/v4.21/bin/bin/../../lib/gcc/pic32c/8.3.1/../../../../pic32c/lib/arm/v5te/nofp\libg-musl.a(__fmt_u.o)
 .bss           0x00000000        0x0 c:/program files/microchip/xc32/v4.21/bin/bin/../../lib/gcc/pic32c/8.3.1/../../../../pic32c/lib/arm/v5te/nofp\libg-musl.a(__fmt_u.o)
 .xc_stack_usage
                0x00000000       0x2a c:/program files/microchip/xc32/v4.21/bin/bin/../../lib/gcc/pic32c/8.3.1/../../../../pic32c/lib/arm/v5te/nofp\libg-musl.a(__fmt_u.o)
 .xc_stack_usage.hdr
                0x00000000        0xe c:/program files/microchip/xc32/v4.21/bin/bin/../../lib/gcc/pic32c/8.3.1/../../../../pic32c/lib/arm/v5te/nofp\libg-musl.a(__fmt_u.o)
 .text          0x00000000        0x0 c:/program files/microchip/xc32/v4.21/bin/bin/../../lib/gcc/pic32c/8.3.1/../../../../pic32c/lib/arm/v5te/nofp\libg-musl.a(__fmt_x.o)
 .data          0x00000000        0x0 c:/program files/microchip/xc32/v4.21/bin/bin/../../lib/gcc/pic32c/8.3.1/../../../../pic32c/lib/arm/v5te/nofp\libg-musl.a(__fmt_x.o)
 .bss           0x00000000        0x0 c:/program files/microchip/xc32/v4.21/bin/bin/../../lib/gcc/pic32c/8.3.1/../../../../pic32c/lib/arm/v5te/nofp\libg-musl.a(__fmt_x.o)
 .xc_stack_usage
                0x00000000       0x15 c:/program files/microchip/xc32/v4.21/bin/bin/../../lib/gcc/pic32c/8.3.1/../../../../pic32c/lib/arm/v5te/nofp\libg-musl.a(__fmt_x.o)
 .xc_stack_usage.hdr
                0x00000000        0xe c:/program files/microchip/xc32/v4.21/bin/bin/../../lib/gcc/pic32c/8.3.1/../../../../pic32c/lib/arm/v5te/nofp\libg-musl.a(__fmt_x.o)
 .text          0x00000000        0x0 c:/program files/microchip/xc32/v4.21/bin/bin/../../lib/gcc/pic32c/8.3.1/../../../../pic32c/lib/arm/v5te/nofp\libg-musl.a(__pop_int.o)
 .data          0x00000000        0x0 c:/program files/microchip/xc32/v4.21/bin/bin/../../lib/gcc/pic32c/8.3.1/../../../../pic32c/lib/arm/v5te/nofp\libg-musl.a(__pop_int.o)
 .bss           0x00000000        0x0 c:/program files/microchip/xc32/v4.21/bin/bin/../../lib/gcc/pic32c/8.3.1/../../../../pic32c/lib/arm/v5te/nofp\libg-musl.a(__pop_int.o)
 .xc_stack_usage
                0x00000000       0x17 c:/program files/microchip/xc32/v4.21/bin/bin/../../lib/gcc/pic32c/8.3.1/../../../../pic32c/lib/arm/v5te/nofp\libg-musl.a(__pop_int.o)
 .xc_stack_usage.hdr
                0x00000000        0xe c:/program files/microchip/xc32/v4.21/bin/bin/../../lib/gcc/pic32c/8.3.1/../../../../pic32c/lib/arm/v5te/nofp\libg-musl.a(__pop_int.o)
 .text          0x00000000        0x0 c:/program files/microchip/xc32/v4.21/bin/bin/../../lib/gcc/pic32c/8.3.1/../../../../pic32c/lib/arm/v5te/nofp\libg-musl.a(__pop_ptr.o)
 .data          0x00000000        0x0 c:/program files/microchip/xc32/v4.21/bin/bin/../../lib/gcc/pic32c/8.3.1/../../../../pic32c/lib/arm/v5te/nofp\libg-musl.a(__pop_ptr.o)
 .bss           0x00000000        0x0 c:/program files/microchip/xc32/v4.21/bin/bin/../../lib/gcc/pic32c/8.3.1/../../../../pic32c/lib/arm/v5te/nofp\libg-musl.a(__pop_ptr.o)
 .xc_stack_usage
                0x00000000       0x17 c:/program files/microchip/xc32/v4.21/bin/bin/../../lib/gcc/pic32c/8.3.1/../../../../pic32c/lib/arm/v5te/nofp\libg-musl.a(__pop_ptr.o)
 .xc_stack_usage.hdr
                0x00000000        0xe c:/program files/microchip/xc32/v4.21/bin/bin/../../lib/gcc/pic32c/8.3.1/../../../../pic32c/lib/arm/v5te/nofp\libg-musl.a(__pop_ptr.o)
 .text          0x00000000        0x0 c:/program files/microchip/xc32/v4.21/bin/bin/../../lib/gcc/pic32c/8.3.1/../../../../pic32c/lib/arm/v5te/nofp\libg-musl.a(__printf_core.o)
 .data          0x00000000        0x0 c:/program files/microchip/xc32/v4.21/bin/bin/../../lib/gcc/pic32c/8.3.1/../../../../pic32c/lib/arm/v5te/nofp\libg-musl.a(__printf_core.o)
 .bss           0x00000000        0x0 c:/program files/microchip/xc32/v4.21/bin/bin/../../lib/gcc/pic32c/8.3.1/../../../../pic32c/lib/arm/v5te/nofp\libg-musl.a(__printf_core.o)
 .xc_stack_usage
                0x00000000       0xaf c:/program files/microchip/xc32/v4.21/bin/bin/../../lib/gcc/pic32c/8.3.1/../../../../pic32c/lib/arm/v5te/nofp\libg-musl.a(__printf_core.o)
 .text.__string_out
                0x00000000       0x44 c:/program files/microchip/xc32/v4.21/bin/bin/../../lib/gcc/pic32c/8.3.1/../../../../pic32c/lib/arm/v5te/nofp\libg-musl.a(__printf_core.o)
 .text.__dummy_fmt3
                0x00000000        0x8 c:/program files/microchip/xc32/v4.21/bin/bin/../../lib/gcc/pic32c/8.3.1/../../../../pic32c/lib/arm/v5te/nofp\libg-musl.a(__printf_core.o)
 .text.__dummy_fmts
                0x00000000        0x8 c:/program files/microchip/xc32/v4.21/bin/bin/../../lib/gcc/pic32c/8.3.1/../../../../pic32c/lib/arm/v5te/nofp\libg-musl.a(__printf_core.o)
 .xc_stack_usage.hdr
                0x00000000        0xe c:/program files/microchip/xc32/v4.21/bin/bin/../../lib/gcc/pic32c/8.3.1/../../../../pic32c/lib/arm/v5te/nofp\libg-musl.a(__printf_core.o)
 .text          0x00000000        0x0 c:/program files/microchip/xc32/v4.21/bin/bin/../../lib/gcc/pic32c/8.3.1/../../../../pic32c/lib/arm/v5te/nofp\libg-musl.a(__scan_d.o)
 .data          0x00000000        0x0 c:/program files/microchip/xc32/v4.21/bin/bin/../../lib/gcc/pic32c/8.3.1/../../../../pic32c/lib/arm/v5te/nofp\libg-musl.a(__scan_d.o)
 .bss           0x00000000        0x0 c:/program files/microchip/xc32/v4.21/bin/bin/../../lib/gcc/pic32c/8.3.1/../../../../pic32c/lib/arm/v5te/nofp\libg-musl.a(__scan_d.o)
 .xc_stack_usage
                0x00000000       0x51 c:/program files/microchip/xc32/v4.21/bin/bin/../../lib/gcc/pic32c/8.3.1/../../../../pic32c/lib/arm/v5te/nofp\libg-musl.a(__scan_d.o)
 .text.__read_int
                0x00000000       0xec c:/program files/microchip/xc32/v4.21/bin/bin/../../lib/gcc/pic32c/8.3.1/../../../../pic32c/lib/arm/v5te/nofp\libg-musl.a(__scan_d.o)
 .text.__scan_d
                0x00000000       0x4c c:/program files/microchip/xc32/v4.21/bin/bin/../../lib/gcc/pic32c/8.3.1/../../../../pic32c/lib/arm/v5te/nofp\libg-musl.a(__scan_d.o)
 __xc_reference_data
                0x00000000        0xc c:/program files/microchip/xc32/v4.21/bin/bin/../../lib/gcc/pic32c/8.3.1/../../../../pic32c/lib/arm/v5te/nofp\libg-musl.a(__scan_d.o)
 .xc_stack_usage.hdr
                0x00000000        0xe c:/program files/microchip/xc32/v4.21/bin/bin/../../lib/gcc/pic32c/8.3.1/../../../../pic32c/lib/arm/v5te/nofp\libg-musl.a(__scan_d.o)
 .debug_info    0x00000000      0x8b8 c:/program files/microchip/xc32/v4.21/bin/bin/../../lib/gcc/pic32c/8.3.1/../../../../pic32c/lib/arm/v5te/nofp\libg-musl.a(__scan_d.o)
 .debug_abbrev  0x00000000      0x197 c:/program files/microchip/xc32/v4.21/bin/bin/../../lib/gcc/pic32c/8.3.1/../../../../pic32c/lib/arm/v5te/nofp\libg-musl.a(__scan_d.o)
 .debug_loc     0x00000000      0x22b c:/program files/microchip/xc32/v4.21/bin/bin/../../lib/gcc/pic32c/8.3.1/../../../../pic32c/lib/arm/v5te/nofp\libg-musl.a(__scan_d.o)
 .debug_aranges
                0x00000000       0x30 c:/program files/microchip/xc32/v4.21/bin/bin/../../lib/gcc/pic32c/8.3.1/../../../../pic32c/lib/arm/v5te/nofp\libg-musl.a(__scan_d.o)
 .debug_ranges  0x00000000       0x20 c:/program files/microchip/xc32/v4.21/bin/bin/../../lib/gcc/pic32c/8.3.1/../../../../pic32c/lib/arm/v5te/nofp\libg-musl.a(__scan_d.o)
 .debug_line    0x00000000      0x337 c:/program files/microchip/xc32/v4.21/bin/bin/../../lib/gcc/pic32c/8.3.1/../../../../pic32c/lib/arm/v5te/nofp\libg-musl.a(__scan_d.o)
 .debug_str     0x00000000       0x22 c:/program files/microchip/xc32/v4.21/bin/bin/../../lib/gcc/pic32c/8.3.1/../../../../pic32c/lib/arm/v5te/nofp\libg-musl.a(__scan_d.o)
 .comment       0x00000000       0x2c c:/program files/microchip/xc32/v4.21/bin/bin/../../lib/gcc/pic32c/8.3.1/../../../../pic32c/lib/arm/v5te/nofp\libg-musl.a(__scan_d.o)
 .note.GNU-stack
                0x00000000        0x0 c:/program files/microchip/xc32/v4.21/bin/bin/../../lib/gcc/pic32c/8.3.1/../../../../pic32c/lib/arm/v5te/nofp\libg-musl.a(__scan_d.o)
 .debug_frame   0x00000000       0x60 c:/program files/microchip/xc32/v4.21/bin/bin/../../lib/gcc/pic32c/8.3.1/../../../../pic32c/lib/arm/v5te/nofp\libg-musl.a(__scan_d.o)
 .ARM.attributes
                0x00000000       0x2d c:/program files/microchip/xc32/v4.21/bin/bin/../../lib/gcc/pic32c/8.3.1/../../../../pic32c/lib/arm/v5te/nofp\libg-musl.a(__scan_d.o)
 .text          0x00000000        0x0 c:/program files/microchip/xc32/v4.21/bin/bin/../../lib/gcc/pic32c/8.3.1/../../../../pic32c/lib/arm/v5te/nofp\libg-musl.a(__scan_i.o)
 .data          0x00000000        0x0 c:/program files/microchip/xc32/v4.21/bin/bin/../../lib/gcc/pic32c/8.3.1/../../../../pic32c/lib/arm/v5te/nofp\libg-musl.a(__scan_i.o)
 .bss           0x00000000        0x0 c:/program files/microchip/xc32/v4.21/bin/bin/../../lib/gcc/pic32c/8.3.1/../../../../pic32c/lib/arm/v5te/nofp\libg-musl.a(__scan_i.o)
 .xc_stack_usage
                0x00000000       0x16 c:/program files/microchip/xc32/v4.21/bin/bin/../../lib/gcc/pic32c/8.3.1/../../../../pic32c/lib/arm/v5te/nofp\libg-musl.a(__scan_i.o)
 .text.__scan_i
                0x00000000      0x228 c:/program files/microchip/xc32/v4.21/bin/bin/../../lib/gcc/pic32c/8.3.1/../../../../pic32c/lib/arm/v5te/nofp\libg-musl.a(__scan_i.o)
 .xc_stack_usage.hdr
                0x00000000        0xe c:/program files/microchip/xc32/v4.21/bin/bin/../../lib/gcc/pic32c/8.3.1/../../../../pic32c/lib/arm/v5te/nofp\libg-musl.a(__scan_i.o)
 .debug_info    0x00000000      0x8a8 c:/program files/microchip/xc32/v4.21/bin/bin/../../lib/gcc/pic32c/8.3.1/../../../../pic32c/lib/arm/v5te/nofp\libg-musl.a(__scan_i.o)
 .debug_abbrev  0x00000000      0x19c c:/program files/microchip/xc32/v4.21/bin/bin/../../lib/gcc/pic32c/8.3.1/../../../../pic32c/lib/arm/v5te/nofp\libg-musl.a(__scan_i.o)
 .debug_loc     0x00000000      0x2ee c:/program files/microchip/xc32/v4.21/bin/bin/../../lib/gcc/pic32c/8.3.1/../../../../pic32c/lib/arm/v5te/nofp\libg-musl.a(__scan_i.o)
 .debug_aranges
                0x00000000       0x20 c:/program files/microchip/xc32/v4.21/bin/bin/../../lib/gcc/pic32c/8.3.1/../../../../pic32c/lib/arm/v5te/nofp\libg-musl.a(__scan_i.o)
 .debug_ranges  0x00000000       0x10 c:/program files/microchip/xc32/v4.21/bin/bin/../../lib/gcc/pic32c/8.3.1/../../../../pic32c/lib/arm/v5te/nofp\libg-musl.a(__scan_i.o)
 .debug_line    0x00000000      0x3b2 c:/program files/microchip/xc32/v4.21/bin/bin/../../lib/gcc/pic32c/8.3.1/../../../../pic32c/lib/arm/v5te/nofp\libg-musl.a(__scan_i.o)
 .debug_str     0x00000000       0x24 c:/program files/microchip/xc32/v4.21/bin/bin/../../lib/gcc/pic32c/8.3.1/../../../../pic32c/lib/arm/v5te/nofp\libg-musl.a(__scan_i.o)
 .comment       0x00000000       0x2c c:/program files/microchip/xc32/v4.21/bin/bin/../../lib/gcc/pic32c/8.3.1/../../../../pic32c/lib/arm/v5te/nofp\libg-musl.a(__scan_i.o)
 .note.GNU-stack
                0x00000000        0x0 c:/program files/microchip/xc32/v4.21/bin/bin/../../lib/gcc/pic32c/8.3.1/../../../../pic32c/lib/arm/v5te/nofp\libg-musl.a(__scan_i.o)
 .debug_frame   0x00000000       0x40 c:/program files/microchip/xc32/v4.21/bin/bin/../../lib/gcc/pic32c/8.3.1/../../../../pic32c/lib/arm/v5te/nofp\libg-musl.a(__scan_i.o)
 .ARM.attributes
                0x00000000       0x2d c:/program files/microchip/xc32/v4.21/bin/bin/../../lib/gcc/pic32c/8.3.1/../../../../pic32c/lib/arm/v5te/nofp\libg-musl.a(__scan_i.o)
 .text          0x00000000        0x0 c:/program files/microchip/xc32/v4.21/bin/bin/../../lib/gcc/pic32c/8.3.1/../../../../pic32c/lib/arm/v5te/nofp\libg-musl.a(__scan_o.o)
 .data          0x00000000        0x0 c:/program files/microchip/xc32/v4.21/bin/bin/../../lib/gcc/pic32c/8.3.1/../../../../pic32c/lib/arm/v5te/nofp\libg-musl.a(__scan_o.o)
 .bss           0x00000000        0x0 c:/program files/microchip/xc32/v4.21/bin/bin/../../lib/gcc/pic32c/8.3.1/../../../../pic32c/lib/arm/v5te/nofp\libg-musl.a(__scan_o.o)
 .xc_stack_usage
                0x00000000       0x16 c:/program files/microchip/xc32/v4.21/bin/bin/../../lib/gcc/pic32c/8.3.1/../../../../pic32c/lib/arm/v5te/nofp\libg-musl.a(__scan_o.o)
 .text.__scan_o
                0x00000000       0xf0 c:/program files/microchip/xc32/v4.21/bin/bin/../../lib/gcc/pic32c/8.3.1/../../../../pic32c/lib/arm/v5te/nofp\libg-musl.a(__scan_o.o)
 .xc_stack_usage.hdr
                0x00000000        0xe c:/program files/microchip/xc32/v4.21/bin/bin/../../lib/gcc/pic32c/8.3.1/../../../../pic32c/lib/arm/v5te/nofp\libg-musl.a(__scan_o.o)
 .debug_info    0x00000000      0x7d3 c:/program files/microchip/xc32/v4.21/bin/bin/../../lib/gcc/pic32c/8.3.1/../../../../pic32c/lib/arm/v5te/nofp\libg-musl.a(__scan_o.o)
 .debug_abbrev  0x00000000      0x15b c:/program files/microchip/xc32/v4.21/bin/bin/../../lib/gcc/pic32c/8.3.1/../../../../pic32c/lib/arm/v5te/nofp\libg-musl.a(__scan_o.o)
 .debug_loc     0x00000000      0x178 c:/program files/microchip/xc32/v4.21/bin/bin/../../lib/gcc/pic32c/8.3.1/../../../../pic32c/lib/arm/v5te/nofp\libg-musl.a(__scan_o.o)
 .debug_aranges
                0x00000000       0x20 c:/program files/microchip/xc32/v4.21/bin/bin/../../lib/gcc/pic32c/8.3.1/../../../../pic32c/lib/arm/v5te/nofp\libg-musl.a(__scan_o.o)
 .debug_ranges  0x00000000       0x10 c:/program files/microchip/xc32/v4.21/bin/bin/../../lib/gcc/pic32c/8.3.1/../../../../pic32c/lib/arm/v5te/nofp\libg-musl.a(__scan_o.o)
 .debug_line    0x00000000      0x2d5 c:/program files/microchip/xc32/v4.21/bin/bin/../../lib/gcc/pic32c/8.3.1/../../../../pic32c/lib/arm/v5te/nofp\libg-musl.a(__scan_o.o)
 .debug_str     0x00000000       0x1b c:/program files/microchip/xc32/v4.21/bin/bin/../../lib/gcc/pic32c/8.3.1/../../../../pic32c/lib/arm/v5te/nofp\libg-musl.a(__scan_o.o)
 .comment       0x00000000       0x2c c:/program files/microchip/xc32/v4.21/bin/bin/../../lib/gcc/pic32c/8.3.1/../../../../pic32c/lib/arm/v5te/nofp\libg-musl.a(__scan_o.o)
 .note.GNU-stack
                0x00000000        0x0 c:/program files/microchip/xc32/v4.21/bin/bin/../../lib/gcc/pic32c/8.3.1/../../../../pic32c/lib/arm/v5te/nofp\libg-musl.a(__scan_o.o)
 .debug_frame   0x00000000       0x3c c:/program files/microchip/xc32/v4.21/bin/bin/../../lib/gcc/pic32c/8.3.1/../../../../pic32c/lib/arm/v5te/nofp\libg-musl.a(__scan_o.o)
 .ARM.attributes
                0x00000000       0x2d c:/program files/microchip/xc32/v4.21/bin/bin/../../lib/gcc/pic32c/8.3.1/../../../../pic32c/lib/arm/v5te/nofp\libg-musl.a(__scan_o.o)
 .text          0x00000000        0x0 c:/program files/microchip/xc32/v4.21/bin/bin/../../lib/gcc/pic32c/8.3.1/../../../../pic32c/lib/arm/v5te/nofp\libg-musl.a(__scan_s.o)
 .data          0x00000000        0x0 c:/program files/microchip/xc32/v4.21/bin/bin/../../lib/gcc/pic32c/8.3.1/../../../../pic32c/lib/arm/v5te/nofp\libg-musl.a(__scan_s.o)
 .bss           0x00000000        0x0 c:/program files/microchip/xc32/v4.21/bin/bin/../../lib/gcc/pic32c/8.3.1/../../../../pic32c/lib/arm/v5te/nofp\libg-musl.a(__scan_s.o)
 .xc_stack_usage
                0x00000000       0x16 c:/program files/microchip/xc32/v4.21/bin/bin/../../lib/gcc/pic32c/8.3.1/../../../../pic32c/lib/arm/v5te/nofp\libg-musl.a(__scan_s.o)
 .text.__scan_s
                0x00000000       0xec c:/program files/microchip/xc32/v4.21/bin/bin/../../lib/gcc/pic32c/8.3.1/../../../../pic32c/lib/arm/v5te/nofp\libg-musl.a(__scan_s.o)
 .xc_stack_usage.hdr
                0x00000000        0xe c:/program files/microchip/xc32/v4.21/bin/bin/../../lib/gcc/pic32c/8.3.1/../../../../pic32c/lib/arm/v5te/nofp\libg-musl.a(__scan_s.o)
 .debug_info    0x00000000      0x74c c:/program files/microchip/xc32/v4.21/bin/bin/../../lib/gcc/pic32c/8.3.1/../../../../pic32c/lib/arm/v5te/nofp\libg-musl.a(__scan_s.o)
 .debug_abbrev  0x00000000      0x183 c:/program files/microchip/xc32/v4.21/bin/bin/../../lib/gcc/pic32c/8.3.1/../../../../pic32c/lib/arm/v5te/nofp\libg-musl.a(__scan_s.o)
 .debug_loc     0x00000000      0x127 c:/program files/microchip/xc32/v4.21/bin/bin/../../lib/gcc/pic32c/8.3.1/../../../../pic32c/lib/arm/v5te/nofp\libg-musl.a(__scan_s.o)
 .debug_aranges
                0x00000000       0x20 c:/program files/microchip/xc32/v4.21/bin/bin/../../lib/gcc/pic32c/8.3.1/../../../../pic32c/lib/arm/v5te/nofp\libg-musl.a(__scan_s.o)
 .debug_ranges  0x00000000       0x10 c:/program files/microchip/xc32/v4.21/bin/bin/../../lib/gcc/pic32c/8.3.1/../../../../pic32c/lib/arm/v5te/nofp\libg-musl.a(__scan_s.o)
 .debug_line    0x00000000      0x2d9 c:/program files/microchip/xc32/v4.21/bin/bin/../../lib/gcc/pic32c/8.3.1/../../../../pic32c/lib/arm/v5te/nofp\libg-musl.a(__scan_s.o)
 .debug_str     0x00000000       0x12 c:/program files/microchip/xc32/v4.21/bin/bin/../../lib/gcc/pic32c/8.3.1/../../../../pic32c/lib/arm/v5te/nofp\libg-musl.a(__scan_s.o)
 .comment       0x00000000       0x2c c:/program files/microchip/xc32/v4.21/bin/bin/../../lib/gcc/pic32c/8.3.1/../../../../pic32c/lib/arm/v5te/nofp\libg-musl.a(__scan_s.o)
 .note.GNU-stack
                0x00000000        0x0 c:/program files/microchip/xc32/v4.21/bin/bin/../../lib/gcc/pic32c/8.3.1/../../../../pic32c/lib/arm/v5te/nofp\libg-musl.a(__scan_s.o)
 .debug_frame   0x00000000       0x34 c:/program files/microchip/xc32/v4.21/bin/bin/../../lib/gcc/pic32c/8.3.1/../../../../pic32c/lib/arm/v5te/nofp\libg-musl.a(__scan_s.o)
 .ARM.attributes
                0x00000000       0x2d c:/program files/microchip/xc32/v4.21/bin/bin/../../lib/gcc/pic32c/8.3.1/../../../../pic32c/lib/arm/v5te/nofp\libg-musl.a(__scan_s.o)
 .text          0x00000000        0x0 c:/program files/microchip/xc32/v4.21/bin/bin/../../lib/gcc/pic32c/8.3.1/../../../../pic32c/lib/arm/v5te/nofp\libg-musl.a(__scan_u.o)
 .data          0x00000000        0x0 c:/program files/microchip/xc32/v4.21/bin/bin/../../lib/gcc/pic32c/8.3.1/../../../../pic32c/lib/arm/v5te/nofp\libg-musl.a(__scan_u.o)
 .bss           0x00000000        0x0 c:/program files/microchip/xc32/v4.21/bin/bin/../../lib/gcc/pic32c/8.3.1/../../../../pic32c/lib/arm/v5te/nofp\libg-musl.a(__scan_u.o)
 .xc_stack_usage
                0x00000000       0x16 c:/program files/microchip/xc32/v4.21/bin/bin/../../lib/gcc/pic32c/8.3.1/../../../../pic32c/lib/arm/v5te/nofp\libg-musl.a(__scan_u.o)
 .text.__scan_u
                0x00000000       0x4c c:/program files/microchip/xc32/v4.21/bin/bin/../../lib/gcc/pic32c/8.3.1/../../../../pic32c/lib/arm/v5te/nofp\libg-musl.a(__scan_u.o)
 .xc_stack_usage.hdr
                0x00000000        0xe c:/program files/microchip/xc32/v4.21/bin/bin/../../lib/gcc/pic32c/8.3.1/../../../../pic32c/lib/arm/v5te/nofp\libg-musl.a(__scan_u.o)
 .debug_info    0x00000000      0x549 c:/program files/microchip/xc32/v4.21/bin/bin/../../lib/gcc/pic32c/8.3.1/../../../../pic32c/lib/arm/v5te/nofp\libg-musl.a(__scan_u.o)
 .debug_abbrev  0x00000000      0x120 c:/program files/microchip/xc32/v4.21/bin/bin/../../lib/gcc/pic32c/8.3.1/../../../../pic32c/lib/arm/v5te/nofp\libg-musl.a(__scan_u.o)
 .debug_loc     0x00000000       0xdf c:/program files/microchip/xc32/v4.21/bin/bin/../../lib/gcc/pic32c/8.3.1/../../../../pic32c/lib/arm/v5te/nofp\libg-musl.a(__scan_u.o)
 .debug_aranges
                0x00000000       0x20 c:/program files/microchip/xc32/v4.21/bin/bin/../../lib/gcc/pic32c/8.3.1/../../../../pic32c/lib/arm/v5te/nofp\libg-musl.a(__scan_u.o)
 .debug_ranges  0x00000000       0x10 c:/program files/microchip/xc32/v4.21/bin/bin/../../lib/gcc/pic32c/8.3.1/../../../../pic32c/lib/arm/v5te/nofp\libg-musl.a(__scan_u.o)
 .debug_line    0x00000000      0x1e9 c:/program files/microchip/xc32/v4.21/bin/bin/../../lib/gcc/pic32c/8.3.1/../../../../pic32c/lib/arm/v5te/nofp\libg-musl.a(__scan_u.o)
 .debug_str     0x00000000       0x14 c:/program files/microchip/xc32/v4.21/bin/bin/../../lib/gcc/pic32c/8.3.1/../../../../pic32c/lib/arm/v5te/nofp\libg-musl.a(__scan_u.o)
 .comment       0x00000000       0x2c c:/program files/microchip/xc32/v4.21/bin/bin/../../lib/gcc/pic32c/8.3.1/../../../../pic32c/lib/arm/v5te/nofp\libg-musl.a(__scan_u.o)
 .note.GNU-stack
                0x00000000        0x0 c:/program files/microchip/xc32/v4.21/bin/bin/../../lib/gcc/pic32c/8.3.1/../../../../pic32c/lib/arm/v5te/nofp\libg-musl.a(__scan_u.o)
 .debug_frame   0x00000000       0x2c c:/program files/microchip/xc32/v4.21/bin/bin/../../lib/gcc/pic32c/8.3.1/../../../../pic32c/lib/arm/v5te/nofp\libg-musl.a(__scan_u.o)
 .ARM.attributes
                0x00000000       0x2d c:/program files/microchip/xc32/v4.21/bin/bin/../../lib/gcc/pic32c/8.3.1/../../../../pic32c/lib/arm/v5te/nofp\libg-musl.a(__scan_u.o)
 .text          0x00000000        0x0 c:/program files/microchip/xc32/v4.21/bin/bin/../../lib/gcc/pic32c/8.3.1/../../../../pic32c/lib/arm/v5te/nofp\libg-musl.a(__scan_x.o)
 .data          0x00000000        0x0 c:/program files/microchip/xc32/v4.21/bin/bin/../../lib/gcc/pic32c/8.3.1/../../../../pic32c/lib/arm/v5te/nofp\libg-musl.a(__scan_x.o)
 .bss           0x00000000        0x0 c:/program files/microchip/xc32/v4.21/bin/bin/../../lib/gcc/pic32c/8.3.1/../../../../pic32c/lib/arm/v5te/nofp\libg-musl.a(__scan_x.o)
 .xc_stack_usage
                0x00000000       0x16 c:/program files/microchip/xc32/v4.21/bin/bin/../../lib/gcc/pic32c/8.3.1/../../../../pic32c/lib/arm/v5te/nofp\libg-musl.a(__scan_x.o)
 .text.__scan_x
                0x00000000      0x164 c:/program files/microchip/xc32/v4.21/bin/bin/../../lib/gcc/pic32c/8.3.1/../../../../pic32c/lib/arm/v5te/nofp\libg-musl.a(__scan_x.o)
 .xc_stack_usage.hdr
                0x00000000        0xe c:/program files/microchip/xc32/v4.21/bin/bin/../../lib/gcc/pic32c/8.3.1/../../../../pic32c/lib/arm/v5te/nofp\libg-musl.a(__scan_x.o)
 .debug_info    0x00000000      0x84e c:/program files/microchip/xc32/v4.21/bin/bin/../../lib/gcc/pic32c/8.3.1/../../../../pic32c/lib/arm/v5te/nofp\libg-musl.a(__scan_x.o)
 .debug_abbrev  0x00000000      0x17a c:/program files/microchip/xc32/v4.21/bin/bin/../../lib/gcc/pic32c/8.3.1/../../../../pic32c/lib/arm/v5te/nofp\libg-musl.a(__scan_x.o)
 .debug_loc     0x00000000      0x18d c:/program files/microchip/xc32/v4.21/bin/bin/../../lib/gcc/pic32c/8.3.1/../../../../pic32c/lib/arm/v5te/nofp\libg-musl.a(__scan_x.o)
 .debug_aranges
                0x00000000       0x20 c:/program files/microchip/xc32/v4.21/bin/bin/../../lib/gcc/pic32c/8.3.1/../../../../pic32c/lib/arm/v5te/nofp\libg-musl.a(__scan_x.o)
 .debug_ranges  0x00000000       0x10 c:/program files/microchip/xc32/v4.21/bin/bin/../../lib/gcc/pic32c/8.3.1/../../../../pic32c/lib/arm/v5te/nofp\libg-musl.a(__scan_x.o)
 .debug_line    0x00000000      0x307 c:/program files/microchip/xc32/v4.21/bin/bin/../../lib/gcc/pic32c/8.3.1/../../../../pic32c/lib/arm/v5te/nofp\libg-musl.a(__scan_x.o)
 .debug_str     0x00000000       0x24 c:/program files/microchip/xc32/v4.21/bin/bin/../../lib/gcc/pic32c/8.3.1/../../../../pic32c/lib/arm/v5te/nofp\libg-musl.a(__scan_x.o)
 .comment       0x00000000       0x2c c:/program files/microchip/xc32/v4.21/bin/bin/../../lib/gcc/pic32c/8.3.1/../../../../pic32c/lib/arm/v5te/nofp\libg-musl.a(__scan_x.o)
 .note.GNU-stack
                0x00000000        0x0 c:/program files/microchip/xc32/v4.21/bin/bin/../../lib/gcc/pic32c/8.3.1/../../../../pic32c/lib/arm/v5te/nofp\libg-musl.a(__scan_x.o)
 .debug_frame   0x00000000       0x3c c:/program files/microchip/xc32/v4.21/bin/bin/../../lib/gcc/pic32c/8.3.1/../../../../pic32c/lib/arm/v5te/nofp\libg-musl.a(__scan_x.o)
 .ARM.attributes
                0x00000000       0x2d c:/program files/microchip/xc32/v4.21/bin/bin/../../lib/gcc/pic32c/8.3.1/../../../../pic32c/lib/arm/v5te/nofp\libg-musl.a(__scan_x.o)
 .text          0x00000000        0x0 c:/program files/microchip/xc32/v4.21/bin/bin/../../lib/gcc/pic32c/8.3.1/../../../../pic32c/lib/arm/v5te/nofp\libg-musl.a(__scanf_core.o)
 .data          0x00000000        0x0 c:/program files/microchip/xc32/v4.21/bin/bin/../../lib/gcc/pic32c/8.3.1/../../../../pic32c/lib/arm/v5te/nofp\libg-musl.a(__scanf_core.o)
 .bss           0x00000000        0x0 c:/program files/microchip/xc32/v4.21/bin/bin/../../lib/gcc/pic32c/8.3.1/../../../../pic32c/lib/arm/v5te/nofp\libg-musl.a(__scanf_core.o)
 .xc_stack_usage
                0x00000000       0x9d c:/program files/microchip/xc32/v4.21/bin/bin/../../lib/gcc/pic32c/8.3.1/../../../../pic32c/lib/arm/v5te/nofp\libg-musl.a(__scanf_core.o)
 .text.__skipws
                0x00000000       0x6c c:/program files/microchip/xc32/v4.21/bin/bin/../../lib/gcc/pic32c/8.3.1/../../../../pic32c/lib/arm/v5te/nofp\libg-musl.a(__scanf_core.o)
 .text.__consumews
                0x00000000       0x58 c:/program files/microchip/xc32/v4.21/bin/bin/../../lib/gcc/pic32c/8.3.1/../../../../pic32c/lib/arm/v5te/nofp\libg-musl.a(__scanf_core.o)
 .text.__dummy_scan
                0x00000000        0x8 c:/program files/microchip/xc32/v4.21/bin/bin/../../lib/gcc/pic32c/8.3.1/../../../../pic32c/lib/arm/v5te/nofp\libg-musl.a(__scanf_core.o)
 .text.__dummy_scan_s
                0x00000000        0x8 c:/program files/microchip/xc32/v4.21/bin/bin/../../lib/gcc/pic32c/8.3.1/../../../../pic32c/lib/arm/v5te/nofp\libg-musl.a(__scanf_core.o)
 .text.__scanf_core
                0x00000000      0x6ac c:/program files/microchip/xc32/v4.21/bin/bin/../../lib/gcc/pic32c/8.3.1/../../../../pic32c/lib/arm/v5te/nofp\libg-musl.a(__scanf_core.o)
 __xc_reference_data
                0x00000000        0x4 c:/program files/microchip/xc32/v4.21/bin/bin/../../lib/gcc/pic32c/8.3.1/../../../../pic32c/lib/arm/v5te/nofp\libg-musl.a(__scanf_core.o)
 .xc_stack_usage.hdr
                0x00000000        0xe c:/program files/microchip/xc32/v4.21/bin/bin/../../lib/gcc/pic32c/8.3.1/../../../../pic32c/lib/arm/v5te/nofp\libg-musl.a(__scanf_core.o)
 .debug_info    0x00000000      0xecb c:/program files/microchip/xc32/v4.21/bin/bin/../../lib/gcc/pic32c/8.3.1/../../../../pic32c/lib/arm/v5te/nofp\libg-musl.a(__scanf_core.o)
 .debug_abbrev  0x00000000      0x2ce c:/program files/microchip/xc32/v4.21/bin/bin/../../lib/gcc/pic32c/8.3.1/../../../../pic32c/lib/arm/v5te/nofp\libg-musl.a(__scanf_core.o)
 .debug_loc     0x00000000      0x8eb c:/program files/microchip/xc32/v4.21/bin/bin/../../lib/gcc/pic32c/8.3.1/../../../../pic32c/lib/arm/v5te/nofp\libg-musl.a(__scanf_core.o)
 .debug_aranges
                0x00000000       0x48 c:/program files/microchip/xc32/v4.21/bin/bin/../../lib/gcc/pic32c/8.3.1/../../../../pic32c/lib/arm/v5te/nofp\libg-musl.a(__scanf_core.o)
 .debug_ranges  0x00000000       0x98 c:/program files/microchip/xc32/v4.21/bin/bin/../../lib/gcc/pic32c/8.3.1/../../../../pic32c/lib/arm/v5te/nofp\libg-musl.a(__scanf_core.o)
 .debug_line    0x00000000      0x728 c:/program files/microchip/xc32/v4.21/bin/bin/../../lib/gcc/pic32c/8.3.1/../../../../pic32c/lib/arm/v5te/nofp\libg-musl.a(__scanf_core.o)
 .debug_str     0x00000000       0x43 c:/program files/microchip/xc32/v4.21/bin/bin/../../lib/gcc/pic32c/8.3.1/../../../../pic32c/lib/arm/v5te/nofp\libg-musl.a(__scanf_core.o)
 .comment       0x00000000       0x2c c:/program files/microchip/xc32/v4.21/bin/bin/../../lib/gcc/pic32c/8.3.1/../../../../pic32c/lib/arm/v5te/nofp\libg-musl.a(__scanf_core.o)
 .note.GNU-stack
                0x00000000        0x0 c:/program files/microchip/xc32/v4.21/bin/bin/../../lib/gcc/pic32c/8.3.1/../../../../pic32c/lib/arm/v5te/nofp\libg-musl.a(__scanf_core.o)
 .debug_frame   0x00000000       0xa8 c:/program files/microchip/xc32/v4.21/bin/bin/../../lib/gcc/pic32c/8.3.1/../../../../pic32c/lib/arm/v5te/nofp\libg-musl.a(__scanf_core.o)
 .ARM.attributes
                0x00000000       0x2d c:/program files/microchip/xc32/v4.21/bin/bin/../../lib/gcc/pic32c/8.3.1/../../../../pic32c/lib/arm/v5te/nofp\libg-musl.a(__scanf_core.o)
 .text          0x00000000        0x0 c:/program files/microchip/xc32/v4.21/bin/bin/../../lib/gcc/pic32c/8.3.1/../../../../pic32c/lib/arm/v5te/nofp\libg-musl.a(stdout.o)
 .data          0x00000000       0x20 c:/program files/microchip/xc32/v4.21/bin/bin/../../lib/gcc/pic32c/8.3.1/../../../../pic32c/lib/arm/v5te/nofp\libg-musl.a(stdout.o)
 .xc_stack_usage
                0x00000000       0x51 c:/program files/microchip/xc32/v4.21/bin/bin/../../lib/gcc/pic32c/8.3.1/../../../../pic32c/lib/arm/v5te/nofp\libg-musl.a(stdout.o)
 .text.__dummy  0x00000000        0xc c:/program files/microchip/xc32/v4.21/bin/bin/../../lib/gcc/pic32c/8.3.1/../../../../pic32c/lib/arm/v5te/nofp\libg-musl.a(stdout.o)
 .xc_stack_usage.hdr
                0x00000000        0xe c:/program files/microchip/xc32/v4.21/bin/bin/../../lib/gcc/pic32c/8.3.1/../../../../pic32c/lib/arm/v5te/nofp\libg-musl.a(stdout.o)
 .text          0x00000000        0x0 c:/program files/microchip/xc32/v4.21/bin/bin/../../lib/gcc/pic32c/8.3.1/../../../../pic32c/lib/arm/v5te/nofp\libg-musl.a(putchar.o)
 .data          0x00000000        0x0 c:/program files/microchip/xc32/v4.21/bin/bin/../../lib/gcc/pic32c/8.3.1/../../../../pic32c/lib/arm/v5te/nofp\libg-musl.a(putchar.o)
 .bss           0x00000000        0x0 c:/program files/microchip/xc32/v4.21/bin/bin/../../lib/gcc/pic32c/8.3.1/../../../../pic32c/lib/arm/v5te/nofp\libg-musl.a(putchar.o)
 .xc_stack_usage
                0x00000000       0x15 c:/program files/microchip/xc32/v4.21/bin/bin/../../lib/gcc/pic32c/8.3.1/../../../../pic32c/lib/arm/v5te/nofp\libg-musl.a(putchar.o)
 .text.putchar  0x00000000       0x14 c:/program files/microchip/xc32/v4.21/bin/bin/../../lib/gcc/pic32c/8.3.1/../../../../pic32c/lib/arm/v5te/nofp\libg-musl.a(putchar.o)
 .xc_stack_usage.hdr
                0x00000000        0xe c:/program files/microchip/xc32/v4.21/bin/bin/../../lib/gcc/pic32c/8.3.1/../../../../pic32c/lib/arm/v5te/nofp\libg-musl.a(putchar.o)
 .debug_info    0x00000000      0x2c8 c:/program files/microchip/xc32/v4.21/bin/bin/../../lib/gcc/pic32c/8.3.1/../../../../pic32c/lib/arm/v5te/nofp\libg-musl.a(putchar.o)
 .debug_abbrev  0x00000000       0xbc c:/program files/microchip/xc32/v4.21/bin/bin/../../lib/gcc/pic32c/8.3.1/../../../../pic32c/lib/arm/v5te/nofp\libg-musl.a(putchar.o)
 .debug_loc     0x00000000       0x25 c:/program files/microchip/xc32/v4.21/bin/bin/../../lib/gcc/pic32c/8.3.1/../../../../pic32c/lib/arm/v5te/nofp\libg-musl.a(putchar.o)
 .debug_aranges
                0x00000000       0x20 c:/program files/microchip/xc32/v4.21/bin/bin/../../lib/gcc/pic32c/8.3.1/../../../../pic32c/lib/arm/v5te/nofp\libg-musl.a(putchar.o)
 .debug_ranges  0x00000000       0x10 c:/program files/microchip/xc32/v4.21/bin/bin/../../lib/gcc/pic32c/8.3.1/../../../../pic32c/lib/arm/v5te/nofp\libg-musl.a(putchar.o)
 .debug_line    0x00000000      0x13d c:/program files/microchip/xc32/v4.21/bin/bin/../../lib/gcc/pic32c/8.3.1/../../../../pic32c/lib/arm/v5te/nofp\libg-musl.a(putchar.o)
 .debug_str     0x00000000        0x0 c:/program files/microchip/xc32/v4.21/bin/bin/../../lib/gcc/pic32c/8.3.1/../../../../pic32c/lib/arm/v5te/nofp\libg-musl.a(putchar.o)
 .comment       0x00000000       0x2c c:/program files/microchip/xc32/v4.21/bin/bin/../../lib/gcc/pic32c/8.3.1/../../../../pic32c/lib/arm/v5te/nofp\libg-musl.a(putchar.o)
 .note.GNU-stack
                0x00000000        0x0 c:/program files/microchip/xc32/v4.21/bin/bin/../../lib/gcc/pic32c/8.3.1/../../../../pic32c/lib/arm/v5te/nofp\libg-musl.a(putchar.o)
 .debug_frame   0x00000000       0x20 c:/program files/microchip/xc32/v4.21/bin/bin/../../lib/gcc/pic32c/8.3.1/../../../../pic32c/lib/arm/v5te/nofp\libg-musl.a(putchar.o)
 .ARM.attributes
                0x00000000       0x2d c:/program files/microchip/xc32/v4.21/bin/bin/../../lib/gcc/pic32c/8.3.1/../../../../pic32c/lib/arm/v5te/nofp\libg-musl.a(putchar.o)
 .text          0x00000000        0x0 c:/program files/microchip/xc32/v4.21/bin/bin/../../lib/gcc/pic32c/8.3.1/../../../../pic32c/lib/arm/v5te/nofp\libg-musl.a(puts.o)
 .data          0x00000000        0x0 c:/program files/microchip/xc32/v4.21/bin/bin/../../lib/gcc/pic32c/8.3.1/../../../../pic32c/lib/arm/v5te/nofp\libg-musl.a(puts.o)
 .bss           0x00000000        0x0 c:/program files/microchip/xc32/v4.21/bin/bin/../../lib/gcc/pic32c/8.3.1/../../../../pic32c/lib/arm/v5te/nofp\libg-musl.a(puts.o)
 .xc_stack_usage
                0x00000000       0x12 c:/program files/microchip/xc32/v4.21/bin/bin/../../lib/gcc/pic32c/8.3.1/../../../../pic32c/lib/arm/v5te/nofp\libg-musl.a(puts.o)
 .text.puts     0x00000000       0x40 c:/program files/microchip/xc32/v4.21/bin/bin/../../lib/gcc/pic32c/8.3.1/../../../../pic32c/lib/arm/v5te/nofp\libg-musl.a(puts.o)
 .xc_stack_usage.hdr
                0x00000000        0xe c:/program files/microchip/xc32/v4.21/bin/bin/../../lib/gcc/pic32c/8.3.1/../../../../pic32c/lib/arm/v5te/nofp\libg-musl.a(puts.o)
 .debug_info    0x00000000      0x635 c:/program files/microchip/xc32/v4.21/bin/bin/../../lib/gcc/pic32c/8.3.1/../../../../pic32c/lib/arm/v5te/nofp\libg-musl.a(puts.o)
 .debug_abbrev  0x00000000      0x151 c:/program files/microchip/xc32/v4.21/bin/bin/../../lib/gcc/pic32c/8.3.1/../../../../pic32c/lib/arm/v5te/nofp\libg-musl.a(puts.o)
 .debug_loc     0x00000000       0x6a c:/program files/microchip/xc32/v4.21/bin/bin/../../lib/gcc/pic32c/8.3.1/../../../../pic32c/lib/arm/v5te/nofp\libg-musl.a(puts.o)
 .debug_aranges
                0x00000000       0x20 c:/program files/microchip/xc32/v4.21/bin/bin/../../lib/gcc/pic32c/8.3.1/../../../../pic32c/lib/arm/v5te/nofp\libg-musl.a(puts.o)
 .debug_ranges  0x00000000       0x10 c:/program files/microchip/xc32/v4.21/bin/bin/../../lib/gcc/pic32c/8.3.1/../../../../pic32c/lib/arm/v5te/nofp\libg-musl.a(puts.o)
 .debug_line    0x00000000      0x1d9 c:/program files/microchip/xc32/v4.21/bin/bin/../../lib/gcc/pic32c/8.3.1/../../../../pic32c/lib/arm/v5te/nofp\libg-musl.a(puts.o)
 .debug_str     0x00000000        0xe c:/program files/microchip/xc32/v4.21/bin/bin/../../lib/gcc/pic32c/8.3.1/../../../../pic32c/lib/arm/v5te/nofp\libg-musl.a(puts.o)
 .comment       0x00000000       0x2c c:/program files/microchip/xc32/v4.21/bin/bin/../../lib/gcc/pic32c/8.3.1/../../../../pic32c/lib/arm/v5te/nofp\libg-musl.a(puts.o)
 .note.GNU-stack
                0x00000000        0x0 c:/program files/microchip/xc32/v4.21/bin/bin/../../lib/gcc/pic32c/8.3.1/../../../../pic32c/lib/arm/v5te/nofp\libg-musl.a(puts.o)
 .debug_frame   0x00000000       0x28 c:/program files/microchip/xc32/v4.21/bin/bin/../../lib/gcc/pic32c/8.3.1/../../../../pic32c/lib/arm/v5te/nofp\libg-musl.a(puts.o)
 .ARM.attributes
                0x00000000       0x2d c:/program files/microchip/xc32/v4.21/bin/bin/../../lib/gcc/pic32c/8.3.1/../../../../pic32c/lib/arm/v5te/nofp\libg-musl.a(puts.o)
 .text          0x00000000        0x0 c:/program files/microchip/xc32/v4.21/bin/bin/../../lib/gcc/pic32c/8.3.1/../../../../pic32c/lib/arm/v5te/nofp\libg-musl.a(atoi.o)
 .data          0x00000000        0x0 c:/program files/microchip/xc32/v4.21/bin/bin/../../lib/gcc/pic32c/8.3.1/../../../../pic32c/lib/arm/v5te/nofp\libg-musl.a(atoi.o)
 .bss           0x00000000        0x0 c:/program files/microchip/xc32/v4.21/bin/bin/../../lib/gcc/pic32c/8.3.1/../../../../pic32c/lib/arm/v5te/nofp\libg-musl.a(atoi.o)
 .xc_stack_usage
                0x00000000       0x12 c:/program files/microchip/xc32/v4.21/bin/bin/../../lib/gcc/pic32c/8.3.1/../../../../pic32c/lib/arm/v5te/nofp\libg-musl.a(atoi.o)
 .xc_stack_usage.hdr
                0x00000000        0xe c:/program files/microchip/xc32/v4.21/bin/bin/../../lib/gcc/pic32c/8.3.1/../../../../pic32c/lib/arm/v5te/nofp\libg-musl.a(atoi.o)
 .text          0x00000000        0x0 c:/program files/microchip/xc32/v4.21/bin/bin/../../lib/gcc/pic32c/8.3.1/../../../../pic32c/lib/arm/v5te/nofp\libg-musl.a(strtol.o)
 .data          0x00000000        0x0 c:/program files/microchip/xc32/v4.21/bin/bin/../../lib/gcc/pic32c/8.3.1/../../../../pic32c/lib/arm/v5te/nofp\libg-musl.a(strtol.o)
 .bss           0x00000000        0x0 c:/program files/microchip/xc32/v4.21/bin/bin/../../lib/gcc/pic32c/8.3.1/../../../../pic32c/lib/arm/v5te/nofp\libg-musl.a(strtol.o)
 .xc_stack_usage
                0x00000000       0x96 c:/program files/microchip/xc32/v4.21/bin/bin/../../lib/gcc/pic32c/8.3.1/../../../../pic32c/lib/arm/v5te/nofp\libg-musl.a(strtol.o)
 .text.strtox   0x00000000       0x84 c:/program files/microchip/xc32/v4.21/bin/bin/../../lib/gcc/pic32c/8.3.1/../../../../pic32c/lib/arm/v5te/nofp\libg-musl.a(strtol.o)
 .text.strtoull
                0x00000000       0x1c c:/program files/microchip/xc32/v4.21/bin/bin/../../lib/gcc/pic32c/8.3.1/../../../../pic32c/lib/arm/v5te/nofp\libg-musl.a(strtol.o)
 .text.strtoll  0x00000000       0x1c c:/program files/microchip/xc32/v4.21/bin/bin/../../lib/gcc/pic32c/8.3.1/../../../../pic32c/lib/arm/v5te/nofp\libg-musl.a(strtol.o)
 .text.strtoul  0x00000000       0x1c c:/program files/microchip/xc32/v4.21/bin/bin/../../lib/gcc/pic32c/8.3.1/../../../../pic32c/lib/arm/v5te/nofp\libg-musl.a(strtol.o)
 .text.strtol   0x00000000       0x1c c:/program files/microchip/xc32/v4.21/bin/bin/../../lib/gcc/pic32c/8.3.1/../../../../pic32c/lib/arm/v5te/nofp\libg-musl.a(strtol.o)
 .text.strtoimax
                0x00000000        0x4 c:/program files/microchip/xc32/v4.21/bin/bin/../../lib/gcc/pic32c/8.3.1/../../../../pic32c/lib/arm/v5te/nofp\libg-musl.a(strtol.o)
 .text.strtoumax
                0x00000000        0x4 c:/program files/microchip/xc32/v4.21/bin/bin/../../lib/gcc/pic32c/8.3.1/../../../../pic32c/lib/arm/v5te/nofp\libg-musl.a(strtol.o)
 .xc_stack_usage.hdr
                0x00000000        0xe c:/program files/microchip/xc32/v4.21/bin/bin/../../lib/gcc/pic32c/8.3.1/../../../../pic32c/lib/arm/v5te/nofp\libg-musl.a(strtol.o)
 .debug_info    0x00000000      0x9e1 c:/program files/microchip/xc32/v4.21/bin/bin/../../lib/gcc/pic32c/8.3.1/../../../../pic32c/lib/arm/v5te/nofp\libg-musl.a(strtol.o)
 .debug_abbrev  0x00000000      0x1c7 c:/program files/microchip/xc32/v4.21/bin/bin/../../lib/gcc/pic32c/8.3.1/../../../../pic32c/lib/arm/v5te/nofp\libg-musl.a(strtol.o)
 .debug_loc     0x00000000      0x440 c:/program files/microchip/xc32/v4.21/bin/bin/../../lib/gcc/pic32c/8.3.1/../../../../pic32c/lib/arm/v5te/nofp\libg-musl.a(strtol.o)
 .debug_aranges
                0x00000000       0x50 c:/program files/microchip/xc32/v4.21/bin/bin/../../lib/gcc/pic32c/8.3.1/../../../../pic32c/lib/arm/v5te/nofp\libg-musl.a(strtol.o)
 .debug_ranges  0x00000000       0x40 c:/program files/microchip/xc32/v4.21/bin/bin/../../lib/gcc/pic32c/8.3.1/../../../../pic32c/lib/arm/v5te/nofp\libg-musl.a(strtol.o)
 .debug_line    0x00000000      0x2e7 c:/program files/microchip/xc32/v4.21/bin/bin/../../lib/gcc/pic32c/8.3.1/../../../../pic32c/lib/arm/v5te/nofp\libg-musl.a(strtol.o)
 .debug_str     0x00000000        0xf c:/program files/microchip/xc32/v4.21/bin/bin/../../lib/gcc/pic32c/8.3.1/../../../../pic32c/lib/arm/v5te/nofp\libg-musl.a(strtol.o)
 .comment       0x00000000       0x2c c:/program files/microchip/xc32/v4.21/bin/bin/../../lib/gcc/pic32c/8.3.1/../../../../pic32c/lib/arm/v5te/nofp\libg-musl.a(strtol.o)
 .note.GNU-stack
                0x00000000        0x0 c:/program files/microchip/xc32/v4.21/bin/bin/../../lib/gcc/pic32c/8.3.1/../../../../pic32c/lib/arm/v5te/nofp\libg-musl.a(strtol.o)
 .debug_frame   0x00000000       0xc4 c:/program files/microchip/xc32/v4.21/bin/bin/../../lib/gcc/pic32c/8.3.1/../../../../pic32c/lib/arm/v5te/nofp\libg-musl.a(strtol.o)
 .ARM.attributes
                0x00000000       0x2d c:/program files/microchip/xc32/v4.21/bin/bin/../../lib/gcc/pic32c/8.3.1/../../../../pic32c/lib/arm/v5te/nofp\libg-musl.a(strtol.o)
 .text          0x00000000        0x0 c:/program files/microchip/xc32/v4.21/bin/bin/../../lib/gcc/pic32c/8.3.1/../../../../pic32c/lib/arm/v5te/nofp\libg-musl.a(memcpy.o)
 .data          0x00000000        0x0 c:/program files/microchip/xc32/v4.21/bin/bin/../../lib/gcc/pic32c/8.3.1/../../../../pic32c/lib/arm/v5te/nofp\libg-musl.a(memcpy.o)
 .bss           0x00000000        0x0 c:/program files/microchip/xc32/v4.21/bin/bin/../../lib/gcc/pic32c/8.3.1/../../../../pic32c/lib/arm/v5te/nofp\libg-musl.a(memcpy.o)
 .xc_stack_usage
                0x00000000       0x14 c:/program files/microchip/xc32/v4.21/bin/bin/../../lib/gcc/pic32c/8.3.1/../../../../pic32c/lib/arm/v5te/nofp\libg-musl.a(memcpy.o)
 .xc_stack_usage.hdr
                0x00000000        0xe c:/program files/microchip/xc32/v4.21/bin/bin/../../lib/gcc/pic32c/8.3.1/../../../../pic32c/lib/arm/v5te/nofp\libg-musl.a(memcpy.o)
 .text          0x00000000        0x0 c:/program files/microchip/xc32/v4.21/bin/bin/../../lib/gcc/pic32c/8.3.1/../../../../pic32c/lib/arm/v5te/nofp\libg-musl.a(memset.o)
 .data          0x00000000        0x0 c:/program files/microchip/xc32/v4.21/bin/bin/../../lib/gcc/pic32c/8.3.1/../../../../pic32c/lib/arm/v5te/nofp\libg-musl.a(memset.o)
 .bss           0x00000000        0x0 c:/program files/microchip/xc32/v4.21/bin/bin/../../lib/gcc/pic32c/8.3.1/../../../../pic32c/lib/arm/v5te/nofp\libg-musl.a(memset.o)
 .xc_stack_usage
                0x00000000       0x14 c:/program files/microchip/xc32/v4.21/bin/bin/../../lib/gcc/pic32c/8.3.1/../../../../pic32c/lib/arm/v5te/nofp\libg-musl.a(memset.o)
 .xc_stack_usage.hdr
                0x00000000        0xe c:/program files/microchip/xc32/v4.21/bin/bin/../../lib/gcc/pic32c/8.3.1/../../../../pic32c/lib/arm/v5te/nofp\libg-musl.a(memset.o)
 .text          0x00000000        0x0 c:/program files/microchip/xc32/v4.21/bin/bin/../../lib/gcc/pic32c/8.3.1/../../../../pic32c/lib/arm/v5te/nofp\libg-musl.a(strlen.o)
 .data          0x00000000        0x0 c:/program files/microchip/xc32/v4.21/bin/bin/../../lib/gcc/pic32c/8.3.1/../../../../pic32c/lib/arm/v5te/nofp\libg-musl.a(strlen.o)
 .bss           0x00000000        0x0 c:/program files/microchip/xc32/v4.21/bin/bin/../../lib/gcc/pic32c/8.3.1/../../../../pic32c/lib/arm/v5te/nofp\libg-musl.a(strlen.o)
 .xc_stack_usage
                0x00000000       0x14 c:/program files/microchip/xc32/v4.21/bin/bin/../../lib/gcc/pic32c/8.3.1/../../../../pic32c/lib/arm/v5te/nofp\libg-musl.a(strlen.o)
 .xc_stack_usage.hdr
                0x00000000        0xe c:/program files/microchip/xc32/v4.21/bin/bin/../../lib/gcc/pic32c/8.3.1/../../../../pic32c/lib/arm/v5te/nofp\libg-musl.a(strlen.o)
 .text          0x00000000        0x0 c:/program files/microchip/xc32/v4.21/bin/bin/../../lib/gcc/pic32c/8.3.1/../../../../pic32c/lib/arm/v5te/nofp\libg-musl.a(strcmp.o)
 .data          0x00000000        0x0 c:/program files/microchip/xc32/v4.21/bin/bin/../../lib/gcc/pic32c/8.3.1/../../../../pic32c/lib/arm/v5te/nofp\libg-musl.a(strcmp.o)
 .bss           0x00000000        0x0 c:/program files/microchip/xc32/v4.21/bin/bin/../../lib/gcc/pic32c/8.3.1/../../../../pic32c/lib/arm/v5te/nofp\libg-musl.a(strcmp.o)
 .xc_stack_usage
                0x00000000       0x14 c:/program files/microchip/xc32/v4.21/bin/bin/../../lib/gcc/pic32c/8.3.1/../../../../pic32c/lib/arm/v5te/nofp\libg-musl.a(strcmp.o)
 .text.strcmp   0x00000000       0x28 c:/program files/microchip/xc32/v4.21/bin/bin/../../lib/gcc/pic32c/8.3.1/../../../../pic32c/lib/arm/v5te/nofp\libg-musl.a(strcmp.o)
 .xc_stack_usage.hdr
                0x00000000        0xe c:/program files/microchip/xc32/v4.21/bin/bin/../../lib/gcc/pic32c/8.3.1/../../../../pic32c/lib/arm/v5te/nofp\libg-musl.a(strcmp.o)
 .debug_info    0x00000000      0x278 c:/program files/microchip/xc32/v4.21/bin/bin/../../lib/gcc/pic32c/8.3.1/../../../../pic32c/lib/arm/v5te/nofp\libg-musl.a(strcmp.o)
 .debug_abbrev  0x00000000       0x63 c:/program files/microchip/xc32/v4.21/bin/bin/../../lib/gcc/pic32c/8.3.1/../../../../pic32c/lib/arm/v5te/nofp\libg-musl.a(strcmp.o)
 .debug_loc     0x00000000       0x76 c:/program files/microchip/xc32/v4.21/bin/bin/../../lib/gcc/pic32c/8.3.1/../../../../pic32c/lib/arm/v5te/nofp\libg-musl.a(strcmp.o)
 .debug_aranges
                0x00000000       0x20 c:/program files/microchip/xc32/v4.21/bin/bin/../../lib/gcc/pic32c/8.3.1/../../../../pic32c/lib/arm/v5te/nofp\libg-musl.a(strcmp.o)
 .debug_ranges  0x00000000       0x10 c:/program files/microchip/xc32/v4.21/bin/bin/../../lib/gcc/pic32c/8.3.1/../../../../pic32c/lib/arm/v5te/nofp\libg-musl.a(strcmp.o)
 .debug_line    0x00000000       0xbc c:/program files/microchip/xc32/v4.21/bin/bin/../../lib/gcc/pic32c/8.3.1/../../../../pic32c/lib/arm/v5te/nofp\libg-musl.a(strcmp.o)
 .debug_str     0x00000000        0x0 c:/program files/microchip/xc32/v4.21/bin/bin/../../lib/gcc/pic32c/8.3.1/../../../../pic32c/lib/arm/v5te/nofp\libg-musl.a(strcmp.o)
 .comment       0x00000000       0x2c c:/program files/microchip/xc32/v4.21/bin/bin/../../lib/gcc/pic32c/8.3.1/../../../../pic32c/lib/arm/v5te/nofp\libg-musl.a(strcmp.o)
 .note.GNU-stack
                0x00000000        0x0 c:/program files/microchip/xc32/v4.21/bin/bin/../../lib/gcc/pic32c/8.3.1/../../../../pic32c/lib/arm/v5te/nofp\libg-musl.a(strcmp.o)
 .debug_frame   0x00000000       0x20 c:/program files/microchip/xc32/v4.21/bin/bin/../../lib/gcc/pic32c/8.3.1/../../../../pic32c/lib/arm/v5te/nofp\libg-musl.a(strcmp.o)
 .ARM.attributes
                0x00000000       0x2d c:/program files/microchip/xc32/v4.21/bin/bin/../../lib/gcc/pic32c/8.3.1/../../../../pic32c/lib/arm/v5te/nofp\libg-musl.a(strcmp.o)
 .text          0x00000000        0x0 c:/program files/microchip/xc32/v4.21/bin/bin/../../lib/gcc/pic32c/8.3.1/../../../../pic32c/lib/arm/v5te/nofp\libg-musl.a(strncmp.o)
 .data          0x00000000        0x0 c:/program files/microchip/xc32/v4.21/bin/bin/../../lib/gcc/pic32c/8.3.1/../../../../pic32c/lib/arm/v5te/nofp\libg-musl.a(strncmp.o)
 .bss           0x00000000        0x0 c:/program files/microchip/xc32/v4.21/bin/bin/../../lib/gcc/pic32c/8.3.1/../../../../pic32c/lib/arm/v5te/nofp\libg-musl.a(strncmp.o)
 .xc_stack_usage
                0x00000000       0x15 c:/program files/microchip/xc32/v4.21/bin/bin/../../lib/gcc/pic32c/8.3.1/../../../../pic32c/lib/arm/v5te/nofp\libg-musl.a(strncmp.o)
 .text.strncmp  0x00000000       0x64 c:/program files/microchip/xc32/v4.21/bin/bin/../../lib/gcc/pic32c/8.3.1/../../../../pic32c/lib/arm/v5te/nofp\libg-musl.a(strncmp.o)
 .xc_stack_usage.hdr
                0x00000000        0xe c:/program files/microchip/xc32/v4.21/bin/bin/../../lib/gcc/pic32c/8.3.1/../../../../pic32c/lib/arm/v5te/nofp\libg-musl.a(strncmp.o)
 .debug_info    0x00000000      0x2de c:/program files/microchip/xc32/v4.21/bin/bin/../../lib/gcc/pic32c/8.3.1/../../../../pic32c/lib/arm/v5te/nofp\libg-musl.a(strncmp.o)
 .debug_abbrev  0x00000000       0x86 c:/program files/microchip/xc32/v4.21/bin/bin/../../lib/gcc/pic32c/8.3.1/../../../../pic32c/lib/arm/v5te/nofp\libg-musl.a(strncmp.o)
 .debug_loc     0x00000000      0x19f c:/program files/microchip/xc32/v4.21/bin/bin/../../lib/gcc/pic32c/8.3.1/../../../../pic32c/lib/arm/v5te/nofp\libg-musl.a(strncmp.o)
 .debug_aranges
                0x00000000       0x20 c:/program files/microchip/xc32/v4.21/bin/bin/../../lib/gcc/pic32c/8.3.1/../../../../pic32c/lib/arm/v5te/nofp\libg-musl.a(strncmp.o)
 .debug_ranges  0x00000000       0x10 c:/program files/microchip/xc32/v4.21/bin/bin/../../lib/gcc/pic32c/8.3.1/../../../../pic32c/lib/arm/v5te/nofp\libg-musl.a(strncmp.o)
 .debug_line    0x00000000       0xf2 c:/program files/microchip/xc32/v4.21/bin/bin/../../lib/gcc/pic32c/8.3.1/../../../../pic32c/lib/arm/v5te/nofp\libg-musl.a(strncmp.o)
 .debug_str     0x00000000        0x0 c:/program files/microchip/xc32/v4.21/bin/bin/../../lib/gcc/pic32c/8.3.1/../../../../pic32c/lib/arm/v5te/nofp\libg-musl.a(strncmp.o)
 .comment       0x00000000       0x2c c:/program files/microchip/xc32/v4.21/bin/bin/../../lib/gcc/pic32c/8.3.1/../../../../pic32c/lib/arm/v5te/nofp\libg-musl.a(strncmp.o)
 .note.GNU-stack
                0x00000000        0x0 c:/program files/microchip/xc32/v4.21/bin/bin/../../lib/gcc/pic32c/8.3.1/../../../../pic32c/lib/arm/v5te/nofp\libg-musl.a(strncmp.o)
 .debug_frame   0x00000000       0x2c c:/program files/microchip/xc32/v4.21/bin/bin/../../lib/gcc/pic32c/8.3.1/../../../../pic32c/lib/arm/v5te/nofp\libg-musl.a(strncmp.o)
 .ARM.attributes
                0x00000000       0x2d c:/program files/microchip/xc32/v4.21/bin/bin/../../lib/gcc/pic32c/8.3.1/../../../../pic32c/lib/arm/v5te/nofp\libg-musl.a(strncmp.o)
 .text          0x00000000        0x0 c:/program files/microchip/xc32/v4.21/bin/bin/../../lib/gcc/pic32c/8.3.1/../../../../pic32c/lib/arm/v5te/nofp\libg-musl.a(strrchr.o)
 .data          0x00000000        0x0 c:/program files/microchip/xc32/v4.21/bin/bin/../../lib/gcc/pic32c/8.3.1/../../../../pic32c/lib/arm/v5te/nofp\libg-musl.a(strrchr.o)
 .bss           0x00000000        0x0 c:/program files/microchip/xc32/v4.21/bin/bin/../../lib/gcc/pic32c/8.3.1/../../../../pic32c/lib/arm/v5te/nofp\libg-musl.a(strrchr.o)
 .xc_stack_usage
                0x00000000       0x15 c:/program files/microchip/xc32/v4.21/bin/bin/../../lib/gcc/pic32c/8.3.1/../../../../pic32c/lib/arm/v5te/nofp\libg-musl.a(strrchr.o)
 .text.strrchr  0x00000000       0x24 c:/program files/microchip/xc32/v4.21/bin/bin/../../lib/gcc/pic32c/8.3.1/../../../../pic32c/lib/arm/v5te/nofp\libg-musl.a(strrchr.o)
 .xc_stack_usage.hdr
                0x00000000        0xe c:/program files/microchip/xc32/v4.21/bin/bin/../../lib/gcc/pic32c/8.3.1/../../../../pic32c/lib/arm/v5te/nofp\libg-musl.a(strrchr.o)
 .debug_info    0x00000000      0x2d0 c:/program files/microchip/xc32/v4.21/bin/bin/../../lib/gcc/pic32c/8.3.1/../../../../pic32c/lib/arm/v5te/nofp\libg-musl.a(strrchr.o)
 .debug_abbrev  0x00000000       0xb2 c:/program files/microchip/xc32/v4.21/bin/bin/../../lib/gcc/pic32c/8.3.1/../../../../pic32c/lib/arm/v5te/nofp\libg-musl.a(strrchr.o)
 .debug_loc     0x00000000       0xaa c:/program files/microchip/xc32/v4.21/bin/bin/../../lib/gcc/pic32c/8.3.1/../../../../pic32c/lib/arm/v5te/nofp\libg-musl.a(strrchr.o)
 .debug_aranges
                0x00000000       0x20 c:/program files/microchip/xc32/v4.21/bin/bin/../../lib/gcc/pic32c/8.3.1/../../../../pic32c/lib/arm/v5te/nofp\libg-musl.a(strrchr.o)
 .debug_ranges  0x00000000       0x10 c:/program files/microchip/xc32/v4.21/bin/bin/../../lib/gcc/pic32c/8.3.1/../../../../pic32c/lib/arm/v5te/nofp\libg-musl.a(strrchr.o)
 .debug_line    0x00000000      0x12b c:/program files/microchip/xc32/v4.21/bin/bin/../../lib/gcc/pic32c/8.3.1/../../../../pic32c/lib/arm/v5te/nofp\libg-musl.a(strrchr.o)
 .debug_str     0x00000000        0xa c:/program files/microchip/xc32/v4.21/bin/bin/../../lib/gcc/pic32c/8.3.1/../../../../pic32c/lib/arm/v5te/nofp\libg-musl.a(strrchr.o)
 .comment       0x00000000       0x2c c:/program files/microchip/xc32/v4.21/bin/bin/../../lib/gcc/pic32c/8.3.1/../../../../pic32c/lib/arm/v5te/nofp\libg-musl.a(strrchr.o)
 .note.GNU-stack
                0x00000000        0x0 c:/program files/microchip/xc32/v4.21/bin/bin/../../lib/gcc/pic32c/8.3.1/../../../../pic32c/lib/arm/v5te/nofp\libg-musl.a(strrchr.o)
 .debug_frame   0x00000000       0x34 c:/program files/microchip/xc32/v4.21/bin/bin/../../lib/gcc/pic32c/8.3.1/../../../../pic32c/lib/arm/v5te/nofp\libg-musl.a(strrchr.o)
 .ARM.attributes
                0x00000000       0x2d c:/program files/microchip/xc32/v4.21/bin/bin/../../lib/gcc/pic32c/8.3.1/../../../../pic32c/lib/arm/v5te/nofp\libg-musl.a(strrchr.o)
 .text          0x00000000        0x0 c:/program files/microchip/xc32/v4.21/bin/bin/../../lib/gcc/pic32c/8.3.1/../../../../pic32c/lib/arm/v5te/nofp\libg-musl.a(strtok.o)
 .data          0x00000000        0x0 c:/program files/microchip/xc32/v4.21/bin/bin/../../lib/gcc/pic32c/8.3.1/../../../../pic32c/lib/arm/v5te/nofp\libg-musl.a(strtok.o)
 .bss           0x00000000        0x4 c:/program files/microchip/xc32/v4.21/bin/bin/../../lib/gcc/pic32c/8.3.1/../../../../pic32c/lib/arm/v5te/nofp\libg-musl.a(strtok.o)
 .xc_stack_usage
                0x00000000       0x14 c:/program files/microchip/xc32/v4.21/bin/bin/../../lib/gcc/pic32c/8.3.1/../../../../pic32c/lib/arm/v5te/nofp\libg-musl.a(strtok.o)
 .text.strtok   0x00000000       0x7c c:/program files/microchip/xc32/v4.21/bin/bin/../../lib/gcc/pic32c/8.3.1/../../../../pic32c/lib/arm/v5te/nofp\libg-musl.a(strtok.o)
 .xc_stack_usage.hdr
                0x00000000        0xe c:/program files/microchip/xc32/v4.21/bin/bin/../../lib/gcc/pic32c/8.3.1/../../../../pic32c/lib/arm/v5te/nofp\libg-musl.a(strtok.o)
 .debug_info    0x00000000      0x2e4 c:/program files/microchip/xc32/v4.21/bin/bin/../../lib/gcc/pic32c/8.3.1/../../../../pic32c/lib/arm/v5te/nofp\libg-musl.a(strtok.o)
 .debug_abbrev  0x00000000       0xac c:/program files/microchip/xc32/v4.21/bin/bin/../../lib/gcc/pic32c/8.3.1/../../../../pic32c/lib/arm/v5te/nofp\libg-musl.a(strtok.o)
 .debug_loc     0x00000000       0x64 c:/program files/microchip/xc32/v4.21/bin/bin/../../lib/gcc/pic32c/8.3.1/../../../../pic32c/lib/arm/v5te/nofp\libg-musl.a(strtok.o)
 .debug_aranges
                0x00000000       0x20 c:/program files/microchip/xc32/v4.21/bin/bin/../../lib/gcc/pic32c/8.3.1/../../../../pic32c/lib/arm/v5te/nofp\libg-musl.a(strtok.o)
 .debug_ranges  0x00000000       0x10 c:/program files/microchip/xc32/v4.21/bin/bin/../../lib/gcc/pic32c/8.3.1/../../../../pic32c/lib/arm/v5te/nofp\libg-musl.a(strtok.o)
 .debug_line    0x00000000      0x171 c:/program files/microchip/xc32/v4.21/bin/bin/../../lib/gcc/pic32c/8.3.1/../../../../pic32c/lib/arm/v5te/nofp\libg-musl.a(strtok.o)
 .debug_str     0x00000000        0x0 c:/program files/microchip/xc32/v4.21/bin/bin/../../lib/gcc/pic32c/8.3.1/../../../../pic32c/lib/arm/v5te/nofp\libg-musl.a(strtok.o)
 .comment       0x00000000       0x2c c:/program files/microchip/xc32/v4.21/bin/bin/../../lib/gcc/pic32c/8.3.1/../../../../pic32c/lib/arm/v5te/nofp\libg-musl.a(strtok.o)
 .note.GNU-stack
                0x00000000        0x0 c:/program files/microchip/xc32/v4.21/bin/bin/../../lib/gcc/pic32c/8.3.1/../../../../pic32c/lib/arm/v5te/nofp\libg-musl.a(strtok.o)
 .debug_frame   0x00000000       0x2c c:/program files/microchip/xc32/v4.21/bin/bin/../../lib/gcc/pic32c/8.3.1/../../../../pic32c/lib/arm/v5te/nofp\libg-musl.a(strtok.o)
 .ARM.attributes
                0x00000000       0x2d c:/program files/microchip/xc32/v4.21/bin/bin/../../lib/gcc/pic32c/8.3.1/../../../../pic32c/lib/arm/v5te/nofp\libg-musl.a(strtok.o)
 .text          0x00000000        0x0 c:/program files/microchip/xc32/v4.21/bin/bin/../../lib/gcc/pic32c/8.3.1/../../../../pic32c/lib/arm/v5te/nofp\libg-musl.a(isxdigit.o)
 .data          0x00000000        0x0 c:/program files/microchip/xc32/v4.21/bin/bin/../../lib/gcc/pic32c/8.3.1/../../../../pic32c/lib/arm/v5te/nofp\libg-musl.a(isxdigit.o)
 .bss           0x00000000        0x0 c:/program files/microchip/xc32/v4.21/bin/bin/../../lib/gcc/pic32c/8.3.1/../../../../pic32c/lib/arm/v5te/nofp\libg-musl.a(isxdigit.o)
 .xc_stack_usage
                0x00000000       0x30 c:/program files/microchip/xc32/v4.21/bin/bin/../../lib/gcc/pic32c/8.3.1/../../../../pic32c/lib/arm/v5te/nofp\libg-musl.a(isxdigit.o)
 .text.isxdigit
                0x00000000       0x2c c:/program files/microchip/xc32/v4.21/bin/bin/../../lib/gcc/pic32c/8.3.1/../../../../pic32c/lib/arm/v5te/nofp\libg-musl.a(isxdigit.o)
 .text.__isxdigit_l
                0x00000000        0x4 c:/program files/microchip/xc32/v4.21/bin/bin/../../lib/gcc/pic32c/8.3.1/../../../../pic32c/lib/arm/v5te/nofp\libg-musl.a(isxdigit.o)
 .xc_stack_usage.hdr
                0x00000000        0xe c:/program files/microchip/xc32/v4.21/bin/bin/../../lib/gcc/pic32c/8.3.1/../../../../pic32c/lib/arm/v5te/nofp\libg-musl.a(isxdigit.o)
 .debug_info    0x00000000      0x344 c:/program files/microchip/xc32/v4.21/bin/bin/../../lib/gcc/pic32c/8.3.1/../../../../pic32c/lib/arm/v5te/nofp\libg-musl.a(isxdigit.o)
 .debug_abbrev  0x00000000       0xfd c:/program files/microchip/xc32/v4.21/bin/bin/../../lib/gcc/pic32c/8.3.1/../../../../pic32c/lib/arm/v5te/nofp\libg-musl.a(isxdigit.o)
 .debug_loc     0x00000000       0x65 c:/program files/microchip/xc32/v4.21/bin/bin/../../lib/gcc/pic32c/8.3.1/../../../../pic32c/lib/arm/v5te/nofp\libg-musl.a(isxdigit.o)
 .debug_aranges
                0x00000000       0x28 c:/program files/microchip/xc32/v4.21/bin/bin/../../lib/gcc/pic32c/8.3.1/../../../../pic32c/lib/arm/v5te/nofp\libg-musl.a(isxdigit.o)
 .debug_ranges  0x00000000       0x18 c:/program files/microchip/xc32/v4.21/bin/bin/../../lib/gcc/pic32c/8.3.1/../../../../pic32c/lib/arm/v5te/nofp\libg-musl.a(isxdigit.o)
 .debug_line    0x00000000      0x168 c:/program files/microchip/xc32/v4.21/bin/bin/../../lib/gcc/pic32c/8.3.1/../../../../pic32c/lib/arm/v5te/nofp\libg-musl.a(isxdigit.o)
 .debug_str     0x00000000        0x0 c:/program files/microchip/xc32/v4.21/bin/bin/../../lib/gcc/pic32c/8.3.1/../../../../pic32c/lib/arm/v5te/nofp\libg-musl.a(isxdigit.o)
 .comment       0x00000000       0x2c c:/program files/microchip/xc32/v4.21/bin/bin/../../lib/gcc/pic32c/8.3.1/../../../../pic32c/lib/arm/v5te/nofp\libg-musl.a(isxdigit.o)
 .note.GNU-stack
                0x00000000        0x0 c:/program files/microchip/xc32/v4.21/bin/bin/../../lib/gcc/pic32c/8.3.1/../../../../pic32c/lib/arm/v5te/nofp\libg-musl.a(isxdigit.o)
 .debug_frame   0x00000000       0x30 c:/program files/microchip/xc32/v4.21/bin/bin/../../lib/gcc/pic32c/8.3.1/../../../../pic32c/lib/arm/v5te/nofp\libg-musl.a(isxdigit.o)
 .ARM.attributes
                0x00000000       0x2d c:/program files/microchip/xc32/v4.21/bin/bin/../../lib/gcc/pic32c/8.3.1/../../../../pic32c/lib/arm/v5te/nofp\libg-musl.a(isxdigit.o)
 .text          0x00000000        0x0 c:/program files/microchip/xc32/v4.21/bin/bin/../../lib/gcc/pic32c/8.3.1/../../../../pic32c/lib/arm/v5te/nofp\libg-musl.a(tolower.o)
 .data          0x00000000        0x0 c:/program files/microchip/xc32/v4.21/bin/bin/../../lib/gcc/pic32c/8.3.1/../../../../pic32c/lib/arm/v5te/nofp\libg-musl.a(tolower.o)
 .bss           0x00000000        0x0 c:/program files/microchip/xc32/v4.21/bin/bin/../../lib/gcc/pic32c/8.3.1/../../../../pic32c/lib/arm/v5te/nofp\libg-musl.a(tolower.o)
 .xc_stack_usage
                0x00000000       0x2e c:/program files/microchip/xc32/v4.21/bin/bin/../../lib/gcc/pic32c/8.3.1/../../../../pic32c/lib/arm/v5te/nofp\libg-musl.a(tolower.o)
 .text.__tolower_l
                0x00000000        0x4 c:/program files/microchip/xc32/v4.21/bin/bin/../../lib/gcc/pic32c/8.3.1/../../../../pic32c/lib/arm/v5te/nofp\libg-musl.a(tolower.o)
 .xc_stack_usage.hdr
                0x00000000        0xe c:/program files/microchip/xc32/v4.21/bin/bin/../../lib/gcc/pic32c/8.3.1/../../../../pic32c/lib/arm/v5te/nofp\libg-musl.a(tolower.o)
 .text          0x00000000        0x0 c:/program files/microchip/xc32/v4.21/bin/bin/../../lib/gcc/pic32c/8.3.1/../../../../pic32c/lib/arm/v5te/nofp\libg-musl.a(toupper.o)
 .data          0x00000000        0x0 c:/program files/microchip/xc32/v4.21/bin/bin/../../lib/gcc/pic32c/8.3.1/../../../../pic32c/lib/arm/v5te/nofp\libg-musl.a(toupper.o)
 .bss           0x00000000        0x0 c:/program files/microchip/xc32/v4.21/bin/bin/../../lib/gcc/pic32c/8.3.1/../../../../pic32c/lib/arm/v5te/nofp\libg-musl.a(toupper.o)
 .xc_stack_usage
                0x00000000       0x2e c:/program files/microchip/xc32/v4.21/bin/bin/../../lib/gcc/pic32c/8.3.1/../../../../pic32c/lib/arm/v5te/nofp\libg-musl.a(toupper.o)
 .text.__toupper_l
                0x00000000        0x4 c:/program files/microchip/xc32/v4.21/bin/bin/../../lib/gcc/pic32c/8.3.1/../../../../pic32c/lib/arm/v5te/nofp\libg-musl.a(toupper.o)
 .xc_stack_usage.hdr
                0x00000000        0xe c:/program files/microchip/xc32/v4.21/bin/bin/../../lib/gcc/pic32c/8.3.1/../../../../pic32c/lib/arm/v5te/nofp\libg-musl.a(toupper.o)
 .text          0x00000000        0x0 c:/program files/microchip/xc32/v4.21/bin/bin/../../lib/gcc/pic32c/8.3.1/../../../../pic32c/lib/arm/v5te/nofp\libg-musl.a(__environ.o)
 .data          0x00000000        0x0 c:/program files/microchip/xc32/v4.21/bin/bin/../../lib/gcc/pic32c/8.3.1/../../../../pic32c/lib/arm/v5te/nofp\libg-musl.a(__environ.o)
 .xc_stack_usage.hdr
                0x00000000        0xe c:/program files/microchip/xc32/v4.21/bin/bin/../../lib/gcc/pic32c/8.3.1/../../../../pic32c/lib/arm/v5te/nofp\libg-musl.a(__environ.o)
 .text          0x00000000        0x0 c:/program files/microchip/xc32/v4.21/bin/bin/../../lib/gcc/pic32c/8.3.1/../../../../pic32c/lib/arm/v5te/nofp\libg-musl.a(__errno_location.o)
 .data          0x00000000        0x0 c:/program files/microchip/xc32/v4.21/bin/bin/../../lib/gcc/pic32c/8.3.1/../../../../pic32c/lib/arm/v5te/nofp\libg-musl.a(__errno_location.o)
 .xc_stack_usage.hdr
                0x00000000        0xe c:/program files/microchip/xc32/v4.21/bin/bin/../../lib/gcc/pic32c/8.3.1/../../../../pic32c/lib/arm/v5te/nofp\libg-musl.a(__errno_location.o)
 .text          0x00000000        0x0 c:/program files/microchip/xc32/v4.21/bin/bin/../../lib/gcc/pic32c/8.3.1/../../../../pic32c/lib/arm/v5te/nofp\libg-musl.a(intscan.o)
 .data          0x00000000        0x0 c:/program files/microchip/xc32/v4.21/bin/bin/../../lib/gcc/pic32c/8.3.1/../../../../pic32c/lib/arm/v5te/nofp\libg-musl.a(intscan.o)
 .bss           0x00000000        0x0 c:/program files/microchip/xc32/v4.21/bin/bin/../../lib/gcc/pic32c/8.3.1/../../../../pic32c/lib/arm/v5te/nofp\libg-musl.a(intscan.o)
 .xc_stack_usage
                0x00000000       0x17 c:/program files/microchip/xc32/v4.21/bin/bin/../../lib/gcc/pic32c/8.3.1/../../../../pic32c/lib/arm/v5te/nofp\libg-musl.a(intscan.o)
 .text.__intscan
                0x00000000      0x608 c:/program files/microchip/xc32/v4.21/bin/bin/../../lib/gcc/pic32c/8.3.1/../../../../pic32c/lib/arm/v5te/nofp\libg-musl.a(intscan.o)
 .rodata        0x00000000      0x10a c:/program files/microchip/xc32/v4.21/bin/bin/../../lib/gcc/pic32c/8.3.1/../../../../pic32c/lib/arm/v5te/nofp\libg-musl.a(intscan.o)
 .xc_stack_usage.hdr
                0x00000000        0xe c:/program files/microchip/xc32/v4.21/bin/bin/../../lib/gcc/pic32c/8.3.1/../../../../pic32c/lib/arm/v5te/nofp\libg-musl.a(intscan.o)
 .debug_info    0x00000000      0x832 c:/program files/microchip/xc32/v4.21/bin/bin/../../lib/gcc/pic32c/8.3.1/../../../../pic32c/lib/arm/v5te/nofp\libg-musl.a(intscan.o)
 .debug_abbrev  0x00000000      0x1d9 c:/program files/microchip/xc32/v4.21/bin/bin/../../lib/gcc/pic32c/8.3.1/../../../../pic32c/lib/arm/v5te/nofp\libg-musl.a(intscan.o)
 .debug_loc     0x00000000      0x3b8 c:/program files/microchip/xc32/v4.21/bin/bin/../../lib/gcc/pic32c/8.3.1/../../../../pic32c/lib/arm/v5te/nofp\libg-musl.a(intscan.o)
 .debug_aranges
                0x00000000       0x20 c:/program files/microchip/xc32/v4.21/bin/bin/../../lib/gcc/pic32c/8.3.1/../../../../pic32c/lib/arm/v5te/nofp\libg-musl.a(intscan.o)
 .debug_ranges  0x00000000       0x10 c:/program files/microchip/xc32/v4.21/bin/bin/../../lib/gcc/pic32c/8.3.1/../../../../pic32c/lib/arm/v5te/nofp\libg-musl.a(intscan.o)
 .debug_line    0x00000000      0x48d c:/program files/microchip/xc32/v4.21/bin/bin/../../lib/gcc/pic32c/8.3.1/../../../../pic32c/lib/arm/v5te/nofp\libg-musl.a(intscan.o)
 .debug_str     0x00000000        0x9 c:/program files/microchip/xc32/v4.21/bin/bin/../../lib/gcc/pic32c/8.3.1/../../../../pic32c/lib/arm/v5te/nofp\libg-musl.a(intscan.o)
 .comment       0x00000000       0x2c c:/program files/microchip/xc32/v4.21/bin/bin/../../lib/gcc/pic32c/8.3.1/../../../../pic32c/lib/arm/v5te/nofp\libg-musl.a(intscan.o)
 .note.GNU-stack
                0x00000000        0x0 c:/program files/microchip/xc32/v4.21/bin/bin/../../lib/gcc/pic32c/8.3.1/../../../../pic32c/lib/arm/v5te/nofp\libg-musl.a(intscan.o)
 .debug_frame   0x00000000       0x40 c:/program files/microchip/xc32/v4.21/bin/bin/../../lib/gcc/pic32c/8.3.1/../../../../pic32c/lib/arm/v5te/nofp\libg-musl.a(intscan.o)
 .ARM.attributes
                0x00000000       0x2d c:/program files/microchip/xc32/v4.21/bin/bin/../../lib/gcc/pic32c/8.3.1/../../../../pic32c/lib/arm/v5te/nofp\libg-musl.a(intscan.o)
 .text          0x00000000        0x0 c:/program files/microchip/xc32/v4.21/bin/bin/../../lib/gcc/pic32c/8.3.1/../../../../pic32c/lib/arm/v5te/nofp\libg-musl.a(shgetc.o)
 .data          0x00000000        0x0 c:/program files/microchip/xc32/v4.21/bin/bin/../../lib/gcc/pic32c/8.3.1/../../../../pic32c/lib/arm/v5te/nofp\libg-musl.a(shgetc.o)
 .bss           0x00000000        0x0 c:/program files/microchip/xc32/v4.21/bin/bin/../../lib/gcc/pic32c/8.3.1/../../../../pic32c/lib/arm/v5te/nofp\libg-musl.a(shgetc.o)
 .xc_stack_usage
                0x00000000       0x2b c:/program files/microchip/xc32/v4.21/bin/bin/../../lib/gcc/pic32c/8.3.1/../../../../pic32c/lib/arm/v5te/nofp\libg-musl.a(shgetc.o)
 .text.__shlim  0x00000000       0x28 c:/program files/microchip/xc32/v4.21/bin/bin/../../lib/gcc/pic32c/8.3.1/../../../../pic32c/lib/arm/v5te/nofp\libg-musl.a(shgetc.o)
 .text.__shgetc
                0x00000000       0xa4 c:/program files/microchip/xc32/v4.21/bin/bin/../../lib/gcc/pic32c/8.3.1/../../../../pic32c/lib/arm/v5te/nofp\libg-musl.a(shgetc.o)
 .xc_stack_usage.hdr
                0x00000000        0xe c:/program files/microchip/xc32/v4.21/bin/bin/../../lib/gcc/pic32c/8.3.1/../../../../pic32c/lib/arm/v5te/nofp\libg-musl.a(shgetc.o)
 .debug_info    0x00000000      0x631 c:/program files/microchip/xc32/v4.21/bin/bin/../../lib/gcc/pic32c/8.3.1/../../../../pic32c/lib/arm/v5te/nofp\libg-musl.a(shgetc.o)
 .debug_abbrev  0x00000000      0x14a c:/program files/microchip/xc32/v4.21/bin/bin/../../lib/gcc/pic32c/8.3.1/../../../../pic32c/lib/arm/v5te/nofp\libg-musl.a(shgetc.o)
 .debug_loc     0x00000000       0x71 c:/program files/microchip/xc32/v4.21/bin/bin/../../lib/gcc/pic32c/8.3.1/../../../../pic32c/lib/arm/v5te/nofp\libg-musl.a(shgetc.o)
 .debug_aranges
                0x00000000       0x28 c:/program files/microchip/xc32/v4.21/bin/bin/../../lib/gcc/pic32c/8.3.1/../../../../pic32c/lib/arm/v5te/nofp\libg-musl.a(shgetc.o)
 .debug_ranges  0x00000000       0x18 c:/program files/microchip/xc32/v4.21/bin/bin/../../lib/gcc/pic32c/8.3.1/../../../../pic32c/lib/arm/v5te/nofp\libg-musl.a(shgetc.o)
 .debug_line    0x00000000      0x203 c:/program files/microchip/xc32/v4.21/bin/bin/../../lib/gcc/pic32c/8.3.1/../../../../pic32c/lib/arm/v5te/nofp\libg-musl.a(shgetc.o)
 .debug_str     0x00000000        0x0 c:/program files/microchip/xc32/v4.21/bin/bin/../../lib/gcc/pic32c/8.3.1/../../../../pic32c/lib/arm/v5te/nofp\libg-musl.a(shgetc.o)
 .comment       0x00000000       0x2c c:/program files/microchip/xc32/v4.21/bin/bin/../../lib/gcc/pic32c/8.3.1/../../../../pic32c/lib/arm/v5te/nofp\libg-musl.a(shgetc.o)
 .note.GNU-stack
                0x00000000        0x0 c:/program files/microchip/xc32/v4.21/bin/bin/../../lib/gcc/pic32c/8.3.1/../../../../pic32c/lib/arm/v5te/nofp\libg-musl.a(shgetc.o)
 .debug_frame   0x00000000       0x38 c:/program files/microchip/xc32/v4.21/bin/bin/../../lib/gcc/pic32c/8.3.1/../../../../pic32c/lib/arm/v5te/nofp\libg-musl.a(shgetc.o)
 .ARM.attributes
                0x00000000       0x2d c:/program files/microchip/xc32/v4.21/bin/bin/../../lib/gcc/pic32c/8.3.1/../../../../pic32c/lib/arm/v5te/nofp\libg-musl.a(shgetc.o)
 .text          0x00000000        0x0 c:/program files/microchip/xc32/v4.21/bin/bin/../../lib/gcc/pic32c/8.3.1/../../../../pic32c/lib/arm/v5te/nofp\libg-musl.a(__int_vfprintf.o)
 .data          0x00000000        0x0 c:/program files/microchip/xc32/v4.21/bin/bin/../../lib/gcc/pic32c/8.3.1/../../../../pic32c/lib/arm/v5te/nofp\libg-musl.a(__int_vfprintf.o)
 .bss           0x00000000        0x0 c:/program files/microchip/xc32/v4.21/bin/bin/../../lib/gcc/pic32c/8.3.1/../../../../pic32c/lib/arm/v5te/nofp\libg-musl.a(__int_vfprintf.o)
 .xc_stack_usage
                0x00000000       0x18 c:/program files/microchip/xc32/v4.21/bin/bin/../../lib/gcc/pic32c/8.3.1/../../../../pic32c/lib/arm/v5te/nofp\libg-musl.a(__int_vfprintf.o)
 .xc_stack_usage.hdr
                0x00000000        0xe c:/program files/microchip/xc32/v4.21/bin/bin/../../lib/gcc/pic32c/8.3.1/../../../../pic32c/lib/arm/v5te/nofp\libg-musl.a(__int_vfprintf.o)
 .text          0x00000000        0x0 c:/program files/microchip/xc32/v4.21/bin/bin/../../lib/gcc/pic32c/8.3.1/../../../../pic32c/lib/arm/v5te/nofp\libg-musl.a(__int_vsprintf.o)
 .data          0x00000000        0x0 c:/program files/microchip/xc32/v4.21/bin/bin/../../lib/gcc/pic32c/8.3.1/../../../../pic32c/lib/arm/v5te/nofp\libg-musl.a(__int_vsprintf.o)
 .bss           0x00000000        0x0 c:/program files/microchip/xc32/v4.21/bin/bin/../../lib/gcc/pic32c/8.3.1/../../../../pic32c/lib/arm/v5te/nofp\libg-musl.a(__int_vsprintf.o)
 .xc_stack_usage
                0x00000000       0x18 c:/program files/microchip/xc32/v4.21/bin/bin/../../lib/gcc/pic32c/8.3.1/../../../../pic32c/lib/arm/v5te/nofp\libg-musl.a(__int_vsprintf.o)
 .xc_stack_usage.hdr
                0x00000000        0xe c:/program files/microchip/xc32/v4.21/bin/bin/../../lib/gcc/pic32c/8.3.1/../../../../pic32c/lib/arm/v5te/nofp\libg-musl.a(__int_vsprintf.o)
 .text          0x00000000        0x0 c:/program files/microchip/xc32/v4.21/bin/bin/../../lib/gcc/pic32c/8.3.1/../../../../pic32c/lib/arm/v5te/nofp\libg-musl.a(__int_vsscanf.o)
 .data          0x00000000        0x0 c:/program files/microchip/xc32/v4.21/bin/bin/../../lib/gcc/pic32c/8.3.1/../../../../pic32c/lib/arm/v5te/nofp\libg-musl.a(__int_vsscanf.o)
 .bss           0x00000000        0x0 c:/program files/microchip/xc32/v4.21/bin/bin/../../lib/gcc/pic32c/8.3.1/../../../../pic32c/lib/arm/v5te/nofp\libg-musl.a(__int_vsscanf.o)
 .xc_stack_usage
                0x00000000       0x2c c:/program files/microchip/xc32/v4.21/bin/bin/../../lib/gcc/pic32c/8.3.1/../../../../pic32c/lib/arm/v5te/nofp\libg-musl.a(__int_vsscanf.o)
 .text.do_read  0x00000000        0x4 c:/program files/microchip/xc32/v4.21/bin/bin/../../lib/gcc/pic32c/8.3.1/../../../../pic32c/lib/arm/v5te/nofp\libg-musl.a(__int_vsscanf.o)
 .text.__vsscanf
                0x00000000       0x50 c:/program files/microchip/xc32/v4.21/bin/bin/../../lib/gcc/pic32c/8.3.1/../../../../pic32c/lib/arm/v5te/nofp\libg-musl.a(__int_vsscanf.o)
 .xc_stack_usage.hdr
                0x00000000        0xe c:/program files/microchip/xc32/v4.21/bin/bin/../../lib/gcc/pic32c/8.3.1/../../../../pic32c/lib/arm/v5te/nofp\libg-musl.a(__int_vsscanf.o)
 .debug_info    0x00000000      0x728 c:/program files/microchip/xc32/v4.21/bin/bin/../../lib/gcc/pic32c/8.3.1/../../../../pic32c/lib/arm/v5te/nofp\libg-musl.a(__int_vsscanf.o)
 .debug_abbrev  0x00000000      0x17f c:/program files/microchip/xc32/v4.21/bin/bin/../../lib/gcc/pic32c/8.3.1/../../../../pic32c/lib/arm/v5te/nofp\libg-musl.a(__int_vsscanf.o)
 .debug_loc     0x00000000      0x12e c:/program files/microchip/xc32/v4.21/bin/bin/../../lib/gcc/pic32c/8.3.1/../../../../pic32c/lib/arm/v5te/nofp\libg-musl.a(__int_vsscanf.o)
 .debug_aranges
                0x00000000       0x28 c:/program files/microchip/xc32/v4.21/bin/bin/../../lib/gcc/pic32c/8.3.1/../../../../pic32c/lib/arm/v5te/nofp\libg-musl.a(__int_vsscanf.o)
 .debug_ranges  0x00000000       0x18 c:/program files/microchip/xc32/v4.21/bin/bin/../../lib/gcc/pic32c/8.3.1/../../../../pic32c/lib/arm/v5te/nofp\libg-musl.a(__int_vsscanf.o)
 .debug_line    0x00000000      0x20f c:/program files/microchip/xc32/v4.21/bin/bin/../../lib/gcc/pic32c/8.3.1/../../../../pic32c/lib/arm/v5te/nofp\libg-musl.a(__int_vsscanf.o)
 .debug_str     0x00000000       0x18 c:/program files/microchip/xc32/v4.21/bin/bin/../../lib/gcc/pic32c/8.3.1/../../../../pic32c/lib/arm/v5te/nofp\libg-musl.a(__int_vsscanf.o)
 .comment       0x00000000       0x2c c:/program files/microchip/xc32/v4.21/bin/bin/../../lib/gcc/pic32c/8.3.1/../../../../pic32c/lib/arm/v5te/nofp\libg-musl.a(__int_vsscanf.o)
 .note.GNU-stack
                0x00000000        0x0 c:/program files/microchip/xc32/v4.21/bin/bin/../../lib/gcc/pic32c/8.3.1/../../../../pic32c/lib/arm/v5te/nofp\libg-musl.a(__int_vsscanf.o)
 .debug_frame   0x00000000       0x44 c:/program files/microchip/xc32/v4.21/bin/bin/../../lib/gcc/pic32c/8.3.1/../../../../pic32c/lib/arm/v5te/nofp\libg-musl.a(__int_vsscanf.o)
 .ARM.attributes
                0x00000000       0x2d c:/program files/microchip/xc32/v4.21/bin/bin/../../lib/gcc/pic32c/8.3.1/../../../../pic32c/lib/arm/v5te/nofp\libg-musl.a(__int_vsscanf.o)
 .text          0x00000000        0x0 c:/program files/microchip/xc32/v4.21/bin/bin/../../lib/gcc/pic32c/8.3.1/../../../../pic32c/lib/arm/v5te/nofp\libg-musl.a(__string_read.o)
 .data          0x00000000        0x0 c:/program files/microchip/xc32/v4.21/bin/bin/../../lib/gcc/pic32c/8.3.1/../../../../pic32c/lib/arm/v5te/nofp\libg-musl.a(__string_read.o)
 .bss           0x00000000        0x0 c:/program files/microchip/xc32/v4.21/bin/bin/../../lib/gcc/pic32c/8.3.1/../../../../pic32c/lib/arm/v5te/nofp\libg-musl.a(__string_read.o)
 .xc_stack_usage
                0x00000000       0x1b c:/program files/microchip/xc32/v4.21/bin/bin/../../lib/gcc/pic32c/8.3.1/../../../../pic32c/lib/arm/v5te/nofp\libg-musl.a(__string_read.o)
 .text.__string_read
                0x00000000       0x64 c:/program files/microchip/xc32/v4.21/bin/bin/../../lib/gcc/pic32c/8.3.1/../../../../pic32c/lib/arm/v5te/nofp\libg-musl.a(__string_read.o)
 .xc_stack_usage.hdr
                0x00000000        0xe c:/program files/microchip/xc32/v4.21/bin/bin/../../lib/gcc/pic32c/8.3.1/../../../../pic32c/lib/arm/v5te/nofp\libg-musl.a(__string_read.o)
 .debug_info    0x00000000      0x694 c:/program files/microchip/xc32/v4.21/bin/bin/../../lib/gcc/pic32c/8.3.1/../../../../pic32c/lib/arm/v5te/nofp\libg-musl.a(__string_read.o)
 .debug_abbrev  0x00000000      0x12a c:/program files/microchip/xc32/v4.21/bin/bin/../../lib/gcc/pic32c/8.3.1/../../../../pic32c/lib/arm/v5te/nofp\libg-musl.a(__string_read.o)
 .debug_loc     0x00000000       0xc5 c:/program files/microchip/xc32/v4.21/bin/bin/../../lib/gcc/pic32c/8.3.1/../../../../pic32c/lib/arm/v5te/nofp\libg-musl.a(__string_read.o)
 .debug_aranges
                0x00000000       0x20 c:/program files/microchip/xc32/v4.21/bin/bin/../../lib/gcc/pic32c/8.3.1/../../../../pic32c/lib/arm/v5te/nofp\libg-musl.a(__string_read.o)
 .debug_ranges  0x00000000       0x10 c:/program files/microchip/xc32/v4.21/bin/bin/../../lib/gcc/pic32c/8.3.1/../../../../pic32c/lib/arm/v5te/nofp\libg-musl.a(__string_read.o)
 .debug_line    0x00000000      0x288 c:/program files/microchip/xc32/v4.21/bin/bin/../../lib/gcc/pic32c/8.3.1/../../../../pic32c/lib/arm/v5te/nofp\libg-musl.a(__string_read.o)
 .debug_str     0x00000000        0x0 c:/program files/microchip/xc32/v4.21/bin/bin/../../lib/gcc/pic32c/8.3.1/../../../../pic32c/lib/arm/v5te/nofp\libg-musl.a(__string_read.o)
 .comment       0x00000000       0x2c c:/program files/microchip/xc32/v4.21/bin/bin/../../lib/gcc/pic32c/8.3.1/../../../../pic32c/lib/arm/v5te/nofp\libg-musl.a(__string_read.o)
 .note.GNU-stack
                0x00000000        0x0 c:/program files/microchip/xc32/v4.21/bin/bin/../../lib/gcc/pic32c/8.3.1/../../../../pic32c/lib/arm/v5te/nofp\libg-musl.a(__string_read.o)
 .debug_frame   0x00000000       0x30 c:/program files/microchip/xc32/v4.21/bin/bin/../../lib/gcc/pic32c/8.3.1/../../../../pic32c/lib/arm/v5te/nofp\libg-musl.a(__string_read.o)
 .ARM.attributes
                0x00000000       0x2d c:/program files/microchip/xc32/v4.21/bin/bin/../../lib/gcc/pic32c/8.3.1/../../../../pic32c/lib/arm/v5te/nofp\libg-musl.a(__string_read.o)
 .text          0x00000000        0x0 c:/program files/microchip/xc32/v4.21/bin/bin/../../lib/gcc/pic32c/8.3.1/../../../../pic32c/lib/arm/v5te/nofp\libg-musl.a(__uflow.o)
 .data          0x00000000        0x0 c:/program files/microchip/xc32/v4.21/bin/bin/../../lib/gcc/pic32c/8.3.1/../../../../pic32c/lib/arm/v5te/nofp\libg-musl.a(__uflow.o)
 .bss           0x00000000        0x0 c:/program files/microchip/xc32/v4.21/bin/bin/../../lib/gcc/pic32c/8.3.1/../../../../pic32c/lib/arm/v5te/nofp\libg-musl.a(__uflow.o)
 .xc_stack_usage
                0x00000000       0x15 c:/program files/microchip/xc32/v4.21/bin/bin/../../lib/gcc/pic32c/8.3.1/../../../../pic32c/lib/arm/v5te/nofp\libg-musl.a(__uflow.o)
 .text.__uflow  0x00000000       0x44 c:/program files/microchip/xc32/v4.21/bin/bin/../../lib/gcc/pic32c/8.3.1/../../../../pic32c/lib/arm/v5te/nofp\libg-musl.a(__uflow.o)
 .xc_stack_usage.hdr
                0x00000000        0xe c:/program files/microchip/xc32/v4.21/bin/bin/../../lib/gcc/pic32c/8.3.1/../../../../pic32c/lib/arm/v5te/nofp\libg-musl.a(__uflow.o)
 .debug_info    0x00000000      0x603 c:/program files/microchip/xc32/v4.21/bin/bin/../../lib/gcc/pic32c/8.3.1/../../../../pic32c/lib/arm/v5te/nofp\libg-musl.a(__uflow.o)
 .debug_abbrev  0x00000000      0x125 c:/program files/microchip/xc32/v4.21/bin/bin/../../lib/gcc/pic32c/8.3.1/../../../../pic32c/lib/arm/v5te/nofp\libg-musl.a(__uflow.o)
 .debug_loc     0x00000000       0x5a c:/program files/microchip/xc32/v4.21/bin/bin/../../lib/gcc/pic32c/8.3.1/../../../../pic32c/lib/arm/v5te/nofp\libg-musl.a(__uflow.o)
 .debug_aranges
                0x00000000       0x20 c:/program files/microchip/xc32/v4.21/bin/bin/../../lib/gcc/pic32c/8.3.1/../../../../pic32c/lib/arm/v5te/nofp\libg-musl.a(__uflow.o)
 .debug_ranges  0x00000000       0x10 c:/program files/microchip/xc32/v4.21/bin/bin/../../lib/gcc/pic32c/8.3.1/../../../../pic32c/lib/arm/v5te/nofp\libg-musl.a(__uflow.o)
 .debug_line    0x00000000      0x1d3 c:/program files/microchip/xc32/v4.21/bin/bin/../../lib/gcc/pic32c/8.3.1/../../../../pic32c/lib/arm/v5te/nofp\libg-musl.a(__uflow.o)
 .debug_str     0x00000000        0x9 c:/program files/microchip/xc32/v4.21/bin/bin/../../lib/gcc/pic32c/8.3.1/../../../../pic32c/lib/arm/v5te/nofp\libg-musl.a(__uflow.o)
 .comment       0x00000000       0x2c c:/program files/microchip/xc32/v4.21/bin/bin/../../lib/gcc/pic32c/8.3.1/../../../../pic32c/lib/arm/v5te/nofp\libg-musl.a(__uflow.o)
 .note.GNU-stack
                0x00000000        0x0 c:/program files/microchip/xc32/v4.21/bin/bin/../../lib/gcc/pic32c/8.3.1/../../../../pic32c/lib/arm/v5te/nofp\libg-musl.a(__uflow.o)
 .debug_frame   0x00000000       0x30 c:/program files/microchip/xc32/v4.21/bin/bin/../../lib/gcc/pic32c/8.3.1/../../../../pic32c/lib/arm/v5te/nofp\libg-musl.a(__uflow.o)
 .ARM.attributes
                0x00000000       0x2d c:/program files/microchip/xc32/v4.21/bin/bin/../../lib/gcc/pic32c/8.3.1/../../../../pic32c/lib/arm/v5te/nofp\libg-musl.a(__uflow.o)
 .text          0x00000000        0x0 c:/program files/microchip/xc32/v4.21/bin/bin/../../lib/gcc/pic32c/8.3.1/../../../../pic32c/lib/arm/v5te/nofp\libg-musl.a(fputs.o)
 .data          0x00000000        0x0 c:/program files/microchip/xc32/v4.21/bin/bin/../../lib/gcc/pic32c/8.3.1/../../../../pic32c/lib/arm/v5te/nofp\libg-musl.a(fputs.o)
 .bss           0x00000000        0x0 c:/program files/microchip/xc32/v4.21/bin/bin/../../lib/gcc/pic32c/8.3.1/../../../../pic32c/lib/arm/v5te/nofp\libg-musl.a(fputs.o)
 .xc_stack_usage
                0x00000000       0x13 c:/program files/microchip/xc32/v4.21/bin/bin/../../lib/gcc/pic32c/8.3.1/../../../../pic32c/lib/arm/v5te/nofp\libg-musl.a(fputs.o)
 .text.fputs    0x00000000       0x34 c:/program files/microchip/xc32/v4.21/bin/bin/../../lib/gcc/pic32c/8.3.1/../../../../pic32c/lib/arm/v5te/nofp\libg-musl.a(fputs.o)
 .xc_stack_usage.hdr
                0x00000000        0xe c:/program files/microchip/xc32/v4.21/bin/bin/../../lib/gcc/pic32c/8.3.1/../../../../pic32c/lib/arm/v5te/nofp\libg-musl.a(fputs.o)
 .debug_info    0x00000000      0x645 c:/program files/microchip/xc32/v4.21/bin/bin/../../lib/gcc/pic32c/8.3.1/../../../../pic32c/lib/arm/v5te/nofp\libg-musl.a(fputs.o)
 .debug_abbrev  0x00000000      0x12a c:/program files/microchip/xc32/v4.21/bin/bin/../../lib/gcc/pic32c/8.3.1/../../../../pic32c/lib/arm/v5te/nofp\libg-musl.a(fputs.o)
 .debug_loc     0x00000000       0x93 c:/program files/microchip/xc32/v4.21/bin/bin/../../lib/gcc/pic32c/8.3.1/../../../../pic32c/lib/arm/v5te/nofp\libg-musl.a(fputs.o)
 .debug_aranges
                0x00000000       0x20 c:/program files/microchip/xc32/v4.21/bin/bin/../../lib/gcc/pic32c/8.3.1/../../../../pic32c/lib/arm/v5te/nofp\libg-musl.a(fputs.o)
 .debug_ranges  0x00000000       0x10 c:/program files/microchip/xc32/v4.21/bin/bin/../../lib/gcc/pic32c/8.3.1/../../../../pic32c/lib/arm/v5te/nofp\libg-musl.a(fputs.o)
 .debug_line    0x00000000      0x249 c:/program files/microchip/xc32/v4.21/bin/bin/../../lib/gcc/pic32c/8.3.1/../../../../pic32c/lib/arm/v5te/nofp\libg-musl.a(fputs.o)
 .debug_str     0x00000000        0x0 c:/program files/microchip/xc32/v4.21/bin/bin/../../lib/gcc/pic32c/8.3.1/../../../../pic32c/lib/arm/v5te/nofp\libg-musl.a(fputs.o)
 .comment       0x00000000       0x2c c:/program files/microchip/xc32/v4.21/bin/bin/../../lib/gcc/pic32c/8.3.1/../../../../pic32c/lib/arm/v5te/nofp\libg-musl.a(fputs.o)
 .note.GNU-stack
                0x00000000        0x0 c:/program files/microchip/xc32/v4.21/bin/bin/../../lib/gcc/pic32c/8.3.1/../../../../pic32c/lib/arm/v5te/nofp\libg-musl.a(fputs.o)
 .debug_frame   0x00000000       0x2c c:/program files/microchip/xc32/v4.21/bin/bin/../../lib/gcc/pic32c/8.3.1/../../../../pic32c/lib/arm/v5te/nofp\libg-musl.a(fputs.o)
 .ARM.attributes
                0x00000000       0x2d c:/program files/microchip/xc32/v4.21/bin/bin/../../lib/gcc/pic32c/8.3.1/../../../../pic32c/lib/arm/v5te/nofp\libg-musl.a(fputs.o)
 .text          0x00000000        0x0 c:/program files/microchip/xc32/v4.21/bin/bin/../../lib/gcc/pic32c/8.3.1/../../../../pic32c/lib/arm/v5te/nofp\libg-musl.a(__io_init_needed.o)
 .data          0x00000000        0x0 c:/program files/microchip/xc32/v4.21/bin/bin/../../lib/gcc/pic32c/8.3.1/../../../../pic32c/lib/arm/v5te/nofp\libg-musl.a(__io_init_needed.o)
 .bss           0x00000000        0x0 c:/program files/microchip/xc32/v4.21/bin/bin/../../lib/gcc/pic32c/8.3.1/../../../../pic32c/lib/arm/v5te/nofp\libg-musl.a(__io_init_needed.o)
 .xc_stack_usage
                0x00000000       0x40 c:/program files/microchip/xc32/v4.21/bin/bin/../../lib/gcc/pic32c/8.3.1/../../../../pic32c/lib/arm/v5te/nofp\libg-musl.a(__io_init_needed.o)
 .xc_stack_usage.hdr
                0x00000000        0xe c:/program files/microchip/xc32/v4.21/bin/bin/../../lib/gcc/pic32c/8.3.1/../../../../pic32c/lib/arm/v5te/nofp\libg-musl.a(__io_init_needed.o)
 .debug_info    0x00000000      0x356 c:/program files/microchip/xc32/v4.21/bin/bin/../../lib/gcc/pic32c/8.3.1/../../../../pic32c/lib/arm/v5te/nofp\libg-musl.a(__io_init_needed.o)
 .debug_abbrev  0x00000000       0x79 c:/program files/microchip/xc32/v4.21/bin/bin/../../lib/gcc/pic32c/8.3.1/../../../../pic32c/lib/arm/v5te/nofp\libg-musl.a(__io_init_needed.o)
 .debug_aranges
                0x00000000       0x28 c:/program files/microchip/xc32/v4.21/bin/bin/../../lib/gcc/pic32c/8.3.1/../../../../pic32c/lib/arm/v5te/nofp\libg-musl.a(__io_init_needed.o)
 .debug_ranges  0x00000000       0x18 c:/program files/microchip/xc32/v4.21/bin/bin/../../lib/gcc/pic32c/8.3.1/../../../../pic32c/lib/arm/v5te/nofp\libg-musl.a(__io_init_needed.o)
 .debug_line    0x00000000      0x132 c:/program files/microchip/xc32/v4.21/bin/bin/../../lib/gcc/pic32c/8.3.1/../../../../pic32c/lib/arm/v5te/nofp\libg-musl.a(__io_init_needed.o)
 .debug_str     0x00000000       0x25 c:/program files/microchip/xc32/v4.21/bin/bin/../../lib/gcc/pic32c/8.3.1/../../../../pic32c/lib/arm/v5te/nofp\libg-musl.a(__io_init_needed.o)
 .comment       0x00000000       0x2c c:/program files/microchip/xc32/v4.21/bin/bin/../../lib/gcc/pic32c/8.3.1/../../../../pic32c/lib/arm/v5te/nofp\libg-musl.a(__io_init_needed.o)
 .note.GNU-stack
                0x00000000        0x0 c:/program files/microchip/xc32/v4.21/bin/bin/../../lib/gcc/pic32c/8.3.1/../../../../pic32c/lib/arm/v5te/nofp\libg-musl.a(__io_init_needed.o)
 .debug_frame   0x00000000       0x30 c:/program files/microchip/xc32/v4.21/bin/bin/../../lib/gcc/pic32c/8.3.1/../../../../pic32c/lib/arm/v5te/nofp\libg-musl.a(__io_init_needed.o)
 .ARM.attributes
                0x00000000       0x2d c:/program files/microchip/xc32/v4.21/bin/bin/../../lib/gcc/pic32c/8.3.1/../../../../pic32c/lib/arm/v5te/nofp\libg-musl.a(__io_init_needed.o)
 .text          0x00000000        0x0 c:/program files/microchip/xc32/v4.21/bin/bin/../../lib/gcc/pic32c/8.3.1/../../../../pic32c/lib/arm/v5te/nofp\libg-musl.a(__io_rw_needed.o)
 .data          0x00000000        0x0 c:/program files/microchip/xc32/v4.21/bin/bin/../../lib/gcc/pic32c/8.3.1/../../../../pic32c/lib/arm/v5te/nofp\libg-musl.a(__io_rw_needed.o)
 .bss           0x00000000        0x0 c:/program files/microchip/xc32/v4.21/bin/bin/../../lib/gcc/pic32c/8.3.1/../../../../pic32c/lib/arm/v5te/nofp\libg-musl.a(__io_rw_needed.o)
 .xc_stack_usage
                0x00000000       0x1c c:/program files/microchip/xc32/v4.21/bin/bin/../../lib/gcc/pic32c/8.3.1/../../../../pic32c/lib/arm/v5te/nofp\libg-musl.a(__io_rw_needed.o)
 __xc_reference_data
                0x00000000       0x30 c:/program files/microchip/xc32/v4.21/bin/bin/../../lib/gcc/pic32c/8.3.1/../../../../pic32c/lib/arm/v5te/nofp\libg-musl.a(__io_rw_needed.o)
 .xc_stack_usage.hdr
                0x00000000        0xe c:/program files/microchip/xc32/v4.21/bin/bin/../../lib/gcc/pic32c/8.3.1/../../../../pic32c/lib/arm/v5te/nofp\libg-musl.a(__io_rw_needed.o)
 .debug_info    0x00000000      0x355 c:/program files/microchip/xc32/v4.21/bin/bin/../../lib/gcc/pic32c/8.3.1/../../../../pic32c/lib/arm/v5te/nofp\libg-musl.a(__io_rw_needed.o)
 .debug_abbrev  0x00000000       0x6a c:/program files/microchip/xc32/v4.21/bin/bin/../../lib/gcc/pic32c/8.3.1/../../../../pic32c/lib/arm/v5te/nofp\libg-musl.a(__io_rw_needed.o)
 .debug_loc     0x00000000       0x2c c:/program files/microchip/xc32/v4.21/bin/bin/../../lib/gcc/pic32c/8.3.1/../../../../pic32c/lib/arm/v5te/nofp\libg-musl.a(__io_rw_needed.o)
 .debug_aranges
                0x00000000       0x20 c:/program files/microchip/xc32/v4.21/bin/bin/../../lib/gcc/pic32c/8.3.1/../../../../pic32c/lib/arm/v5te/nofp\libg-musl.a(__io_rw_needed.o)
 .debug_ranges  0x00000000       0x10 c:/program files/microchip/xc32/v4.21/bin/bin/../../lib/gcc/pic32c/8.3.1/../../../../pic32c/lib/arm/v5te/nofp\libg-musl.a(__io_rw_needed.o)
 .debug_line    0x00000000      0x13e c:/program files/microchip/xc32/v4.21/bin/bin/../../lib/gcc/pic32c/8.3.1/../../../../pic32c/lib/arm/v5te/nofp\libg-musl.a(__io_rw_needed.o)
 .debug_str     0x00000000       0x4d c:/program files/microchip/xc32/v4.21/bin/bin/../../lib/gcc/pic32c/8.3.1/../../../../pic32c/lib/arm/v5te/nofp\libg-musl.a(__io_rw_needed.o)
 .comment       0x00000000       0x2c c:/program files/microchip/xc32/v4.21/bin/bin/../../lib/gcc/pic32c/8.3.1/../../../../pic32c/lib/arm/v5te/nofp\libg-musl.a(__io_rw_needed.o)
 .note.GNU-stack
                0x00000000        0x0 c:/program files/microchip/xc32/v4.21/bin/bin/../../lib/gcc/pic32c/8.3.1/../../../../pic32c/lib/arm/v5te/nofp\libg-musl.a(__io_rw_needed.o)
 .debug_frame   0x00000000       0x2c c:/program files/microchip/xc32/v4.21/bin/bin/../../lib/gcc/pic32c/8.3.1/../../../../pic32c/lib/arm/v5te/nofp\libg-musl.a(__io_rw_needed.o)
 .ARM.attributes
                0x00000000       0x2d c:/program files/microchip/xc32/v4.21/bin/bin/../../lib/gcc/pic32c/8.3.1/../../../../pic32c/lib/arm/v5te/nofp\libg-musl.a(__io_rw_needed.o)
 .text          0x00000000        0x0 c:/program files/microchip/xc32/v4.21/bin/bin/../../lib/gcc/pic32c/8.3.1/../../../../pic32c/lib/arm/v5te/nofp\libg-musl.a(__pop_float.o)
 .data          0x00000000        0x0 c:/program files/microchip/xc32/v4.21/bin/bin/../../lib/gcc/pic32c/8.3.1/../../../../pic32c/lib/arm/v5te/nofp\libg-musl.a(__pop_float.o)
 .bss           0x00000000        0x0 c:/program files/microchip/xc32/v4.21/bin/bin/../../lib/gcc/pic32c/8.3.1/../../../../pic32c/lib/arm/v5te/nofp\libg-musl.a(__pop_float.o)
 .xc_stack_usage
                0x00000000       0x19 c:/program files/microchip/xc32/v4.21/bin/bin/../../lib/gcc/pic32c/8.3.1/../../../../pic32c/lib/arm/v5te/nofp\libg-musl.a(__pop_float.o)
 .xc_stack_usage.hdr
                0x00000000        0xe c:/program files/microchip/xc32/v4.21/bin/bin/../../lib/gcc/pic32c/8.3.1/../../../../pic32c/lib/arm/v5te/nofp\libg-musl.a(__pop_float.o)
 .text          0x00000000        0x0 c:/program files/microchip/xc32/v4.21/bin/bin/../../lib/gcc/pic32c/8.3.1/../../../../pic32c/lib/arm/v5te/nofp\libg-musl.a(__push_float.o)
 .data          0x00000000        0x0 c:/program files/microchip/xc32/v4.21/bin/bin/../../lib/gcc/pic32c/8.3.1/../../../../pic32c/lib/arm/v5te/nofp\libg-musl.a(__push_float.o)
 .bss           0x00000000        0x0 c:/program files/microchip/xc32/v4.21/bin/bin/../../lib/gcc/pic32c/8.3.1/../../../../pic32c/lib/arm/v5te/nofp\libg-musl.a(__push_float.o)
 .xc_stack_usage
                0x00000000       0x1a c:/program files/microchip/xc32/v4.21/bin/bin/../../lib/gcc/pic32c/8.3.1/../../../../pic32c/lib/arm/v5te/nofp\libg-musl.a(__push_float.o)
 .text.__push_float
                0x00000000       0x80 c:/program files/microchip/xc32/v4.21/bin/bin/../../lib/gcc/pic32c/8.3.1/../../../../pic32c/lib/arm/v5te/nofp\libg-musl.a(__push_float.o)
 .xc_stack_usage.hdr
                0x00000000        0xe c:/program files/microchip/xc32/v4.21/bin/bin/../../lib/gcc/pic32c/8.3.1/../../../../pic32c/lib/arm/v5te/nofp\libg-musl.a(__push_float.o)
 .debug_info    0x00000000      0x3ce c:/program files/microchip/xc32/v4.21/bin/bin/../../lib/gcc/pic32c/8.3.1/../../../../pic32c/lib/arm/v5te/nofp\libg-musl.a(__push_float.o)
 .debug_abbrev  0x00000000       0xbd c:/program files/microchip/xc32/v4.21/bin/bin/../../lib/gcc/pic32c/8.3.1/../../../../pic32c/lib/arm/v5te/nofp\libg-musl.a(__push_float.o)
 .debug_loc     0x00000000      0x120 c:/program files/microchip/xc32/v4.21/bin/bin/../../lib/gcc/pic32c/8.3.1/../../../../pic32c/lib/arm/v5te/nofp\libg-musl.a(__push_float.o)
 .debug_aranges
                0x00000000       0x20 c:/program files/microchip/xc32/v4.21/bin/bin/../../lib/gcc/pic32c/8.3.1/../../../../pic32c/lib/arm/v5te/nofp\libg-musl.a(__push_float.o)
 .debug_ranges  0x00000000       0x10 c:/program files/microchip/xc32/v4.21/bin/bin/../../lib/gcc/pic32c/8.3.1/../../../../pic32c/lib/arm/v5te/nofp\libg-musl.a(__push_float.o)
 .debug_line    0x00000000      0x1b6 c:/program files/microchip/xc32/v4.21/bin/bin/../../lib/gcc/pic32c/8.3.1/../../../../pic32c/lib/arm/v5te/nofp\libg-musl.a(__push_float.o)
 .debug_str     0x00000000        0x0 c:/program files/microchip/xc32/v4.21/bin/bin/../../lib/gcc/pic32c/8.3.1/../../../../pic32c/lib/arm/v5te/nofp\libg-musl.a(__push_float.o)
 .comment       0x00000000       0x2c c:/program files/microchip/xc32/v4.21/bin/bin/../../lib/gcc/pic32c/8.3.1/../../../../pic32c/lib/arm/v5te/nofp\libg-musl.a(__push_float.o)
 .note.GNU-stack
                0x00000000        0x0 c:/program files/microchip/xc32/v4.21/bin/bin/../../lib/gcc/pic32c/8.3.1/../../../../pic32c/lib/arm/v5te/nofp\libg-musl.a(__push_float.o)
 .debug_frame   0x00000000       0x28 c:/program files/microchip/xc32/v4.21/bin/bin/../../lib/gcc/pic32c/8.3.1/../../../../pic32c/lib/arm/v5te/nofp\libg-musl.a(__push_float.o)
 .ARM.attributes
                0x00000000       0x2d c:/program files/microchip/xc32/v4.21/bin/bin/../../lib/gcc/pic32c/8.3.1/../../../../pic32c/lib/arm/v5te/nofp\libg-musl.a(__push_float.o)
 .text          0x00000000        0x0 c:/program files/microchip/xc32/v4.21/bin/bin/../../lib/gcc/pic32c/8.3.1/../../../../pic32c/lib/arm/v5te/nofp\libg-musl.a(__push_int.o)
 .data          0x00000000        0x0 c:/program files/microchip/xc32/v4.21/bin/bin/../../lib/gcc/pic32c/8.3.1/../../../../pic32c/lib/arm/v5te/nofp\libg-musl.a(__push_int.o)
 .bss           0x00000000        0x0 c:/program files/microchip/xc32/v4.21/bin/bin/../../lib/gcc/pic32c/8.3.1/../../../../pic32c/lib/arm/v5te/nofp\libg-musl.a(__push_int.o)
 .xc_stack_usage
                0x00000000       0x18 c:/program files/microchip/xc32/v4.21/bin/bin/../../lib/gcc/pic32c/8.3.1/../../../../pic32c/lib/arm/v5te/nofp\libg-musl.a(__push_int.o)
 .text.__push_int
                0x00000000      0x13c c:/program files/microchip/xc32/v4.21/bin/bin/../../lib/gcc/pic32c/8.3.1/../../../../pic32c/lib/arm/v5te/nofp\libg-musl.a(__push_int.o)
 .xc_stack_usage.hdr
                0x00000000        0xe c:/program files/microchip/xc32/v4.21/bin/bin/../../lib/gcc/pic32c/8.3.1/../../../../pic32c/lib/arm/v5te/nofp\libg-musl.a(__push_int.o)
 .debug_info    0x00000000      0x3ff c:/program files/microchip/xc32/v4.21/bin/bin/../../lib/gcc/pic32c/8.3.1/../../../../pic32c/lib/arm/v5te/nofp\libg-musl.a(__push_int.o)
 .debug_abbrev  0x00000000       0xbd c:/program files/microchip/xc32/v4.21/bin/bin/../../lib/gcc/pic32c/8.3.1/../../../../pic32c/lib/arm/v5te/nofp\libg-musl.a(__push_int.o)
 .debug_loc     0x00000000      0x32f c:/program files/microchip/xc32/v4.21/bin/bin/../../lib/gcc/pic32c/8.3.1/../../../../pic32c/lib/arm/v5te/nofp\libg-musl.a(__push_int.o)
 .debug_aranges
                0x00000000       0x20 c:/program files/microchip/xc32/v4.21/bin/bin/../../lib/gcc/pic32c/8.3.1/../../../../pic32c/lib/arm/v5te/nofp\libg-musl.a(__push_int.o)
 .debug_ranges  0x00000000       0x10 c:/program files/microchip/xc32/v4.21/bin/bin/../../lib/gcc/pic32c/8.3.1/../../../../pic32c/lib/arm/v5te/nofp\libg-musl.a(__push_int.o)
 .debug_line    0x00000000      0x226 c:/program files/microchip/xc32/v4.21/bin/bin/../../lib/gcc/pic32c/8.3.1/../../../../pic32c/lib/arm/v5te/nofp\libg-musl.a(__push_int.o)
 .debug_str     0x00000000        0x0 c:/program files/microchip/xc32/v4.21/bin/bin/../../lib/gcc/pic32c/8.3.1/../../../../pic32c/lib/arm/v5te/nofp\libg-musl.a(__push_int.o)
 .comment       0x00000000       0x2c c:/program files/microchip/xc32/v4.21/bin/bin/../../lib/gcc/pic32c/8.3.1/../../../../pic32c/lib/arm/v5te/nofp\libg-musl.a(__push_int.o)
 .note.GNU-stack
                0x00000000        0x0 c:/program files/microchip/xc32/v4.21/bin/bin/../../lib/gcc/pic32c/8.3.1/../../../../pic32c/lib/arm/v5te/nofp\libg-musl.a(__push_int.o)
 .debug_frame   0x00000000       0x20 c:/program files/microchip/xc32/v4.21/bin/bin/../../lib/gcc/pic32c/8.3.1/../../../../pic32c/lib/arm/v5te/nofp\libg-musl.a(__push_int.o)
 .ARM.attributes
                0x00000000       0x2d c:/program files/microchip/xc32/v4.21/bin/bin/../../lib/gcc/pic32c/8.3.1/../../../../pic32c/lib/arm/v5te/nofp\libg-musl.a(__push_int.o)
 .text          0x00000000        0x0 c:/program files/microchip/xc32/v4.21/bin/bin/../../lib/gcc/pic32c/8.3.1/../../../../pic32c/lib/arm/v5te/nofp\libg-musl.a(__towrite_rw.o)
 .data          0x00000000        0x0 c:/program files/microchip/xc32/v4.21/bin/bin/../../lib/gcc/pic32c/8.3.1/../../../../pic32c/lib/arm/v5te/nofp\libg-musl.a(__towrite_rw.o)
 .bss           0x00000000        0x0 c:/program files/microchip/xc32/v4.21/bin/bin/../../lib/gcc/pic32c/8.3.1/../../../../pic32c/lib/arm/v5te/nofp\libg-musl.a(__towrite_rw.o)
 .xc_stack_usage
                0x00000000       0x1a c:/program files/microchip/xc32/v4.21/bin/bin/../../lib/gcc/pic32c/8.3.1/../../../../pic32c/lib/arm/v5te/nofp\libg-musl.a(__towrite_rw.o)
 .text.__towrite_rw
                0x00000000       0x34 c:/program files/microchip/xc32/v4.21/bin/bin/../../lib/gcc/pic32c/8.3.1/../../../../pic32c/lib/arm/v5te/nofp\libg-musl.a(__towrite_rw.o)
 .xc_stack_usage.hdr
                0x00000000        0xe c:/program files/microchip/xc32/v4.21/bin/bin/../../lib/gcc/pic32c/8.3.1/../../../../pic32c/lib/arm/v5te/nofp\libg-musl.a(__towrite_rw.o)
 .debug_info    0x00000000      0x5c7 c:/program files/microchip/xc32/v4.21/bin/bin/../../lib/gcc/pic32c/8.3.1/../../../../pic32c/lib/arm/v5te/nofp\libg-musl.a(__towrite_rw.o)
 .debug_abbrev  0x00000000       0xdc c:/program files/microchip/xc32/v4.21/bin/bin/../../lib/gcc/pic32c/8.3.1/../../../../pic32c/lib/arm/v5te/nofp\libg-musl.a(__towrite_rw.o)
 .debug_loc     0x00000000       0x25 c:/program files/microchip/xc32/v4.21/bin/bin/../../lib/gcc/pic32c/8.3.1/../../../../pic32c/lib/arm/v5te/nofp\libg-musl.a(__towrite_rw.o)
 .debug_aranges
                0x00000000       0x20 c:/program files/microchip/xc32/v4.21/bin/bin/../../lib/gcc/pic32c/8.3.1/../../../../pic32c/lib/arm/v5te/nofp\libg-musl.a(__towrite_rw.o)
 .debug_ranges  0x00000000       0x10 c:/program files/microchip/xc32/v4.21/bin/bin/../../lib/gcc/pic32c/8.3.1/../../../../pic32c/lib/arm/v5te/nofp\libg-musl.a(__towrite_rw.o)
 .debug_line    0x00000000      0x1f7 c:/program files/microchip/xc32/v4.21/bin/bin/../../lib/gcc/pic32c/8.3.1/../../../../pic32c/lib/arm/v5te/nofp\libg-musl.a(__towrite_rw.o)
 .debug_str     0x00000000        0x0 c:/program files/microchip/xc32/v4.21/bin/bin/../../lib/gcc/pic32c/8.3.1/../../../../pic32c/lib/arm/v5te/nofp\libg-musl.a(__towrite_rw.o)
 .comment       0x00000000       0x2c c:/program files/microchip/xc32/v4.21/bin/bin/../../lib/gcc/pic32c/8.3.1/../../../../pic32c/lib/arm/v5te/nofp\libg-musl.a(__towrite_rw.o)
 .note.GNU-stack
                0x00000000        0x0 c:/program files/microchip/xc32/v4.21/bin/bin/../../lib/gcc/pic32c/8.3.1/../../../../pic32c/lib/arm/v5te/nofp\libg-musl.a(__towrite_rw.o)
 .debug_frame   0x00000000       0x20 c:/program files/microchip/xc32/v4.21/bin/bin/../../lib/gcc/pic32c/8.3.1/../../../../pic32c/lib/arm/v5te/nofp\libg-musl.a(__towrite_rw.o)
 .ARM.attributes
                0x00000000       0x2d c:/program files/microchip/xc32/v4.21/bin/bin/../../lib/gcc/pic32c/8.3.1/../../../../pic32c/lib/arm/v5te/nofp\libg-musl.a(__towrite_rw.o)
 .text          0x00000000        0x0 c:/program files/microchip/xc32/v4.21/bin/bin/../../lib/gcc/pic32c/8.3.1/../../../../pic32c/lib/arm/v5te/nofp\libg-musl.a(fwrite.o)
 .data          0x00000000        0x0 c:/program files/microchip/xc32/v4.21/bin/bin/../../lib/gcc/pic32c/8.3.1/../../../../pic32c/lib/arm/v5te/nofp\libg-musl.a(fwrite.o)
 .bss           0x00000000        0x0 c:/program files/microchip/xc32/v4.21/bin/bin/../../lib/gcc/pic32c/8.3.1/../../../../pic32c/lib/arm/v5te/nofp\libg-musl.a(fwrite.o)
 .xc_stack_usage
                0x00000000       0x2e c:/program files/microchip/xc32/v4.21/bin/bin/../../lib/gcc/pic32c/8.3.1/../../../../pic32c/lib/arm/v5te/nofp\libg-musl.a(fwrite.o)
 .text.__fwrite_min
                0x00000000        0x8 c:/program files/microchip/xc32/v4.21/bin/bin/../../lib/gcc/pic32c/8.3.1/../../../../pic32c/lib/arm/v5te/nofp\libg-musl.a(fwrite.o)
 .text.fwrite   0x00000000       0x48 c:/program files/microchip/xc32/v4.21/bin/bin/../../lib/gcc/pic32c/8.3.1/../../../../pic32c/lib/arm/v5te/nofp\libg-musl.a(fwrite.o)
 .xc_stack_usage.hdr
                0x00000000        0xe c:/program files/microchip/xc32/v4.21/bin/bin/../../lib/gcc/pic32c/8.3.1/../../../../pic32c/lib/arm/v5te/nofp\libg-musl.a(fwrite.o)
 .debug_info    0x00000000      0x4c1 c:/program files/microchip/xc32/v4.21/bin/bin/../../lib/gcc/pic32c/8.3.1/../../../../pic32c/lib/arm/v5te/nofp\libg-musl.a(fwrite.o)
 .debug_abbrev  0x00000000      0x10f c:/program files/microchip/xc32/v4.21/bin/bin/../../lib/gcc/pic32c/8.3.1/../../../../pic32c/lib/arm/v5te/nofp\libg-musl.a(fwrite.o)
 .debug_loc     0x00000000      0x17e c:/program files/microchip/xc32/v4.21/bin/bin/../../lib/gcc/pic32c/8.3.1/../../../../pic32c/lib/arm/v5te/nofp\libg-musl.a(fwrite.o)
 .debug_aranges
                0x00000000       0x28 c:/program files/microchip/xc32/v4.21/bin/bin/../../lib/gcc/pic32c/8.3.1/../../../../pic32c/lib/arm/v5te/nofp\libg-musl.a(fwrite.o)
 .debug_ranges  0x00000000       0x18 c:/program files/microchip/xc32/v4.21/bin/bin/../../lib/gcc/pic32c/8.3.1/../../../../pic32c/lib/arm/v5te/nofp\libg-musl.a(fwrite.o)
 .debug_line    0x00000000      0x202 c:/program files/microchip/xc32/v4.21/bin/bin/../../lib/gcc/pic32c/8.3.1/../../../../pic32c/lib/arm/v5te/nofp\libg-musl.a(fwrite.o)
 .debug_str     0x00000000        0x0 c:/program files/microchip/xc32/v4.21/bin/bin/../../lib/gcc/pic32c/8.3.1/../../../../pic32c/lib/arm/v5te/nofp\libg-musl.a(fwrite.o)
 .comment       0x00000000       0x2c c:/program files/microchip/xc32/v4.21/bin/bin/../../lib/gcc/pic32c/8.3.1/../../../../pic32c/lib/arm/v5te/nofp\libg-musl.a(fwrite.o)
 .note.GNU-stack
                0x00000000        0x0 c:/program files/microchip/xc32/v4.21/bin/bin/../../lib/gcc/pic32c/8.3.1/../../../../pic32c/lib/arm/v5te/nofp\libg-musl.a(fwrite.o)
 .debug_frame   0x00000000       0x3c c:/program files/microchip/xc32/v4.21/bin/bin/../../lib/gcc/pic32c/8.3.1/../../../../pic32c/lib/arm/v5te/nofp\libg-musl.a(fwrite.o)
 .ARM.attributes
                0x00000000       0x2d c:/program files/microchip/xc32/v4.21/bin/bin/../../lib/gcc/pic32c/8.3.1/../../../../pic32c/lib/arm/v5te/nofp\libg-musl.a(fwrite.o)
 .text          0x00000000        0x0 c:/program files/microchip/xc32/v4.21/bin/bin/../../lib/gcc/pic32c/8.3.1/../../../../pic32c/lib/arm/v5te/nofp\libg-musl.a(putc.o)
 .data          0x00000000        0x0 c:/program files/microchip/xc32/v4.21/bin/bin/../../lib/gcc/pic32c/8.3.1/../../../../pic32c/lib/arm/v5te/nofp\libg-musl.a(putc.o)
 .bss           0x00000000        0x0 c:/program files/microchip/xc32/v4.21/bin/bin/../../lib/gcc/pic32c/8.3.1/../../../../pic32c/lib/arm/v5te/nofp\libg-musl.a(putc.o)
 .xc_stack_usage
                0x00000000       0x4f c:/program files/microchip/xc32/v4.21/bin/bin/../../lib/gcc/pic32c/8.3.1/../../../../pic32c/lib/arm/v5te/nofp\libg-musl.a(putc.o)
 .text.__putc_unbuffered
                0x00000000       0x50 c:/program files/microchip/xc32/v4.21/bin/bin/../../lib/gcc/pic32c/8.3.1/../../../../pic32c/lib/arm/v5te/nofp\libg-musl.a(putc.o)
 .text.putc     0x00000000        0xc c:/program files/microchip/xc32/v4.21/bin/bin/../../lib/gcc/pic32c/8.3.1/../../../../pic32c/lib/arm/v5te/nofp\libg-musl.a(putc.o)
 __xc_reference_data
                0x00000000        0xc c:/program files/microchip/xc32/v4.21/bin/bin/../../lib/gcc/pic32c/8.3.1/../../../../pic32c/lib/arm/v5te/nofp\libg-musl.a(putc.o)
 .xc_stack_usage.hdr
                0x00000000        0xe c:/program files/microchip/xc32/v4.21/bin/bin/../../lib/gcc/pic32c/8.3.1/../../../../pic32c/lib/arm/v5te/nofp\libg-musl.a(putc.o)
 .debug_info    0x00000000      0x495 c:/program files/microchip/xc32/v4.21/bin/bin/../../lib/gcc/pic32c/8.3.1/../../../../pic32c/lib/arm/v5te/nofp\libg-musl.a(putc.o)
 .debug_abbrev  0x00000000      0x109 c:/program files/microchip/xc32/v4.21/bin/bin/../../lib/gcc/pic32c/8.3.1/../../../../pic32c/lib/arm/v5te/nofp\libg-musl.a(putc.o)
 .debug_loc     0x00000000      0x116 c:/program files/microchip/xc32/v4.21/bin/bin/../../lib/gcc/pic32c/8.3.1/../../../../pic32c/lib/arm/v5te/nofp\libg-musl.a(putc.o)
 .debug_aranges
                0x00000000       0x30 c:/program files/microchip/xc32/v4.21/bin/bin/../../lib/gcc/pic32c/8.3.1/../../../../pic32c/lib/arm/v5te/nofp\libg-musl.a(putc.o)
 .debug_ranges  0x00000000       0x20 c:/program files/microchip/xc32/v4.21/bin/bin/../../lib/gcc/pic32c/8.3.1/../../../../pic32c/lib/arm/v5te/nofp\libg-musl.a(putc.o)
 .debug_line    0x00000000      0x1a5 c:/program files/microchip/xc32/v4.21/bin/bin/../../lib/gcc/pic32c/8.3.1/../../../../pic32c/lib/arm/v5te/nofp\libg-musl.a(putc.o)
 .debug_str     0x00000000       0x16 c:/program files/microchip/xc32/v4.21/bin/bin/../../lib/gcc/pic32c/8.3.1/../../../../pic32c/lib/arm/v5te/nofp\libg-musl.a(putc.o)
 .comment       0x00000000       0x2c c:/program files/microchip/xc32/v4.21/bin/bin/../../lib/gcc/pic32c/8.3.1/../../../../pic32c/lib/arm/v5te/nofp\libg-musl.a(putc.o)
 .note.GNU-stack
                0x00000000        0x0 c:/program files/microchip/xc32/v4.21/bin/bin/../../lib/gcc/pic32c/8.3.1/../../../../pic32c/lib/arm/v5te/nofp\libg-musl.a(putc.o)
 .debug_frame   0x00000000       0x54 c:/program files/microchip/xc32/v4.21/bin/bin/../../lib/gcc/pic32c/8.3.1/../../../../pic32c/lib/arm/v5te/nofp\libg-musl.a(putc.o)
 .ARM.attributes
                0x00000000       0x2d c:/program files/microchip/xc32/v4.21/bin/bin/../../lib/gcc/pic32c/8.3.1/../../../../pic32c/lib/arm/v5te/nofp\libg-musl.a(putc.o)
 .text          0x00000000        0x0 c:/program files/microchip/xc32/v4.21/bin/bin/../../lib/gcc/pic32c/8.3.1/../../../../pic32c/lib/arm/v5te/nofp\libg-musl.a(memrchr.o)
 .data          0x00000000        0x0 c:/program files/microchip/xc32/v4.21/bin/bin/../../lib/gcc/pic32c/8.3.1/../../../../pic32c/lib/arm/v5te/nofp\libg-musl.a(memrchr.o)
 .bss           0x00000000        0x0 c:/program files/microchip/xc32/v4.21/bin/bin/../../lib/gcc/pic32c/8.3.1/../../../../pic32c/lib/arm/v5te/nofp\libg-musl.a(memrchr.o)
 .xc_stack_usage
                0x00000000       0x17 c:/program files/microchip/xc32/v4.21/bin/bin/../../lib/gcc/pic32c/8.3.1/../../../../pic32c/lib/arm/v5te/nofp\libg-musl.a(memrchr.o)
 .text.__memrchr
                0x00000000       0x30 c:/program files/microchip/xc32/v4.21/bin/bin/../../lib/gcc/pic32c/8.3.1/../../../../pic32c/lib/arm/v5te/nofp\libg-musl.a(memrchr.o)
 .xc_stack_usage.hdr
                0x00000000        0xe c:/program files/microchip/xc32/v4.21/bin/bin/../../lib/gcc/pic32c/8.3.1/../../../../pic32c/lib/arm/v5te/nofp\libg-musl.a(memrchr.o)
 .debug_info    0x00000000      0x2e6 c:/program files/microchip/xc32/v4.21/bin/bin/../../lib/gcc/pic32c/8.3.1/../../../../pic32c/lib/arm/v5te/nofp\libg-musl.a(memrchr.o)
 .debug_abbrev  0x00000000       0x92 c:/program files/microchip/xc32/v4.21/bin/bin/../../lib/gcc/pic32c/8.3.1/../../../../pic32c/lib/arm/v5te/nofp\libg-musl.a(memrchr.o)
 .debug_loc     0x00000000       0xa6 c:/program files/microchip/xc32/v4.21/bin/bin/../../lib/gcc/pic32c/8.3.1/../../../../pic32c/lib/arm/v5te/nofp\libg-musl.a(memrchr.o)
 .debug_aranges
                0x00000000       0x20 c:/program files/microchip/xc32/v4.21/bin/bin/../../lib/gcc/pic32c/8.3.1/../../../../pic32c/lib/arm/v5te/nofp\libg-musl.a(memrchr.o)
 .debug_ranges  0x00000000       0x10 c:/program files/microchip/xc32/v4.21/bin/bin/../../lib/gcc/pic32c/8.3.1/../../../../pic32c/lib/arm/v5te/nofp\libg-musl.a(memrchr.o)
 .debug_line    0x00000000       0xdd c:/program files/microchip/xc32/v4.21/bin/bin/../../lib/gcc/pic32c/8.3.1/../../../../pic32c/lib/arm/v5te/nofp\libg-musl.a(memrchr.o)
 .debug_str     0x00000000        0x0 c:/program files/microchip/xc32/v4.21/bin/bin/../../lib/gcc/pic32c/8.3.1/../../../../pic32c/lib/arm/v5te/nofp\libg-musl.a(memrchr.o)
 .comment       0x00000000       0x2c c:/program files/microchip/xc32/v4.21/bin/bin/../../lib/gcc/pic32c/8.3.1/../../../../pic32c/lib/arm/v5te/nofp\libg-musl.a(memrchr.o)
 .note.GNU-stack
                0x00000000        0x0 c:/program files/microchip/xc32/v4.21/bin/bin/../../lib/gcc/pic32c/8.3.1/../../../../pic32c/lib/arm/v5te/nofp\libg-musl.a(memrchr.o)
 .debug_frame   0x00000000       0x20 c:/program files/microchip/xc32/v4.21/bin/bin/../../lib/gcc/pic32c/8.3.1/../../../../pic32c/lib/arm/v5te/nofp\libg-musl.a(memrchr.o)
 .ARM.attributes
                0x00000000       0x2d c:/program files/microchip/xc32/v4.21/bin/bin/../../lib/gcc/pic32c/8.3.1/../../../../pic32c/lib/arm/v5te/nofp\libg-musl.a(memrchr.o)
 .text          0x00000000        0x0 c:/program files/microchip/xc32/v4.21/bin/bin/../../lib/gcc/pic32c/8.3.1/../../../../pic32c/lib/arm/v5te/nofp\libg-musl.a(memchr.o)
 .data          0x00000000        0x0 c:/program files/microchip/xc32/v4.21/bin/bin/../../lib/gcc/pic32c/8.3.1/../../../../pic32c/lib/arm/v5te/nofp\libg-musl.a(memchr.o)
 .bss           0x00000000        0x0 c:/program files/microchip/xc32/v4.21/bin/bin/../../lib/gcc/pic32c/8.3.1/../../../../pic32c/lib/arm/v5te/nofp\libg-musl.a(memchr.o)
 .xc_stack_usage
                0x00000000       0x14 c:/program files/microchip/xc32/v4.21/bin/bin/../../lib/gcc/pic32c/8.3.1/../../../../pic32c/lib/arm/v5te/nofp\libg-musl.a(memchr.o)
 .text.memchr   0x00000000       0x30 c:/program files/microchip/xc32/v4.21/bin/bin/../../lib/gcc/pic32c/8.3.1/../../../../pic32c/lib/arm/v5te/nofp\libg-musl.a(memchr.o)
 .xc_stack_usage.hdr
                0x00000000        0xe c:/program files/microchip/xc32/v4.21/bin/bin/../../lib/gcc/pic32c/8.3.1/../../../../pic32c/lib/arm/v5te/nofp\libg-musl.a(memchr.o)
 .debug_info    0x00000000      0x2e4 c:/program files/microchip/xc32/v4.21/bin/bin/../../lib/gcc/pic32c/8.3.1/../../../../pic32c/lib/arm/v5te/nofp\libg-musl.a(memchr.o)
 .debug_abbrev  0x00000000       0x92 c:/program files/microchip/xc32/v4.21/bin/bin/../../lib/gcc/pic32c/8.3.1/../../../../pic32c/lib/arm/v5te/nofp\libg-musl.a(memchr.o)
 .debug_loc     0x00000000       0xd3 c:/program files/microchip/xc32/v4.21/bin/bin/../../lib/gcc/pic32c/8.3.1/../../../../pic32c/lib/arm/v5te/nofp\libg-musl.a(memchr.o)
 .debug_aranges
                0x00000000       0x20 c:/program files/microchip/xc32/v4.21/bin/bin/../../lib/gcc/pic32c/8.3.1/../../../../pic32c/lib/arm/v5te/nofp\libg-musl.a(memchr.o)
 .debug_ranges  0x00000000       0x10 c:/program files/microchip/xc32/v4.21/bin/bin/../../lib/gcc/pic32c/8.3.1/../../../../pic32c/lib/arm/v5te/nofp\libg-musl.a(memchr.o)
 .debug_line    0x00000000       0xf4 c:/program files/microchip/xc32/v4.21/bin/bin/../../lib/gcc/pic32c/8.3.1/../../../../pic32c/lib/arm/v5te/nofp\libg-musl.a(memchr.o)
 .debug_str     0x00000000        0x0 c:/program files/microchip/xc32/v4.21/bin/bin/../../lib/gcc/pic32c/8.3.1/../../../../pic32c/lib/arm/v5te/nofp\libg-musl.a(memchr.o)
 .comment       0x00000000       0x2c c:/program files/microchip/xc32/v4.21/bin/bin/../../lib/gcc/pic32c/8.3.1/../../../../pic32c/lib/arm/v5te/nofp\libg-musl.a(memchr.o)
 .note.GNU-stack
                0x00000000        0x0 c:/program files/microchip/xc32/v4.21/bin/bin/../../lib/gcc/pic32c/8.3.1/../../../../pic32c/lib/arm/v5te/nofp\libg-musl.a(memchr.o)
 .debug_frame   0x00000000       0x20 c:/program files/microchip/xc32/v4.21/bin/bin/../../lib/gcc/pic32c/8.3.1/../../../../pic32c/lib/arm/v5te/nofp\libg-musl.a(memchr.o)
 .ARM.attributes
                0x00000000       0x2d c:/program files/microchip/xc32/v4.21/bin/bin/../../lib/gcc/pic32c/8.3.1/../../../../pic32c/lib/arm/v5te/nofp\libg-musl.a(memchr.o)
 .text          0x00000000        0x0 c:/program files/microchip/xc32/v4.21/bin/bin/../../lib/gcc/pic32c/8.3.1/../../../../pic32c/lib/arm/v5te/nofp\libg-musl.a(strcspn.o)
 .data          0x00000000        0x0 c:/program files/microchip/xc32/v4.21/bin/bin/../../lib/gcc/pic32c/8.3.1/../../../../pic32c/lib/arm/v5te/nofp\libg-musl.a(strcspn.o)
 .bss           0x00000000        0x0 c:/program files/microchip/xc32/v4.21/bin/bin/../../lib/gcc/pic32c/8.3.1/../../../../pic32c/lib/arm/v5te/nofp\libg-musl.a(strcspn.o)
 .xc_stack_usage
                0x00000000       0x15 c:/program files/microchip/xc32/v4.21/bin/bin/../../lib/gcc/pic32c/8.3.1/../../../../pic32c/lib/arm/v5te/nofp\libg-musl.a(strcspn.o)
 .text.strcspn  0x00000000       0xb8 c:/program files/microchip/xc32/v4.21/bin/bin/../../lib/gcc/pic32c/8.3.1/../../../../pic32c/lib/arm/v5te/nofp\libg-musl.a(strcspn.o)
 .xc_stack_usage.hdr
                0x00000000        0xe c:/program files/microchip/xc32/v4.21/bin/bin/../../lib/gcc/pic32c/8.3.1/../../../../pic32c/lib/arm/v5te/nofp\libg-musl.a(strcspn.o)
 .debug_info    0x00000000      0x309 c:/program files/microchip/xc32/v4.21/bin/bin/../../lib/gcc/pic32c/8.3.1/../../../../pic32c/lib/arm/v5te/nofp\libg-musl.a(strcspn.o)
 .debug_abbrev  0x00000000       0xf5 c:/program files/microchip/xc32/v4.21/bin/bin/../../lib/gcc/pic32c/8.3.1/../../../../pic32c/lib/arm/v5te/nofp\libg-musl.a(strcspn.o)
 .debug_loc     0x00000000      0x123 c:/program files/microchip/xc32/v4.21/bin/bin/../../lib/gcc/pic32c/8.3.1/../../../../pic32c/lib/arm/v5te/nofp\libg-musl.a(strcspn.o)
 .debug_aranges
                0x00000000       0x20 c:/program files/microchip/xc32/v4.21/bin/bin/../../lib/gcc/pic32c/8.3.1/../../../../pic32c/lib/arm/v5te/nofp\libg-musl.a(strcspn.o)
 .debug_ranges  0x00000000       0x10 c:/program files/microchip/xc32/v4.21/bin/bin/../../lib/gcc/pic32c/8.3.1/../../../../pic32c/lib/arm/v5te/nofp\libg-musl.a(strcspn.o)
 .debug_line    0x00000000      0x193 c:/program files/microchip/xc32/v4.21/bin/bin/../../lib/gcc/pic32c/8.3.1/../../../../pic32c/lib/arm/v5te/nofp\libg-musl.a(strcspn.o)
 .debug_str     0x00000000        0xc c:/program files/microchip/xc32/v4.21/bin/bin/../../lib/gcc/pic32c/8.3.1/../../../../pic32c/lib/arm/v5te/nofp\libg-musl.a(strcspn.o)
 .comment       0x00000000       0x2c c:/program files/microchip/xc32/v4.21/bin/bin/../../lib/gcc/pic32c/8.3.1/../../../../pic32c/lib/arm/v5te/nofp\libg-musl.a(strcspn.o)
 .note.GNU-stack
                0x00000000        0x0 c:/program files/microchip/xc32/v4.21/bin/bin/../../lib/gcc/pic32c/8.3.1/../../../../pic32c/lib/arm/v5te/nofp\libg-musl.a(strcspn.o)
 .debug_frame   0x00000000       0x34 c:/program files/microchip/xc32/v4.21/bin/bin/../../lib/gcc/pic32c/8.3.1/../../../../pic32c/lib/arm/v5te/nofp\libg-musl.a(strcspn.o)
 .ARM.attributes
                0x00000000       0x2d c:/program files/microchip/xc32/v4.21/bin/bin/../../lib/gcc/pic32c/8.3.1/../../../../pic32c/lib/arm/v5te/nofp\libg-musl.a(strcspn.o)
 .text          0x00000000        0x0 c:/program files/microchip/xc32/v4.21/bin/bin/../../lib/gcc/pic32c/8.3.1/../../../../pic32c/lib/arm/v5te/nofp\libg-musl.a(strspn.o)
 .data          0x00000000        0x0 c:/program files/microchip/xc32/v4.21/bin/bin/../../lib/gcc/pic32c/8.3.1/../../../../pic32c/lib/arm/v5te/nofp\libg-musl.a(strspn.o)
 .bss           0x00000000        0x0 c:/program files/microchip/xc32/v4.21/bin/bin/../../lib/gcc/pic32c/8.3.1/../../../../pic32c/lib/arm/v5te/nofp\libg-musl.a(strspn.o)
 .xc_stack_usage
                0x00000000       0x14 c:/program files/microchip/xc32/v4.21/bin/bin/../../lib/gcc/pic32c/8.3.1/../../../../pic32c/lib/arm/v5te/nofp\libg-musl.a(strspn.o)
 .text.strspn   0x00000000       0xcc c:/program files/microchip/xc32/v4.21/bin/bin/../../lib/gcc/pic32c/8.3.1/../../../../pic32c/lib/arm/v5te/nofp\libg-musl.a(strspn.o)
 .xc_stack_usage.hdr
                0x00000000        0xe c:/program files/microchip/xc32/v4.21/bin/bin/../../lib/gcc/pic32c/8.3.1/../../../../pic32c/lib/arm/v5te/nofp\libg-musl.a(strspn.o)
 .debug_info    0x00000000      0x2ee c:/program files/microchip/xc32/v4.21/bin/bin/../../lib/gcc/pic32c/8.3.1/../../../../pic32c/lib/arm/v5te/nofp\libg-musl.a(strspn.o)
 .debug_abbrev  0x00000000       0xd2 c:/program files/microchip/xc32/v4.21/bin/bin/../../lib/gcc/pic32c/8.3.1/../../../../pic32c/lib/arm/v5te/nofp\libg-musl.a(strspn.o)
 .debug_loc     0x00000000      0x126 c:/program files/microchip/xc32/v4.21/bin/bin/../../lib/gcc/pic32c/8.3.1/../../../../pic32c/lib/arm/v5te/nofp\libg-musl.a(strspn.o)
 .debug_aranges
                0x00000000       0x20 c:/program files/microchip/xc32/v4.21/bin/bin/../../lib/gcc/pic32c/8.3.1/../../../../pic32c/lib/arm/v5te/nofp\libg-musl.a(strspn.o)
 .debug_ranges  0x00000000       0x10 c:/program files/microchip/xc32/v4.21/bin/bin/../../lib/gcc/pic32c/8.3.1/../../../../pic32c/lib/arm/v5te/nofp\libg-musl.a(strspn.o)
 .debug_line    0x00000000      0x12c c:/program files/microchip/xc32/v4.21/bin/bin/../../lib/gcc/pic32c/8.3.1/../../../../pic32c/lib/arm/v5te/nofp\libg-musl.a(strspn.o)
 .debug_str     0x00000000        0x0 c:/program files/microchip/xc32/v4.21/bin/bin/../../lib/gcc/pic32c/8.3.1/../../../../pic32c/lib/arm/v5te/nofp\libg-musl.a(strspn.o)
 .comment       0x00000000       0x2c c:/program files/microchip/xc32/v4.21/bin/bin/../../lib/gcc/pic32c/8.3.1/../../../../pic32c/lib/arm/v5te/nofp\libg-musl.a(strspn.o)
 .note.GNU-stack
                0x00000000        0x0 c:/program files/microchip/xc32/v4.21/bin/bin/../../lib/gcc/pic32c/8.3.1/../../../../pic32c/lib/arm/v5te/nofp\libg-musl.a(strspn.o)
 .debug_frame   0x00000000       0x34 c:/program files/microchip/xc32/v4.21/bin/bin/../../lib/gcc/pic32c/8.3.1/../../../../pic32c/lib/arm/v5te/nofp\libg-musl.a(strspn.o)
 .ARM.attributes
                0x00000000       0x2d c:/program files/microchip/xc32/v4.21/bin/bin/../../lib/gcc/pic32c/8.3.1/../../../../pic32c/lib/arm/v5te/nofp\libg-musl.a(strspn.o)
 .text          0x00000000        0x0 c:/program files/microchip/xc32/v4.21/bin/bin/../../lib/gcc/pic32c/8.3.1/../../../../pic32c/lib/arm/v5te/nofp\libg-musl.a(__int_vfscanf.o)
 .data          0x00000000        0x0 c:/program files/microchip/xc32/v4.21/bin/bin/../../lib/gcc/pic32c/8.3.1/../../../../pic32c/lib/arm/v5te/nofp\libg-musl.a(__int_vfscanf.o)
 .bss           0x00000000        0x0 c:/program files/microchip/xc32/v4.21/bin/bin/../../lib/gcc/pic32c/8.3.1/../../../../pic32c/lib/arm/v5te/nofp\libg-musl.a(__int_vfscanf.o)
 .xc_stack_usage
                0x00000000       0x17 c:/program files/microchip/xc32/v4.21/bin/bin/../../lib/gcc/pic32c/8.3.1/../../../../pic32c/lib/arm/v5te/nofp\libg-musl.a(__int_vfscanf.o)
 .text.__vfscanf
                0x00000000       0x28 c:/program files/microchip/xc32/v4.21/bin/bin/../../lib/gcc/pic32c/8.3.1/../../../../pic32c/lib/arm/v5te/nofp\libg-musl.a(__int_vfscanf.o)
 .xc_stack_usage.hdr
                0x00000000        0xe c:/program files/microchip/xc32/v4.21/bin/bin/../../lib/gcc/pic32c/8.3.1/../../../../pic32c/lib/arm/v5te/nofp\libg-musl.a(__int_vfscanf.o)
 .debug_info    0x00000000      0x679 c:/program files/microchip/xc32/v4.21/bin/bin/../../lib/gcc/pic32c/8.3.1/../../../../pic32c/lib/arm/v5te/nofp\libg-musl.a(__int_vfscanf.o)
 .debug_abbrev  0x00000000      0x145 c:/program files/microchip/xc32/v4.21/bin/bin/../../lib/gcc/pic32c/8.3.1/../../../../pic32c/lib/arm/v5te/nofp\libg-musl.a(__int_vfscanf.o)
 .debug_loc     0x00000000       0x88 c:/program files/microchip/xc32/v4.21/bin/bin/../../lib/gcc/pic32c/8.3.1/../../../../pic32c/lib/arm/v5te/nofp\libg-musl.a(__int_vfscanf.o)
 .debug_aranges
                0x00000000       0x20 c:/program files/microchip/xc32/v4.21/bin/bin/../../lib/gcc/pic32c/8.3.1/../../../../pic32c/lib/arm/v5te/nofp\libg-musl.a(__int_vfscanf.o)
 .debug_ranges  0x00000000       0x10 c:/program files/microchip/xc32/v4.21/bin/bin/../../lib/gcc/pic32c/8.3.1/../../../../pic32c/lib/arm/v5te/nofp\libg-musl.a(__int_vfscanf.o)
 .debug_line    0x00000000      0x1f1 c:/program files/microchip/xc32/v4.21/bin/bin/../../lib/gcc/pic32c/8.3.1/../../../../pic32c/lib/arm/v5te/nofp\libg-musl.a(__int_vfscanf.o)
 .debug_str     0x00000000        0xd c:/program files/microchip/xc32/v4.21/bin/bin/../../lib/gcc/pic32c/8.3.1/../../../../pic32c/lib/arm/v5te/nofp\libg-musl.a(__int_vfscanf.o)
 .comment       0x00000000       0x2c c:/program files/microchip/xc32/v4.21/bin/bin/../../lib/gcc/pic32c/8.3.1/../../../../pic32c/lib/arm/v5te/nofp\libg-musl.a(__int_vfscanf.o)
 .note.GNU-stack
                0x00000000        0x0 c:/program files/microchip/xc32/v4.21/bin/bin/../../lib/gcc/pic32c/8.3.1/../../../../pic32c/lib/arm/v5te/nofp\libg-musl.a(__int_vfscanf.o)
 .debug_frame   0x00000000       0x2c c:/program files/microchip/xc32/v4.21/bin/bin/../../lib/gcc/pic32c/8.3.1/../../../../pic32c/lib/arm/v5te/nofp\libg-musl.a(__int_vfscanf.o)
 .ARM.attributes
                0x00000000       0x2d c:/program files/microchip/xc32/v4.21/bin/bin/../../lib/gcc/pic32c/8.3.1/../../../../pic32c/lib/arm/v5te/nofp\libg-musl.a(__int_vfscanf.o)
 .text          0x00000000        0x0 c:/program files/microchip/xc32/v4.21/bin/bin/../../lib/gcc/pic32c/8.3.1/../../../../pic32c/lib/arm/v5te/nofp\libg-musl.a(__int_vsnprintf.o)
 .data          0x00000000        0x0 c:/program files/microchip/xc32/v4.21/bin/bin/../../lib/gcc/pic32c/8.3.1/../../../../pic32c/lib/arm/v5te/nofp\libg-musl.a(__int_vsnprintf.o)
 .bss           0x00000000        0x0 c:/program files/microchip/xc32/v4.21/bin/bin/../../lib/gcc/pic32c/8.3.1/../../../../pic32c/lib/arm/v5te/nofp\libg-musl.a(__int_vsnprintf.o)
 .xc_stack_usage
                0x00000000       0x19 c:/program files/microchip/xc32/v4.21/bin/bin/../../lib/gcc/pic32c/8.3.1/../../../../pic32c/lib/arm/v5te/nofp\libg-musl.a(__int_vsnprintf.o)
 .xc_stack_usage.hdr
                0x00000000        0xe c:/program files/microchip/xc32/v4.21/bin/bin/../../lib/gcc/pic32c/8.3.1/../../../../pic32c/lib/arm/v5te/nofp\libg-musl.a(__int_vsnprintf.o)
 .text          0x00000000        0x0 c:/program files/microchip/xc32/v4.21/bin/bin/../../lib/gcc/pic32c/8.3.1/../../../../pic32c/lib/arm/v5te/nofp\libg-musl.a(__toread.o)
 .data          0x00000000        0x0 c:/program files/microchip/xc32/v4.21/bin/bin/../../lib/gcc/pic32c/8.3.1/../../../../pic32c/lib/arm/v5te/nofp\libg-musl.a(__toread.o)
 .bss           0x00000000        0x0 c:/program files/microchip/xc32/v4.21/bin/bin/../../lib/gcc/pic32c/8.3.1/../../../../pic32c/lib/arm/v5te/nofp\libg-musl.a(__toread.o)
 .xc_stack_usage
                0x00000000       0x3d c:/program files/microchip/xc32/v4.21/bin/bin/../../lib/gcc/pic32c/8.3.1/../../../../pic32c/lib/arm/v5te/nofp\libg-musl.a(__toread.o)
 .text.__toread
                0x00000000       0x84 c:/program files/microchip/xc32/v4.21/bin/bin/../../lib/gcc/pic32c/8.3.1/../../../../pic32c/lib/arm/v5te/nofp\libg-musl.a(__toread.o)
 .text.__toread_needs_stdio_exit
                0x00000000        0x4 c:/program files/microchip/xc32/v4.21/bin/bin/../../lib/gcc/pic32c/8.3.1/../../../../pic32c/lib/arm/v5te/nofp\libg-musl.a(__toread.o)
 .xc_stack_usage.hdr
                0x00000000        0xe c:/program files/microchip/xc32/v4.21/bin/bin/../../lib/gcc/pic32c/8.3.1/../../../../pic32c/lib/arm/v5te/nofp\libg-musl.a(__toread.o)
 .debug_info    0x00000000      0x61d c:/program files/microchip/xc32/v4.21/bin/bin/../../lib/gcc/pic32c/8.3.1/../../../../pic32c/lib/arm/v5te/nofp\libg-musl.a(__toread.o)
 .debug_abbrev  0x00000000      0x12f c:/program files/microchip/xc32/v4.21/bin/bin/../../lib/gcc/pic32c/8.3.1/../../../../pic32c/lib/arm/v5te/nofp\libg-musl.a(__toread.o)
 .debug_loc     0x00000000       0x42 c:/program files/microchip/xc32/v4.21/bin/bin/../../lib/gcc/pic32c/8.3.1/../../../../pic32c/lib/arm/v5te/nofp\libg-musl.a(__toread.o)
 .debug_aranges
                0x00000000       0x28 c:/program files/microchip/xc32/v4.21/bin/bin/../../lib/gcc/pic32c/8.3.1/../../../../pic32c/lib/arm/v5te/nofp\libg-musl.a(__toread.o)
 .debug_ranges  0x00000000       0x18 c:/program files/microchip/xc32/v4.21/bin/bin/../../lib/gcc/pic32c/8.3.1/../../../../pic32c/lib/arm/v5te/nofp\libg-musl.a(__toread.o)
 .debug_line    0x00000000      0x22e c:/program files/microchip/xc32/v4.21/bin/bin/../../lib/gcc/pic32c/8.3.1/../../../../pic32c/lib/arm/v5te/nofp\libg-musl.a(__toread.o)
 .debug_str     0x00000000       0x14 c:/program files/microchip/xc32/v4.21/bin/bin/../../lib/gcc/pic32c/8.3.1/../../../../pic32c/lib/arm/v5te/nofp\libg-musl.a(__toread.o)
 .comment       0x00000000       0x2c c:/program files/microchip/xc32/v4.21/bin/bin/../../lib/gcc/pic32c/8.3.1/../../../../pic32c/lib/arm/v5te/nofp\libg-musl.a(__toread.o)
 .note.GNU-stack
                0x00000000        0x0 c:/program files/microchip/xc32/v4.21/bin/bin/../../lib/gcc/pic32c/8.3.1/../../../../pic32c/lib/arm/v5te/nofp\libg-musl.a(__toread.o)
 .debug_frame   0x00000000       0x38 c:/program files/microchip/xc32/v4.21/bin/bin/../../lib/gcc/pic32c/8.3.1/../../../../pic32c/lib/arm/v5te/nofp\libg-musl.a(__toread.o)
 .ARM.attributes
                0x00000000       0x2d c:/program files/microchip/xc32/v4.21/bin/bin/../../lib/gcc/pic32c/8.3.1/../../../../pic32c/lib/arm/v5te/nofp\libg-musl.a(__toread.o)
 .text          0x00000000        0x0 c:/program files/microchip/xc32/v4.21/bin/bin/../../lib/gcc/pic32c/8.3.1/../../../../pic32c/lib/arm/v5te/nofp\libg-musl.a(__fopen_rw.o)
 .data          0x00000000        0x0 c:/program files/microchip/xc32/v4.21/bin/bin/../../lib/gcc/pic32c/8.3.1/../../../../pic32c/lib/arm/v5te/nofp\libg-musl.a(__fopen_rw.o)
 .bss           0x00000000        0x0 c:/program files/microchip/xc32/v4.21/bin/bin/../../lib/gcc/pic32c/8.3.1/../../../../pic32c/lib/arm/v5te/nofp\libg-musl.a(__fopen_rw.o)
 .xc_stack_usage
                0x00000000       0x18 c:/program files/microchip/xc32/v4.21/bin/bin/../../lib/gcc/pic32c/8.3.1/../../../../pic32c/lib/arm/v5te/nofp\libg-musl.a(__fopen_rw.o)
 .text.__fopen_rw
                0x00000000       0x74 c:/program files/microchip/xc32/v4.21/bin/bin/../../lib/gcc/pic32c/8.3.1/../../../../pic32c/lib/arm/v5te/nofp\libg-musl.a(__fopen_rw.o)
 .xc_stack_usage.hdr
                0x00000000        0xe c:/program files/microchip/xc32/v4.21/bin/bin/../../lib/gcc/pic32c/8.3.1/../../../../pic32c/lib/arm/v5te/nofp\libg-musl.a(__fopen_rw.o)
 .debug_info    0x00000000      0x681 c:/program files/microchip/xc32/v4.21/bin/bin/../../lib/gcc/pic32c/8.3.1/../../../../pic32c/lib/arm/v5te/nofp\libg-musl.a(__fopen_rw.o)
 .debug_abbrev  0x00000000      0x110 c:/program files/microchip/xc32/v4.21/bin/bin/../../lib/gcc/pic32c/8.3.1/../../../../pic32c/lib/arm/v5te/nofp\libg-musl.a(__fopen_rw.o)
 .debug_loc     0x00000000       0x42 c:/program files/microchip/xc32/v4.21/bin/bin/../../lib/gcc/pic32c/8.3.1/../../../../pic32c/lib/arm/v5te/nofp\libg-musl.a(__fopen_rw.o)
 .debug_aranges
                0x00000000       0x20 c:/program files/microchip/xc32/v4.21/bin/bin/../../lib/gcc/pic32c/8.3.1/../../../../pic32c/lib/arm/v5te/nofp\libg-musl.a(__fopen_rw.o)
 .debug_ranges  0x00000000       0x10 c:/program files/microchip/xc32/v4.21/bin/bin/../../lib/gcc/pic32c/8.3.1/../../../../pic32c/lib/arm/v5te/nofp\libg-musl.a(__fopen_rw.o)
 .debug_line    0x00000000      0x2a0 c:/program files/microchip/xc32/v4.21/bin/bin/../../lib/gcc/pic32c/8.3.1/../../../../pic32c/lib/arm/v5te/nofp\libg-musl.a(__fopen_rw.o)
 .debug_str     0x00000000        0x0 c:/program files/microchip/xc32/v4.21/bin/bin/../../lib/gcc/pic32c/8.3.1/../../../../pic32c/lib/arm/v5te/nofp\libg-musl.a(__fopen_rw.o)
 .comment       0x00000000       0x2c c:/program files/microchip/xc32/v4.21/bin/bin/../../lib/gcc/pic32c/8.3.1/../../../../pic32c/lib/arm/v5te/nofp\libg-musl.a(__fopen_rw.o)
 .note.GNU-stack
                0x00000000        0x0 c:/program files/microchip/xc32/v4.21/bin/bin/../../lib/gcc/pic32c/8.3.1/../../../../pic32c/lib/arm/v5te/nofp\libg-musl.a(__fopen_rw.o)
 .debug_frame   0x00000000       0x28 c:/program files/microchip/xc32/v4.21/bin/bin/../../lib/gcc/pic32c/8.3.1/../../../../pic32c/lib/arm/v5te/nofp\libg-musl.a(__fopen_rw.o)
 .ARM.attributes
                0x00000000       0x2d c:/program files/microchip/xc32/v4.21/bin/bin/../../lib/gcc/pic32c/8.3.1/../../../../pic32c/lib/arm/v5te/nofp\libg-musl.a(__fopen_rw.o)
 .text          0x00000000        0x0 c:/program files/microchip/xc32/v4.21/bin/bin/../../lib/gcc/pic32c/8.3.1/../../../../pic32c/lib/arm/v5te/nofp\libg-musl.a(__ftello_rw.o)
 .data          0x00000000        0x0 c:/program files/microchip/xc32/v4.21/bin/bin/../../lib/gcc/pic32c/8.3.1/../../../../pic32c/lib/arm/v5te/nofp\libg-musl.a(__ftello_rw.o)
 .bss           0x00000000        0x0 c:/program files/microchip/xc32/v4.21/bin/bin/../../lib/gcc/pic32c/8.3.1/../../../../pic32c/lib/arm/v5te/nofp\libg-musl.a(__ftello_rw.o)
 .xc_stack_usage
                0x00000000       0x1d c:/program files/microchip/xc32/v4.21/bin/bin/../../lib/gcc/pic32c/8.3.1/../../../../pic32c/lib/arm/v5te/nofp\libg-musl.a(__ftello_rw.o)
 .text.__ftello_adj_rw
                0x00000000       0x44 c:/program files/microchip/xc32/v4.21/bin/bin/../../lib/gcc/pic32c/8.3.1/../../../../pic32c/lib/arm/v5te/nofp\libg-musl.a(__ftello_rw.o)
 .xc_stack_usage.hdr
                0x00000000        0xe c:/program files/microchip/xc32/v4.21/bin/bin/../../lib/gcc/pic32c/8.3.1/../../../../pic32c/lib/arm/v5te/nofp\libg-musl.a(__ftello_rw.o)
 .debug_info    0x00000000      0x5e2 c:/program files/microchip/xc32/v4.21/bin/bin/../../lib/gcc/pic32c/8.3.1/../../../../pic32c/lib/arm/v5te/nofp\libg-musl.a(__ftello_rw.o)
 .debug_abbrev  0x00000000       0xef c:/program files/microchip/xc32/v4.21/bin/bin/../../lib/gcc/pic32c/8.3.1/../../../../pic32c/lib/arm/v5te/nofp\libg-musl.a(__ftello_rw.o)
 .debug_loc     0x00000000       0x45 c:/program files/microchip/xc32/v4.21/bin/bin/../../lib/gcc/pic32c/8.3.1/../../../../pic32c/lib/arm/v5te/nofp\libg-musl.a(__ftello_rw.o)
 .debug_aranges
                0x00000000       0x20 c:/program files/microchip/xc32/v4.21/bin/bin/../../lib/gcc/pic32c/8.3.1/../../../../pic32c/lib/arm/v5te/nofp\libg-musl.a(__ftello_rw.o)
 .debug_ranges  0x00000000       0x10 c:/program files/microchip/xc32/v4.21/bin/bin/../../lib/gcc/pic32c/8.3.1/../../../../pic32c/lib/arm/v5te/nofp\libg-musl.a(__ftello_rw.o)
 .debug_line    0x00000000      0x1e5 c:/program files/microchip/xc32/v4.21/bin/bin/../../lib/gcc/pic32c/8.3.1/../../../../pic32c/lib/arm/v5te/nofp\libg-musl.a(__ftello_rw.o)
 .debug_str     0x00000000        0x0 c:/program files/microchip/xc32/v4.21/bin/bin/../../lib/gcc/pic32c/8.3.1/../../../../pic32c/lib/arm/v5te/nofp\libg-musl.a(__ftello_rw.o)
 .comment       0x00000000       0x2c c:/program files/microchip/xc32/v4.21/bin/bin/../../lib/gcc/pic32c/8.3.1/../../../../pic32c/lib/arm/v5te/nofp\libg-musl.a(__ftello_rw.o)
 .note.GNU-stack
                0x00000000        0x0 c:/program files/microchip/xc32/v4.21/bin/bin/../../lib/gcc/pic32c/8.3.1/../../../../pic32c/lib/arm/v5te/nofp\libg-musl.a(__ftello_rw.o)
 .debug_frame   0x00000000       0x28 c:/program files/microchip/xc32/v4.21/bin/bin/../../lib/gcc/pic32c/8.3.1/../../../../pic32c/lib/arm/v5te/nofp\libg-musl.a(__ftello_rw.o)
 .ARM.attributes
                0x00000000       0x2d c:/program files/microchip/xc32/v4.21/bin/bin/../../lib/gcc/pic32c/8.3.1/../../../../pic32c/lib/arm/v5te/nofp\libg-musl.a(__ftello_rw.o)
 .text          0x00000000        0x0 c:/program files/microchip/xc32/v4.21/bin/bin/../../lib/gcc/pic32c/8.3.1/../../../../pic32c/lib/arm/v5te/nofp\libg-musl.a(__init_stdio.o)
 .data          0x00000000        0x0 c:/program files/microchip/xc32/v4.21/bin/bin/../../lib/gcc/pic32c/8.3.1/../../../../pic32c/lib/arm/v5te/nofp\libg-musl.a(__init_stdio.o)
 .bss           0x00000000        0x0 c:/program files/microchip/xc32/v4.21/bin/bin/../../lib/gcc/pic32c/8.3.1/../../../../pic32c/lib/arm/v5te/nofp\libg-musl.a(__init_stdio.o)
 .xc_stack_usage
                0x00000000       0x2f c:/program files/microchip/xc32/v4.21/bin/bin/../../lib/gcc/pic32c/8.3.1/../../../../pic32c/lib/arm/v5te/nofp\libg-musl.a(__init_stdio.o)
 .xc_stack_usage.hdr
                0x00000000        0xe c:/program files/microchip/xc32/v4.21/bin/bin/../../lib/gcc/pic32c/8.3.1/../../../../pic32c/lib/arm/v5te/nofp\libg-musl.a(__init_stdio.o)
 .text          0x00000000        0x0 c:/program files/microchip/xc32/v4.21/bin/bin/../../lib/gcc/pic32c/8.3.1/../../../../pic32c/lib/arm/v5te/nofp\libg-musl.a(__io_buf_needed.o)
 .data          0x00000000        0x0 c:/program files/microchip/xc32/v4.21/bin/bin/../../lib/gcc/pic32c/8.3.1/../../../../pic32c/lib/arm/v5te/nofp\libg-musl.a(__io_buf_needed.o)
 .bss           0x00000000        0x0 c:/program files/microchip/xc32/v4.21/bin/bin/../../lib/gcc/pic32c/8.3.1/../../../../pic32c/lib/arm/v5te/nofp\libg-musl.a(__io_buf_needed.o)
 .xc_stack_usage
                0x00000000       0x1d c:/program files/microchip/xc32/v4.21/bin/bin/../../lib/gcc/pic32c/8.3.1/../../../../pic32c/lib/arm/v5te/nofp\libg-musl.a(__io_buf_needed.o)
 __xc_reference_data
                0x00000000       0x4c c:/program files/microchip/xc32/v4.21/bin/bin/../../lib/gcc/pic32c/8.3.1/../../../../pic32c/lib/arm/v5te/nofp\libg-musl.a(__io_buf_needed.o)
 .xc_stack_usage.hdr
                0x00000000        0xe c:/program files/microchip/xc32/v4.21/bin/bin/../../lib/gcc/pic32c/8.3.1/../../../../pic32c/lib/arm/v5te/nofp\libg-musl.a(__io_buf_needed.o)
 .debug_info    0x00000000      0x39c c:/program files/microchip/xc32/v4.21/bin/bin/../../lib/gcc/pic32c/8.3.1/../../../../pic32c/lib/arm/v5te/nofp\libg-musl.a(__io_buf_needed.o)
 .debug_abbrev  0x00000000       0x6a c:/program files/microchip/xc32/v4.21/bin/bin/../../lib/gcc/pic32c/8.3.1/../../../../pic32c/lib/arm/v5te/nofp\libg-musl.a(__io_buf_needed.o)
 .debug_loc     0x00000000       0x2c c:/program files/microchip/xc32/v4.21/bin/bin/../../lib/gcc/pic32c/8.3.1/../../../../pic32c/lib/arm/v5te/nofp\libg-musl.a(__io_buf_needed.o)
 .debug_aranges
                0x00000000       0x20 c:/program files/microchip/xc32/v4.21/bin/bin/../../lib/gcc/pic32c/8.3.1/../../../../pic32c/lib/arm/v5te/nofp\libg-musl.a(__io_buf_needed.o)
 .debug_ranges  0x00000000       0x10 c:/program files/microchip/xc32/v4.21/bin/bin/../../lib/gcc/pic32c/8.3.1/../../../../pic32c/lib/arm/v5te/nofp\libg-musl.a(__io_buf_needed.o)
 .debug_line    0x00000000      0x142 c:/program files/microchip/xc32/v4.21/bin/bin/../../lib/gcc/pic32c/8.3.1/../../../../pic32c/lib/arm/v5te/nofp\libg-musl.a(__io_buf_needed.o)
 .debug_str     0x00000000       0x77 c:/program files/microchip/xc32/v4.21/bin/bin/../../lib/gcc/pic32c/8.3.1/../../../../pic32c/lib/arm/v5te/nofp\libg-musl.a(__io_buf_needed.o)
 .comment       0x00000000       0x2c c:/program files/microchip/xc32/v4.21/bin/bin/../../lib/gcc/pic32c/8.3.1/../../../../pic32c/lib/arm/v5te/nofp\libg-musl.a(__io_buf_needed.o)
 .note.GNU-stack
                0x00000000        0x0 c:/program files/microchip/xc32/v4.21/bin/bin/../../lib/gcc/pic32c/8.3.1/../../../../pic32c/lib/arm/v5te/nofp\libg-musl.a(__io_buf_needed.o)
 .debug_frame   0x00000000       0x2c c:/program files/microchip/xc32/v4.21/bin/bin/../../lib/gcc/pic32c/8.3.1/../../../../pic32c/lib/arm/v5te/nofp\libg-musl.a(__io_buf_needed.o)
 .ARM.attributes
                0x00000000       0x2d c:/program files/microchip/xc32/v4.21/bin/bin/../../lib/gcc/pic32c/8.3.1/../../../../pic32c/lib/arm/v5te/nofp\libg-musl.a(__io_buf_needed.o)
 .text          0x00000000        0x0 c:/program files/microchip/xc32/v4.21/bin/bin/../../lib/gcc/pic32c/8.3.1/../../../../pic32c/lib/arm/v5te/nofp\libg-musl.a(__io_file_needed.o)
 .data          0x00000000        0x0 c:/program files/microchip/xc32/v4.21/bin/bin/../../lib/gcc/pic32c/8.3.1/../../../../pic32c/lib/arm/v5te/nofp\libg-musl.a(__io_file_needed.o)
 .bss           0x00000000        0x0 c:/program files/microchip/xc32/v4.21/bin/bin/../../lib/gcc/pic32c/8.3.1/../../../../pic32c/lib/arm/v5te/nofp\libg-musl.a(__io_file_needed.o)
 .xc_stack_usage
                0x00000000       0x1e c:/program files/microchip/xc32/v4.21/bin/bin/../../lib/gcc/pic32c/8.3.1/../../../../pic32c/lib/arm/v5te/nofp\libg-musl.a(__io_file_needed.o)
 .xc_stack_usage.hdr
                0x00000000        0xe c:/program files/microchip/xc32/v4.21/bin/bin/../../lib/gcc/pic32c/8.3.1/../../../../pic32c/lib/arm/v5te/nofp\libg-musl.a(__io_file_needed.o)
 .debug_info    0x00000000      0x313 c:/program files/microchip/xc32/v4.21/bin/bin/../../lib/gcc/pic32c/8.3.1/../../../../pic32c/lib/arm/v5te/nofp\libg-musl.a(__io_file_needed.o)
 .debug_abbrev  0x00000000       0x5f c:/program files/microchip/xc32/v4.21/bin/bin/../../lib/gcc/pic32c/8.3.1/../../../../pic32c/lib/arm/v5te/nofp\libg-musl.a(__io_file_needed.o)
 .debug_aranges
                0x00000000       0x20 c:/program files/microchip/xc32/v4.21/bin/bin/../../lib/gcc/pic32c/8.3.1/../../../../pic32c/lib/arm/v5te/nofp\libg-musl.a(__io_file_needed.o)
 .debug_ranges  0x00000000       0x10 c:/program files/microchip/xc32/v4.21/bin/bin/../../lib/gcc/pic32c/8.3.1/../../../../pic32c/lib/arm/v5te/nofp\libg-musl.a(__io_file_needed.o)
 .debug_line    0x00000000       0xb3 c:/program files/microchip/xc32/v4.21/bin/bin/../../lib/gcc/pic32c/8.3.1/../../../../pic32c/lib/arm/v5te/nofp\libg-musl.a(__io_file_needed.o)
 .debug_str     0x00000000        0xd c:/program files/microchip/xc32/v4.21/bin/bin/../../lib/gcc/pic32c/8.3.1/../../../../pic32c/lib/arm/v5te/nofp\libg-musl.a(__io_file_needed.o)
 .comment       0x00000000       0x2c c:/program files/microchip/xc32/v4.21/bin/bin/../../lib/gcc/pic32c/8.3.1/../../../../pic32c/lib/arm/v5te/nofp\libg-musl.a(__io_file_needed.o)
 .note.GNU-stack
                0x00000000        0x0 c:/program files/microchip/xc32/v4.21/bin/bin/../../lib/gcc/pic32c/8.3.1/../../../../pic32c/lib/arm/v5te/nofp\libg-musl.a(__io_file_needed.o)
 .debug_frame   0x00000000       0x20 c:/program files/microchip/xc32/v4.21/bin/bin/../../lib/gcc/pic32c/8.3.1/../../../../pic32c/lib/arm/v5te/nofp\libg-musl.a(__io_file_needed.o)
 .ARM.attributes
                0x00000000       0x2d c:/program files/microchip/xc32/v4.21/bin/bin/../../lib/gcc/pic32c/8.3.1/../../../../pic32c/lib/arm/v5te/nofp\libg-musl.a(__io_file_needed.o)
 .text          0x00000000        0x0 c:/program files/microchip/xc32/v4.21/bin/bin/../../lib/gcc/pic32c/8.3.1/../../../../pic32c/lib/arm/v5te/nofp\libg-musl.a(__io_std_needed.o)
 .data          0x00000000        0x0 c:/program files/microchip/xc32/v4.21/bin/bin/../../lib/gcc/pic32c/8.3.1/../../../../pic32c/lib/arm/v5te/nofp\libg-musl.a(__io_std_needed.o)
 .bss           0x00000000        0x0 c:/program files/microchip/xc32/v4.21/bin/bin/../../lib/gcc/pic32c/8.3.1/../../../../pic32c/lib/arm/v5te/nofp\libg-musl.a(__io_std_needed.o)
 .xc_stack_usage
                0x00000000       0x1d c:/program files/microchip/xc32/v4.21/bin/bin/../../lib/gcc/pic32c/8.3.1/../../../../pic32c/lib/arm/v5te/nofp\libg-musl.a(__io_std_needed.o)
 .xc_stack_usage.hdr
                0x00000000        0xe c:/program files/microchip/xc32/v4.21/bin/bin/../../lib/gcc/pic32c/8.3.1/../../../../pic32c/lib/arm/v5te/nofp\libg-musl.a(__io_std_needed.o)
 .debug_info    0x00000000      0x385 c:/program files/microchip/xc32/v4.21/bin/bin/../../lib/gcc/pic32c/8.3.1/../../../../pic32c/lib/arm/v5te/nofp\libg-musl.a(__io_std_needed.o)
 .debug_abbrev  0x00000000       0x6a c:/program files/microchip/xc32/v4.21/bin/bin/../../lib/gcc/pic32c/8.3.1/../../../../pic32c/lib/arm/v5te/nofp\libg-musl.a(__io_std_needed.o)
 .debug_loc     0x00000000       0x2c c:/program files/microchip/xc32/v4.21/bin/bin/../../lib/gcc/pic32c/8.3.1/../../../../pic32c/lib/arm/v5te/nofp\libg-musl.a(__io_std_needed.o)
 .debug_aranges
                0x00000000       0x20 c:/program files/microchip/xc32/v4.21/bin/bin/../../lib/gcc/pic32c/8.3.1/../../../../pic32c/lib/arm/v5te/nofp\libg-musl.a(__io_std_needed.o)
 .debug_ranges  0x00000000       0x10 c:/program files/microchip/xc32/v4.21/bin/bin/../../lib/gcc/pic32c/8.3.1/../../../../pic32c/lib/arm/v5te/nofp\libg-musl.a(__io_std_needed.o)
 .debug_line    0x00000000      0x141 c:/program files/microchip/xc32/v4.21/bin/bin/../../lib/gcc/pic32c/8.3.1/../../../../pic32c/lib/arm/v5te/nofp\libg-musl.a(__io_std_needed.o)
 .debug_str     0x00000000       0x6b c:/program files/microchip/xc32/v4.21/bin/bin/../../lib/gcc/pic32c/8.3.1/../../../../pic32c/lib/arm/v5te/nofp\libg-musl.a(__io_std_needed.o)
 .comment       0x00000000       0x2c c:/program files/microchip/xc32/v4.21/bin/bin/../../lib/gcc/pic32c/8.3.1/../../../../pic32c/lib/arm/v5te/nofp\libg-musl.a(__io_std_needed.o)
 .note.GNU-stack
                0x00000000        0x0 c:/program files/microchip/xc32/v4.21/bin/bin/../../lib/gcc/pic32c/8.3.1/../../../../pic32c/lib/arm/v5te/nofp\libg-musl.a(__io_std_needed.o)
 .debug_frame   0x00000000       0x2c c:/program files/microchip/xc32/v4.21/bin/bin/../../lib/gcc/pic32c/8.3.1/../../../../pic32c/lib/arm/v5te/nofp\libg-musl.a(__io_std_needed.o)
 .ARM.attributes
                0x00000000       0x2d c:/program files/microchip/xc32/v4.21/bin/bin/../../lib/gcc/pic32c/8.3.1/../../../../pic32c/lib/arm/v5te/nofp\libg-musl.a(__io_std_needed.o)
 .text          0x00000000        0x0 c:/program files/microchip/xc32/v4.21/bin/bin/../../lib/gcc/pic32c/8.3.1/../../../../pic32c/lib/arm/v5te/nofp\libg-musl.a(__out.o)
 .data          0x00000000        0x0 c:/program files/microchip/xc32/v4.21/bin/bin/../../lib/gcc/pic32c/8.3.1/../../../../pic32c/lib/arm/v5te/nofp\libg-musl.a(__out.o)
 .bss           0x00000000        0x0 c:/program files/microchip/xc32/v4.21/bin/bin/../../lib/gcc/pic32c/8.3.1/../../../../pic32c/lib/arm/v5te/nofp\libg-musl.a(__out.o)
 .xc_stack_usage
                0x00000000       0x2d c:/program files/microchip/xc32/v4.21/bin/bin/../../lib/gcc/pic32c/8.3.1/../../../../pic32c/lib/arm/v5te/nofp\libg-musl.a(__out.o)
 .xc_stack_usage.hdr
                0x00000000        0xe c:/program files/microchip/xc32/v4.21/bin/bin/../../lib/gcc/pic32c/8.3.1/../../../../pic32c/lib/arm/v5te/nofp\libg-musl.a(__out.o)
 .text          0x00000000        0x0 c:/program files/microchip/xc32/v4.21/bin/bin/../../lib/gcc/pic32c/8.3.1/../../../../pic32c/lib/arm/v5te/nofp\libg-musl.a(__putc.o)
 .data          0x00000000        0x0 c:/program files/microchip/xc32/v4.21/bin/bin/../../lib/gcc/pic32c/8.3.1/../../../../pic32c/lib/arm/v5te/nofp\libg-musl.a(__putc.o)
 .bss           0x00000000        0x0 c:/program files/microchip/xc32/v4.21/bin/bin/../../lib/gcc/pic32c/8.3.1/../../../../pic32c/lib/arm/v5te/nofp\libg-musl.a(__putc.o)
 .xc_stack_usage
                0x00000000       0x14 c:/program files/microchip/xc32/v4.21/bin/bin/../../lib/gcc/pic32c/8.3.1/../../../../pic32c/lib/arm/v5te/nofp\libg-musl.a(__putc.o)
 .text.__putc   0x00000000       0x54 c:/program files/microchip/xc32/v4.21/bin/bin/../../lib/gcc/pic32c/8.3.1/../../../../pic32c/lib/arm/v5te/nofp\libg-musl.a(__putc.o)
 .xc_stack_usage.hdr
                0x00000000        0xe c:/program files/microchip/xc32/v4.21/bin/bin/../../lib/gcc/pic32c/8.3.1/../../../../pic32c/lib/arm/v5te/nofp\libg-musl.a(__putc.o)
 .debug_info    0x00000000      0x4f2 c:/program files/microchip/xc32/v4.21/bin/bin/../../lib/gcc/pic32c/8.3.1/../../../../pic32c/lib/arm/v5te/nofp\libg-musl.a(__putc.o)
 .debug_abbrev  0x00000000       0xf3 c:/program files/microchip/xc32/v4.21/bin/bin/../../lib/gcc/pic32c/8.3.1/../../../../pic32c/lib/arm/v5te/nofp\libg-musl.a(__putc.o)
 .debug_loc     0x00000000       0xb8 c:/program files/microchip/xc32/v4.21/bin/bin/../../lib/gcc/pic32c/8.3.1/../../../../pic32c/lib/arm/v5te/nofp\libg-musl.a(__putc.o)
 .debug_aranges
                0x00000000       0x20 c:/program files/microchip/xc32/v4.21/bin/bin/../../lib/gcc/pic32c/8.3.1/../../../../pic32c/lib/arm/v5te/nofp\libg-musl.a(__putc.o)
 .debug_ranges  0x00000000       0x10 c:/program files/microchip/xc32/v4.21/bin/bin/../../lib/gcc/pic32c/8.3.1/../../../../pic32c/lib/arm/v5te/nofp\libg-musl.a(__putc.o)
 .debug_line    0x00000000      0x16b c:/program files/microchip/xc32/v4.21/bin/bin/../../lib/gcc/pic32c/8.3.1/../../../../pic32c/lib/arm/v5te/nofp\libg-musl.a(__putc.o)
 .debug_str     0x00000000       0x1d c:/program files/microchip/xc32/v4.21/bin/bin/../../lib/gcc/pic32c/8.3.1/../../../../pic32c/lib/arm/v5te/nofp\libg-musl.a(__putc.o)
 .comment       0x00000000       0x2c c:/program files/microchip/xc32/v4.21/bin/bin/../../lib/gcc/pic32c/8.3.1/../../../../pic32c/lib/arm/v5te/nofp\libg-musl.a(__putc.o)
 .note.GNU-stack
                0x00000000        0x0 c:/program files/microchip/xc32/v4.21/bin/bin/../../lib/gcc/pic32c/8.3.1/../../../../pic32c/lib/arm/v5te/nofp\libg-musl.a(__putc.o)
 .debug_frame   0x00000000       0x20 c:/program files/microchip/xc32/v4.21/bin/bin/../../lib/gcc/pic32c/8.3.1/../../../../pic32c/lib/arm/v5te/nofp\libg-musl.a(__putc.o)
 .ARM.attributes
                0x00000000       0x2d c:/program files/microchip/xc32/v4.21/bin/bin/../../lib/gcc/pic32c/8.3.1/../../../../pic32c/lib/arm/v5te/nofp\libg-musl.a(__putc.o)
 .text          0x00000000        0x0 c:/program files/microchip/xc32/v4.21/bin/bin/../../lib/gcc/pic32c/8.3.1/../../../../pic32c/lib/arm/v5te/nofp\libg-musl.a(__stderr.o)
 .data          0x00000000       0x60 c:/program files/microchip/xc32/v4.21/bin/bin/../../lib/gcc/pic32c/8.3.1/../../../../pic32c/lib/arm/v5te/nofp\libg-musl.a(__stderr.o)
 .bss           0x00000000        0x0 c:/program files/microchip/xc32/v4.21/bin/bin/../../lib/gcc/pic32c/8.3.1/../../../../pic32c/lib/arm/v5te/nofp\libg-musl.a(__stderr.o)
 .xc_stack_usage
                0x00000000       0x50 c:/program files/microchip/xc32/v4.21/bin/bin/../../lib/gcc/pic32c/8.3.1/../../../../pic32c/lib/arm/v5te/nofp\libg-musl.a(__stderr.o)
 .text.__dummy  0x00000000        0x4 c:/program files/microchip/xc32/v4.21/bin/bin/../../lib/gcc/pic32c/8.3.1/../../../../pic32c/lib/arm/v5te/nofp\libg-musl.a(__stderr.o)
 .text.__get_stderr
                0x00000000        0xc c:/program files/microchip/xc32/v4.21/bin/bin/../../lib/gcc/pic32c/8.3.1/../../../../pic32c/lib/arm/v5te/nofp\libg-musl.a(__stderr.o)
 __xc_reference_data
                0x00000000        0x4 c:/program files/microchip/xc32/v4.21/bin/bin/../../lib/gcc/pic32c/8.3.1/../../../../pic32c/lib/arm/v5te/nofp\libg-musl.a(__stderr.o)
 .xc_stack_usage.hdr
                0x00000000        0xe c:/program files/microchip/xc32/v4.21/bin/bin/../../lib/gcc/pic32c/8.3.1/../../../../pic32c/lib/arm/v5te/nofp\libg-musl.a(__stderr.o)
 .debug_info    0x00000000      0x652 c:/program files/microchip/xc32/v4.21/bin/bin/../../lib/gcc/pic32c/8.3.1/../../../../pic32c/lib/arm/v5te/nofp\libg-musl.a(__stderr.o)
 .debug_abbrev  0x00000000      0x154 c:/program files/microchip/xc32/v4.21/bin/bin/../../lib/gcc/pic32c/8.3.1/../../../../pic32c/lib/arm/v5te/nofp\libg-musl.a(__stderr.o)
 .debug_loc     0x00000000       0x25 c:/program files/microchip/xc32/v4.21/bin/bin/../../lib/gcc/pic32c/8.3.1/../../../../pic32c/lib/arm/v5te/nofp\libg-musl.a(__stderr.o)
 .debug_aranges
                0x00000000       0x30 c:/program files/microchip/xc32/v4.21/bin/bin/../../lib/gcc/pic32c/8.3.1/../../../../pic32c/lib/arm/v5te/nofp\libg-musl.a(__stderr.o)
 .debug_ranges  0x00000000       0x20 c:/program files/microchip/xc32/v4.21/bin/bin/../../lib/gcc/pic32c/8.3.1/../../../../pic32c/lib/arm/v5te/nofp\libg-musl.a(__stderr.o)
 .debug_line    0x00000000      0x1e5 c:/program files/microchip/xc32/v4.21/bin/bin/../../lib/gcc/pic32c/8.3.1/../../../../pic32c/lib/arm/v5te/nofp\libg-musl.a(__stderr.o)
 .debug_str     0x00000000       0x11 c:/program files/microchip/xc32/v4.21/bin/bin/../../lib/gcc/pic32c/8.3.1/../../../../pic32c/lib/arm/v5te/nofp\libg-musl.a(__stderr.o)
 .comment       0x00000000       0x2c c:/program files/microchip/xc32/v4.21/bin/bin/../../lib/gcc/pic32c/8.3.1/../../../../pic32c/lib/arm/v5te/nofp\libg-musl.a(__stderr.o)
 .note.GNU-stack
                0x00000000        0x0 c:/program files/microchip/xc32/v4.21/bin/bin/../../lib/gcc/pic32c/8.3.1/../../../../pic32c/lib/arm/v5te/nofp\libg-musl.a(__stderr.o)
 .debug_frame   0x00000000       0x40 c:/program files/microchip/xc32/v4.21/bin/bin/../../lib/gcc/pic32c/8.3.1/../../../../pic32c/lib/arm/v5te/nofp\libg-musl.a(__stderr.o)
 .ARM.attributes
                0x00000000       0x2d c:/program files/microchip/xc32/v4.21/bin/bin/../../lib/gcc/pic32c/8.3.1/../../../../pic32c/lib/arm/v5te/nofp\libg-musl.a(__stderr.o)
 .text          0x00000000        0x0 c:/program files/microchip/xc32/v4.21/bin/bin/../../lib/gcc/pic32c/8.3.1/../../../../pic32c/lib/arm/v5te/nofp\libg-musl.a(__stdio_close.o)
 .data          0x00000000        0x0 c:/program files/microchip/xc32/v4.21/bin/bin/../../lib/gcc/pic32c/8.3.1/../../../../pic32c/lib/arm/v5te/nofp\libg-musl.a(__stdio_close.o)
 .bss           0x00000000        0x0 c:/program files/microchip/xc32/v4.21/bin/bin/../../lib/gcc/pic32c/8.3.1/../../../../pic32c/lib/arm/v5te/nofp\libg-musl.a(__stdio_close.o)
 .xc_stack_usage
                0x00000000       0x39 c:/program files/microchip/xc32/v4.21/bin/bin/../../lib/gcc/pic32c/8.3.1/../../../../pic32c/lib/arm/v5te/nofp\libg-musl.a(__stdio_close.o)
 .text.__stdio_close
                0x00000000       0x7c c:/program files/microchip/xc32/v4.21/bin/bin/../../lib/gcc/pic32c/8.3.1/../../../../pic32c/lib/arm/v5te/nofp\libg-musl.a(__stdio_close.o)
 .xc_stack_usage.hdr
                0x00000000        0xe c:/program files/microchip/xc32/v4.21/bin/bin/../../lib/gcc/pic32c/8.3.1/../../../../pic32c/lib/arm/v5te/nofp\libg-musl.a(__stdio_close.o)
 .text          0x00000000        0x0 c:/program files/microchip/xc32/v4.21/bin/bin/../../lib/gcc/pic32c/8.3.1/../../../../pic32c/lib/arm/v5te/nofp\libg-musl.a(__stdio_exit.o)
 .data          0x00000000        0x0 c:/program files/microchip/xc32/v4.21/bin/bin/../../lib/gcc/pic32c/8.3.1/../../../../pic32c/lib/arm/v5te/nofp\libg-musl.a(__stdio_exit.o)
 .bss           0x00000000        0x4 c:/program files/microchip/xc32/v4.21/bin/bin/../../lib/gcc/pic32c/8.3.1/../../../../pic32c/lib/arm/v5te/nofp\libg-musl.a(__stdio_exit.o)
 .xc_stack_usage
                0x00000000       0x45 c:/program files/microchip/xc32/v4.21/bin/bin/../../lib/gcc/pic32c/8.3.1/../../../../pic32c/lib/arm/v5te/nofp\libg-musl.a(__stdio_exit.o)
 .text.__dummy  0x00000000        0x4 c:/program files/microchip/xc32/v4.21/bin/bin/../../lib/gcc/pic32c/8.3.1/../../../../pic32c/lib/arm/v5te/nofp\libg-musl.a(__stdio_exit.o)
 .text.__dummy1
                0x00000000        0x8 c:/program files/microchip/xc32/v4.21/bin/bin/../../lib/gcc/pic32c/8.3.1/../../../../pic32c/lib/arm/v5te/nofp\libg-musl.a(__stdio_exit.o)
 .text.__stdio_exit
                0x00000000       0x48 c:/program files/microchip/xc32/v4.21/bin/bin/../../lib/gcc/pic32c/8.3.1/../../../../pic32c/lib/arm/v5te/nofp\libg-musl.a(__stdio_exit.o)
 .xc_stack_usage.hdr
                0x00000000        0xe c:/program files/microchip/xc32/v4.21/bin/bin/../../lib/gcc/pic32c/8.3.1/../../../../pic32c/lib/arm/v5te/nofp\libg-musl.a(__stdio_exit.o)
 .debug_info    0x00000000      0x57c c:/program files/microchip/xc32/v4.21/bin/bin/../../lib/gcc/pic32c/8.3.1/../../../../pic32c/lib/arm/v5te/nofp\libg-musl.a(__stdio_exit.o)
 .debug_abbrev  0x00000000      0x157 c:/program files/microchip/xc32/v4.21/bin/bin/../../lib/gcc/pic32c/8.3.1/../../../../pic32c/lib/arm/v5te/nofp\libg-musl.a(__stdio_exit.o)
 .debug_loc     0x00000000       0x45 c:/program files/microchip/xc32/v4.21/bin/bin/../../lib/gcc/pic32c/8.3.1/../../../../pic32c/lib/arm/v5te/nofp\libg-musl.a(__stdio_exit.o)
 .debug_aranges
                0x00000000       0x30 c:/program files/microchip/xc32/v4.21/bin/bin/../../lib/gcc/pic32c/8.3.1/../../../../pic32c/lib/arm/v5te/nofp\libg-musl.a(__stdio_exit.o)
 .debug_ranges  0x00000000       0x20 c:/program files/microchip/xc32/v4.21/bin/bin/../../lib/gcc/pic32c/8.3.1/../../../../pic32c/lib/arm/v5te/nofp\libg-musl.a(__stdio_exit.o)
 .debug_line    0x00000000      0x186 c:/program files/microchip/xc32/v4.21/bin/bin/../../lib/gcc/pic32c/8.3.1/../../../../pic32c/lib/arm/v5te/nofp\libg-musl.a(__stdio_exit.o)
 .debug_str     0x00000000        0x0 c:/program files/microchip/xc32/v4.21/bin/bin/../../lib/gcc/pic32c/8.3.1/../../../../pic32c/lib/arm/v5te/nofp\libg-musl.a(__stdio_exit.o)
 .comment       0x00000000       0x2c c:/program files/microchip/xc32/v4.21/bin/bin/../../lib/gcc/pic32c/8.3.1/../../../../pic32c/lib/arm/v5te/nofp\libg-musl.a(__stdio_exit.o)
 .note.GNU-stack
                0x00000000        0x0 c:/program files/microchip/xc32/v4.21/bin/bin/../../lib/gcc/pic32c/8.3.1/../../../../pic32c/lib/arm/v5te/nofp\libg-musl.a(__stdio_exit.o)
 .debug_frame   0x00000000       0x48 c:/program files/microchip/xc32/v4.21/bin/bin/../../lib/gcc/pic32c/8.3.1/../../../../pic32c/lib/arm/v5te/nofp\libg-musl.a(__stdio_exit.o)
 .ARM.attributes
                0x00000000       0x2d c:/program files/microchip/xc32/v4.21/bin/bin/../../lib/gcc/pic32c/8.3.1/../../../../pic32c/lib/arm/v5te/nofp\libg-musl.a(__stdio_exit.o)
 .text          0x00000000        0x0 c:/program files/microchip/xc32/v4.21/bin/bin/../../lib/gcc/pic32c/8.3.1/../../../../pic32c/lib/arm/v5te/nofp\libg-musl.a(__stdio_read.o)
 .data          0x00000000        0x0 c:/program files/microchip/xc32/v4.21/bin/bin/../../lib/gcc/pic32c/8.3.1/../../../../pic32c/lib/arm/v5te/nofp\libg-musl.a(__stdio_read.o)
 .bss           0x00000000        0x0 c:/program files/microchip/xc32/v4.21/bin/bin/../../lib/gcc/pic32c/8.3.1/../../../../pic32c/lib/arm/v5te/nofp\libg-musl.a(__stdio_read.o)
 .xc_stack_usage
                0x00000000       0x1a c:/program files/microchip/xc32/v4.21/bin/bin/../../lib/gcc/pic32c/8.3.1/../../../../pic32c/lib/arm/v5te/nofp\libg-musl.a(__stdio_read.o)
 .text.__stdio_read
                0x00000000       0xac c:/program files/microchip/xc32/v4.21/bin/bin/../../lib/gcc/pic32c/8.3.1/../../../../pic32c/lib/arm/v5te/nofp\libg-musl.a(__stdio_read.o)
 .xc_stack_usage.hdr
                0x00000000        0xe c:/program files/microchip/xc32/v4.21/bin/bin/../../lib/gcc/pic32c/8.3.1/../../../../pic32c/lib/arm/v5te/nofp\libg-musl.a(__stdio_read.o)
 .debug_info    0x00000000      0x698 c:/program files/microchip/xc32/v4.21/bin/bin/../../lib/gcc/pic32c/8.3.1/../../../../pic32c/lib/arm/v5te/nofp\libg-musl.a(__stdio_read.o)
 .debug_abbrev  0x00000000      0x150 c:/program files/microchip/xc32/v4.21/bin/bin/../../lib/gcc/pic32c/8.3.1/../../../../pic32c/lib/arm/v5te/nofp\libg-musl.a(__stdio_read.o)
 .debug_loc     0x00000000      0x103 c:/program files/microchip/xc32/v4.21/bin/bin/../../lib/gcc/pic32c/8.3.1/../../../../pic32c/lib/arm/v5te/nofp\libg-musl.a(__stdio_read.o)
 .debug_aranges
                0x00000000       0x20 c:/program files/microchip/xc32/v4.21/bin/bin/../../lib/gcc/pic32c/8.3.1/../../../../pic32c/lib/arm/v5te/nofp\libg-musl.a(__stdio_read.o)
 .debug_ranges  0x00000000       0x10 c:/program files/microchip/xc32/v4.21/bin/bin/../../lib/gcc/pic32c/8.3.1/../../../../pic32c/lib/arm/v5te/nofp\libg-musl.a(__stdio_read.o)
 .debug_line    0x00000000      0x244 c:/program files/microchip/xc32/v4.21/bin/bin/../../lib/gcc/pic32c/8.3.1/../../../../pic32c/lib/arm/v5te/nofp\libg-musl.a(__stdio_read.o)
 .debug_str     0x00000000        0x0 c:/program files/microchip/xc32/v4.21/bin/bin/../../lib/gcc/pic32c/8.3.1/../../../../pic32c/lib/arm/v5te/nofp\libg-musl.a(__stdio_read.o)
 .comment       0x00000000       0x2c c:/program files/microchip/xc32/v4.21/bin/bin/../../lib/gcc/pic32c/8.3.1/../../../../pic32c/lib/arm/v5te/nofp\libg-musl.a(__stdio_read.o)
 .note.GNU-stack
                0x00000000        0x0 c:/program files/microchip/xc32/v4.21/bin/bin/../../lib/gcc/pic32c/8.3.1/../../../../pic32c/lib/arm/v5te/nofp\libg-musl.a(__stdio_read.o)
 .debug_frame   0x00000000       0x30 c:/program files/microchip/xc32/v4.21/bin/bin/../../lib/gcc/pic32c/8.3.1/../../../../pic32c/lib/arm/v5te/nofp\libg-musl.a(__stdio_read.o)
 .ARM.attributes
                0x00000000       0x2d c:/program files/microchip/xc32/v4.21/bin/bin/../../lib/gcc/pic32c/8.3.1/../../../../pic32c/lib/arm/v5te/nofp\libg-musl.a(__stdio_read.o)
 .text          0x00000000        0x0 c:/program files/microchip/xc32/v4.21/bin/bin/../../lib/gcc/pic32c/8.3.1/../../../../pic32c/lib/arm/v5te/nofp\libg-musl.a(__stdio_seek.o)
 .data          0x00000000        0x0 c:/program files/microchip/xc32/v4.21/bin/bin/../../lib/gcc/pic32c/8.3.1/../../../../pic32c/lib/arm/v5te/nofp\libg-musl.a(__stdio_seek.o)
 .bss           0x00000000        0x0 c:/program files/microchip/xc32/v4.21/bin/bin/../../lib/gcc/pic32c/8.3.1/../../../../pic32c/lib/arm/v5te/nofp\libg-musl.a(__stdio_seek.o)
 .xc_stack_usage
                0x00000000       0x5c c:/program files/microchip/xc32/v4.21/bin/bin/../../lib/gcc/pic32c/8.3.1/../../../../pic32c/lib/arm/v5te/nofp\libg-musl.a(__stdio_seek.o)
 .text.__stdio_seek_rw
                0x00000000       0x9c c:/program files/microchip/xc32/v4.21/bin/bin/../../lib/gcc/pic32c/8.3.1/../../../../pic32c/lib/arm/v5te/nofp\libg-musl.a(__stdio_seek.o)
 .xc_stack_usage.hdr
                0x00000000        0xe c:/program files/microchip/xc32/v4.21/bin/bin/../../lib/gcc/pic32c/8.3.1/../../../../pic32c/lib/arm/v5te/nofp\libg-musl.a(__stdio_seek.o)
 .text          0x00000000        0x0 c:/program files/microchip/xc32/v4.21/bin/bin/../../lib/gcc/pic32c/8.3.1/../../../../pic32c/lib/arm/v5te/nofp\libg-musl.a(__stdout.o)
 .bss           0x00000000        0x0 c:/program files/microchip/xc32/v4.21/bin/bin/../../lib/gcc/pic32c/8.3.1/../../../../pic32c/lib/arm/v5te/nofp\libg-musl.a(__stdout.o)
 .xc_stack_usage
                0x00000000       0x50 c:/program files/microchip/xc32/v4.21/bin/bin/../../lib/gcc/pic32c/8.3.1/../../../../pic32c/lib/arm/v5te/nofp\libg-musl.a(__stdout.o)
 .text.__dummy  0x00000000        0x4 c:/program files/microchip/xc32/v4.21/bin/bin/../../lib/gcc/pic32c/8.3.1/../../../../pic32c/lib/arm/v5te/nofp\libg-musl.a(__stdout.o)
 .xc_stack_usage.hdr
                0x00000000        0xe c:/program files/microchip/xc32/v4.21/bin/bin/../../lib/gcc/pic32c/8.3.1/../../../../pic32c/lib/arm/v5te/nofp\libg-musl.a(__stdout.o)
 .text          0x00000000        0x0 c:/program files/microchip/xc32/v4.21/bin/bin/../../lib/gcc/pic32c/8.3.1/../../../../pic32c/lib/arm/v5te/nofp\libg-musl.a(strchrnul.o)
 .data          0x00000000        0x0 c:/program files/microchip/xc32/v4.21/bin/bin/../../lib/gcc/pic32c/8.3.1/../../../../pic32c/lib/arm/v5te/nofp\libg-musl.a(strchrnul.o)
 .bss           0x00000000        0x0 c:/program files/microchip/xc32/v4.21/bin/bin/../../lib/gcc/pic32c/8.3.1/../../../../pic32c/lib/arm/v5te/nofp\libg-musl.a(strchrnul.o)
 .xc_stack_usage
                0x00000000       0x19 c:/program files/microchip/xc32/v4.21/bin/bin/../../lib/gcc/pic32c/8.3.1/../../../../pic32c/lib/arm/v5te/nofp\libg-musl.a(strchrnul.o)
 .text.__strchrnul
                0x00000000       0xa8 c:/program files/microchip/xc32/v4.21/bin/bin/../../lib/gcc/pic32c/8.3.1/../../../../pic32c/lib/arm/v5te/nofp\libg-musl.a(strchrnul.o)
 .xc_stack_usage.hdr
                0x00000000        0xe c:/program files/microchip/xc32/v4.21/bin/bin/../../lib/gcc/pic32c/8.3.1/../../../../pic32c/lib/arm/v5te/nofp\libg-musl.a(strchrnul.o)
 .debug_info    0x00000000      0x385 c:/program files/microchip/xc32/v4.21/bin/bin/../../lib/gcc/pic32c/8.3.1/../../../../pic32c/lib/arm/v5te/nofp\libg-musl.a(strchrnul.o)
 .debug_abbrev  0x00000000       0xb1 c:/program files/microchip/xc32/v4.21/bin/bin/../../lib/gcc/pic32c/8.3.1/../../../../pic32c/lib/arm/v5te/nofp\libg-musl.a(strchrnul.o)
 .debug_loc     0x00000000      0x141 c:/program files/microchip/xc32/v4.21/bin/bin/../../lib/gcc/pic32c/8.3.1/../../../../pic32c/lib/arm/v5te/nofp\libg-musl.a(strchrnul.o)
 .debug_aranges
                0x00000000       0x20 c:/program files/microchip/xc32/v4.21/bin/bin/../../lib/gcc/pic32c/8.3.1/../../../../pic32c/lib/arm/v5te/nofp\libg-musl.a(strchrnul.o)
 .debug_ranges  0x00000000       0x10 c:/program files/microchip/xc32/v4.21/bin/bin/../../lib/gcc/pic32c/8.3.1/../../../../pic32c/lib/arm/v5te/nofp\libg-musl.a(strchrnul.o)
 .debug_line    0x00000000      0x19a c:/program files/microchip/xc32/v4.21/bin/bin/../../lib/gcc/pic32c/8.3.1/../../../../pic32c/lib/arm/v5te/nofp\libg-musl.a(strchrnul.o)
 .debug_str     0x00000000        0x0 c:/program files/microchip/xc32/v4.21/bin/bin/../../lib/gcc/pic32c/8.3.1/../../../../pic32c/lib/arm/v5te/nofp\libg-musl.a(strchrnul.o)
 .comment       0x00000000       0x2c c:/program files/microchip/xc32/v4.21/bin/bin/../../lib/gcc/pic32c/8.3.1/../../../../pic32c/lib/arm/v5te/nofp\libg-musl.a(strchrnul.o)
 .note.GNU-stack
                0x00000000        0x0 c:/program files/microchip/xc32/v4.21/bin/bin/../../lib/gcc/pic32c/8.3.1/../../../../pic32c/lib/arm/v5te/nofp\libg-musl.a(strchrnul.o)
 .debug_frame   0x00000000       0x30 c:/program files/microchip/xc32/v4.21/bin/bin/../../lib/gcc/pic32c/8.3.1/../../../../pic32c/lib/arm/v5te/nofp\libg-musl.a(strchrnul.o)
 .ARM.attributes
                0x00000000       0x2d c:/program files/microchip/xc32/v4.21/bin/bin/../../lib/gcc/pic32c/8.3.1/../../../../pic32c/lib/arm/v5te/nofp\libg-musl.a(strchrnul.o)
 .text          0x00000000        0x0 c:/program files/microchip/xc32/v4.21/bin/bin/../../lib/gcc/pic32c/8.3.1/../../../../pic32c/lib/arm/v5te/nofp\libg-musl.a(readv.o)
 .data          0x00000000        0x0 c:/program files/microchip/xc32/v4.21/bin/bin/../../lib/gcc/pic32c/8.3.1/../../../../pic32c/lib/arm/v5te/nofp\libg-musl.a(readv.o)
 .bss           0x00000000        0x0 c:/program files/microchip/xc32/v4.21/bin/bin/../../lib/gcc/pic32c/8.3.1/../../../../pic32c/lib/arm/v5te/nofp\libg-musl.a(readv.o)
 .xc_stack_usage
                0x00000000       0x15 c:/program files/microchip/xc32/v4.21/bin/bin/../../lib/gcc/pic32c/8.3.1/../../../../pic32c/lib/arm/v5te/nofp\libg-musl.a(readv.o)
 .text.__readv  0x00000000       0x44 c:/program files/microchip/xc32/v4.21/bin/bin/../../lib/gcc/pic32c/8.3.1/../../../../pic32c/lib/arm/v5te/nofp\libg-musl.a(readv.o)
 .xc_stack_usage.hdr
                0x00000000        0xe c:/program files/microchip/xc32/v4.21/bin/bin/../../lib/gcc/pic32c/8.3.1/../../../../pic32c/lib/arm/v5te/nofp\libg-musl.a(readv.o)
 .debug_info    0x00000000      0x354 c:/program files/microchip/xc32/v4.21/bin/bin/../../lib/gcc/pic32c/8.3.1/../../../../pic32c/lib/arm/v5te/nofp\libg-musl.a(readv.o)
 .debug_abbrev  0x00000000       0xd8 c:/program files/microchip/xc32/v4.21/bin/bin/../../lib/gcc/pic32c/8.3.1/../../../../pic32c/lib/arm/v5te/nofp\libg-musl.a(readv.o)
 .debug_loc     0x00000000       0xeb c:/program files/microchip/xc32/v4.21/bin/bin/../../lib/gcc/pic32c/8.3.1/../../../../pic32c/lib/arm/v5te/nofp\libg-musl.a(readv.o)
 .debug_aranges
                0x00000000       0x20 c:/program files/microchip/xc32/v4.21/bin/bin/../../lib/gcc/pic32c/8.3.1/../../../../pic32c/lib/arm/v5te/nofp\libg-musl.a(readv.o)
 .debug_ranges  0x00000000       0x10 c:/program files/microchip/xc32/v4.21/bin/bin/../../lib/gcc/pic32c/8.3.1/../../../../pic32c/lib/arm/v5te/nofp\libg-musl.a(readv.o)
 .debug_line    0x00000000      0x162 c:/program files/microchip/xc32/v4.21/bin/bin/../../lib/gcc/pic32c/8.3.1/../../../../pic32c/lib/arm/v5te/nofp\libg-musl.a(readv.o)
 .debug_str     0x00000000        0x0 c:/program files/microchip/xc32/v4.21/bin/bin/../../lib/gcc/pic32c/8.3.1/../../../../pic32c/lib/arm/v5te/nofp\libg-musl.a(readv.o)
 .comment       0x00000000       0x2c c:/program files/microchip/xc32/v4.21/bin/bin/../../lib/gcc/pic32c/8.3.1/../../../../pic32c/lib/arm/v5te/nofp\libg-musl.a(readv.o)
 .note.GNU-stack
                0x00000000        0x0 c:/program files/microchip/xc32/v4.21/bin/bin/../../lib/gcc/pic32c/8.3.1/../../../../pic32c/lib/arm/v5te/nofp\libg-musl.a(readv.o)
 .debug_frame   0x00000000       0x30 c:/program files/microchip/xc32/v4.21/bin/bin/../../lib/gcc/pic32c/8.3.1/../../../../pic32c/lib/arm/v5te/nofp\libg-musl.a(readv.o)
 .ARM.attributes
                0x00000000       0x2d c:/program files/microchip/xc32/v4.21/bin/bin/../../lib/gcc/pic32c/8.3.1/../../../../pic32c/lib/arm/v5te/nofp\libg-musl.a(readv.o)
 .text          0x00000000        0x0 c:/program files/microchip/xc32/v4.21/bin/bin/../../lib/gcc/pic32c/8.3.1/../../../../pic32c/lib/arm/v5te/nofp\libg-musl.a(malloc.o)
 .data          0x00000000        0x0 c:/program files/microchip/xc32/v4.21/bin/bin/../../lib/gcc/pic32c/8.3.1/../../../../pic32c/lib/arm/v5te/nofp\libg-musl.a(malloc.o)
 .bss           0x00000000      0x20c c:/program files/microchip/xc32/v4.21/bin/bin/../../lib/gcc/pic32c/8.3.1/../../../../pic32c/lib/arm/v5te/nofp\libg-musl.a(malloc.o)
 .xc_stack_usage
                0x00000000       0xeb c:/program files/microchip/xc32/v4.21/bin/bin/../../lib/gcc/pic32c/8.3.1/../../../../pic32c/lib/arm/v5te/nofp\libg-musl.a(malloc.o)
 .text.bin_index
                0x00000000       0x48 c:/program files/microchip/xc32/v4.21/bin/bin/../../lib/gcc/pic32c/8.3.1/../../../../pic32c/lib/arm/v5te/nofp\libg-musl.a(malloc.o)
 .text.adjust_size
                0x00000000       0x60 c:/program files/microchip/xc32/v4.21/bin/bin/../../lib/gcc/pic32c/8.3.1/../../../../pic32c/lib/arm/v5te/nofp\libg-musl.a(malloc.o)
 .text.lock_bin
                0x00000000       0x34 c:/program files/microchip/xc32/v4.21/bin/bin/../../lib/gcc/pic32c/8.3.1/../../../../pic32c/lib/arm/v5te/nofp\libg-musl.a(malloc.o)
 .text.unbin    0x00000000       0x84 c:/program files/microchip/xc32/v4.21/bin/bin/../../lib/gcc/pic32c/8.3.1/../../../../pic32c/lib/arm/v5te/nofp\libg-musl.a(malloc.o)
 .text.alloc_fwd
                0x00000000       0x4c c:/program files/microchip/xc32/v4.21/bin/bin/../../lib/gcc/pic32c/8.3.1/../../../../pic32c/lib/arm/v5te/nofp\libg-musl.a(malloc.o)
 .text.alloc_rev
                0x00000000       0x50 c:/program files/microchip/xc32/v4.21/bin/bin/../../lib/gcc/pic32c/8.3.1/../../../../pic32c/lib/arm/v5te/nofp\libg-musl.a(malloc.o)
 .text.free     0x00000000      0x150 c:/program files/microchip/xc32/v4.21/bin/bin/../../lib/gcc/pic32c/8.3.1/../../../../pic32c/lib/arm/v5te/nofp\libg-musl.a(malloc.o)
 .text.trim     0x00000000       0x40 c:/program files/microchip/xc32/v4.21/bin/bin/../../lib/gcc/pic32c/8.3.1/../../../../pic32c/lib/arm/v5te/nofp\libg-musl.a(malloc.o)
 .text.malloc   0x00000000      0x278 c:/program files/microchip/xc32/v4.21/bin/bin/../../lib/gcc/pic32c/8.3.1/../../../../pic32c/lib/arm/v5te/nofp\libg-musl.a(malloc.o)
 .text.__malloc0
                0x00000000       0x40 c:/program files/microchip/xc32/v4.21/bin/bin/../../lib/gcc/pic32c/8.3.1/../../../../pic32c/lib/arm/v5te/nofp\libg-musl.a(malloc.o)
 .text.realloc  0x00000000       0xe0 c:/program files/microchip/xc32/v4.21/bin/bin/../../lib/gcc/pic32c/8.3.1/../../../../pic32c/lib/arm/v5te/nofp\libg-musl.a(malloc.o)
 .rodata        0x00000000       0x5c c:/program files/microchip/xc32/v4.21/bin/bin/../../lib/gcc/pic32c/8.3.1/../../../../pic32c/lib/arm/v5te/nofp\libg-musl.a(malloc.o)
 .xc_stack_usage.hdr
                0x00000000        0xe c:/program files/microchip/xc32/v4.21/bin/bin/../../lib/gcc/pic32c/8.3.1/../../../../pic32c/lib/arm/v5te/nofp\libg-musl.a(malloc.o)
 .debug_info    0x00000000     0x138e c:/program files/microchip/xc32/v4.21/bin/bin/../../lib/gcc/pic32c/8.3.1/../../../../pic32c/lib/arm/v5te/nofp\libg-musl.a(malloc.o)
 .debug_abbrev  0x00000000      0x413 c:/program files/microchip/xc32/v4.21/bin/bin/../../lib/gcc/pic32c/8.3.1/../../../../pic32c/lib/arm/v5te/nofp\libg-musl.a(malloc.o)
 .debug_loc     0x00000000      0xc44 c:/program files/microchip/xc32/v4.21/bin/bin/../../lib/gcc/pic32c/8.3.1/../../../../pic32c/lib/arm/v5te/nofp\libg-musl.a(malloc.o)
 .debug_aranges
                0x00000000       0x70 c:/program files/microchip/xc32/v4.21/bin/bin/../../lib/gcc/pic32c/8.3.1/../../../../pic32c/lib/arm/v5te/nofp\libg-musl.a(malloc.o)
 .debug_ranges  0x00000000      0x1a8 c:/program files/microchip/xc32/v4.21/bin/bin/../../lib/gcc/pic32c/8.3.1/../../../../pic32c/lib/arm/v5te/nofp\libg-musl.a(malloc.o)
 .debug_line    0x00000000      0xab5 c:/program files/microchip/xc32/v4.21/bin/bin/../../lib/gcc/pic32c/8.3.1/../../../../pic32c/lib/arm/v5te/nofp\libg-musl.a(malloc.o)
 .debug_str     0x00000000       0x13 c:/program files/microchip/xc32/v4.21/bin/bin/../../lib/gcc/pic32c/8.3.1/../../../../pic32c/lib/arm/v5te/nofp\libg-musl.a(malloc.o)
 .comment       0x00000000       0x2c c:/program files/microchip/xc32/v4.21/bin/bin/../../lib/gcc/pic32c/8.3.1/../../../../pic32c/lib/arm/v5te/nofp\libg-musl.a(malloc.o)
 .note.GNU-stack
                0x00000000        0x0 c:/program files/microchip/xc32/v4.21/bin/bin/../../lib/gcc/pic32c/8.3.1/../../../../pic32c/lib/arm/v5te/nofp\libg-musl.a(malloc.o)
 .debug_frame   0x00000000      0x13c c:/program files/microchip/xc32/v4.21/bin/bin/../../lib/gcc/pic32c/8.3.1/../../../../pic32c/lib/arm/v5te/nofp\libg-musl.a(malloc.o)
 .ARM.attributes
                0x00000000       0x2d c:/program files/microchip/xc32/v4.21/bin/bin/../../lib/gcc/pic32c/8.3.1/../../../../pic32c/lib/arm/v5te/nofp\libg-musl.a(malloc.o)
 .text          0x00000000        0x0 c:/program files/microchip/xc32/v4.21/bin/bin/../../lib/gcc/pic32c/8.3.1/../../../../pic32c/lib/arm/v5te/nofp\libg-musl.a(expand_heap.o)
 .data          0x00000000        0x0 c:/program files/microchip/xc32/v4.21/bin/bin/../../lib/gcc/pic32c/8.3.1/../../../../pic32c/lib/arm/v5te/nofp\libg-musl.a(expand_heap.o)
 .bss           0x00000000        0x0 c:/program files/microchip/xc32/v4.21/bin/bin/../../lib/gcc/pic32c/8.3.1/../../../../pic32c/lib/arm/v5te/nofp\libg-musl.a(expand_heap.o)
 .xc_stack_usage
                0x00000000       0x1b c:/program files/microchip/xc32/v4.21/bin/bin/../../lib/gcc/pic32c/8.3.1/../../../../pic32c/lib/arm/v5te/nofp\libg-musl.a(expand_heap.o)
 .text.__expand_heap
                0x00000000       0x2c c:/program files/microchip/xc32/v4.21/bin/bin/../../lib/gcc/pic32c/8.3.1/../../../../pic32c/lib/arm/v5te/nofp\libg-musl.a(expand_heap.o)
 .xc_stack_usage.hdr
                0x00000000        0xe c:/program files/microchip/xc32/v4.21/bin/bin/../../lib/gcc/pic32c/8.3.1/../../../../pic32c/lib/arm/v5te/nofp\libg-musl.a(expand_heap.o)
 .debug_info    0x00000000      0x36a c:/program files/microchip/xc32/v4.21/bin/bin/../../lib/gcc/pic32c/8.3.1/../../../../pic32c/lib/arm/v5te/nofp\libg-musl.a(expand_heap.o)
 .debug_abbrev  0x00000000       0xa5 c:/program files/microchip/xc32/v4.21/bin/bin/../../lib/gcc/pic32c/8.3.1/../../../../pic32c/lib/arm/v5te/nofp\libg-musl.a(expand_heap.o)
 .debug_loc     0x00000000       0x8b c:/program files/microchip/xc32/v4.21/bin/bin/../../lib/gcc/pic32c/8.3.1/../../../../pic32c/lib/arm/v5te/nofp\libg-musl.a(expand_heap.o)
 .debug_aranges
                0x00000000       0x20 c:/program files/microchip/xc32/v4.21/bin/bin/../../lib/gcc/pic32c/8.3.1/../../../../pic32c/lib/arm/v5te/nofp\libg-musl.a(expand_heap.o)
 .debug_ranges  0x00000000       0x10 c:/program files/microchip/xc32/v4.21/bin/bin/../../lib/gcc/pic32c/8.3.1/../../../../pic32c/lib/arm/v5te/nofp\libg-musl.a(expand_heap.o)
 .debug_line    0x00000000       0xf9 c:/program files/microchip/xc32/v4.21/bin/bin/../../lib/gcc/pic32c/8.3.1/../../../../pic32c/lib/arm/v5te/nofp\libg-musl.a(expand_heap.o)
 .debug_str     0x00000000        0x0 c:/program files/microchip/xc32/v4.21/bin/bin/../../lib/gcc/pic32c/8.3.1/../../../../pic32c/lib/arm/v5te/nofp\libg-musl.a(expand_heap.o)
 .comment       0x00000000       0x2c c:/program files/microchip/xc32/v4.21/bin/bin/../../lib/gcc/pic32c/8.3.1/../../../../pic32c/lib/arm/v5te/nofp\libg-musl.a(expand_heap.o)
 .note.GNU-stack
                0x00000000        0x0 c:/program files/microchip/xc32/v4.21/bin/bin/../../lib/gcc/pic32c/8.3.1/../../../../pic32c/lib/arm/v5te/nofp\libg-musl.a(expand_heap.o)
 .debug_frame   0x00000000       0x28 c:/program files/microchip/xc32/v4.21/bin/bin/../../lib/gcc/pic32c/8.3.1/../../../../pic32c/lib/arm/v5te/nofp\libg-musl.a(expand_heap.o)
 .ARM.attributes
                0x00000000       0x2d c:/program files/microchip/xc32/v4.21/bin/bin/../../lib/gcc/pic32c/8.3.1/../../../../pic32c/lib/arm/v5te/nofp\libg-musl.a(expand_heap.o)
 .text          0x00000000        0x0 c:/program files/microchip/xc32/v4.21/bin/bin/../../lib/gcc/pic32c/8.3.1/../../../../pic32c/lib/arm/v5te/nofp\libg-musl.a(__overflow.o)
 .data          0x00000000        0x0 c:/program files/microchip/xc32/v4.21/bin/bin/../../lib/gcc/pic32c/8.3.1/../../../../pic32c/lib/arm/v5te/nofp\libg-musl.a(__overflow.o)
 .bss           0x00000000        0x0 c:/program files/microchip/xc32/v4.21/bin/bin/../../lib/gcc/pic32c/8.3.1/../../../../pic32c/lib/arm/v5te/nofp\libg-musl.a(__overflow.o)
 .xc_stack_usage
                0x00000000       0x18 c:/program files/microchip/xc32/v4.21/bin/bin/../../lib/gcc/pic32c/8.3.1/../../../../pic32c/lib/arm/v5te/nofp\libg-musl.a(__overflow.o)
 .text.__overflow
                0x00000000       0x84 c:/program files/microchip/xc32/v4.21/bin/bin/../../lib/gcc/pic32c/8.3.1/../../../../pic32c/lib/arm/v5te/nofp\libg-musl.a(__overflow.o)
 .xc_stack_usage.hdr
                0x00000000        0xe c:/program files/microchip/xc32/v4.21/bin/bin/../../lib/gcc/pic32c/8.3.1/../../../../pic32c/lib/arm/v5te/nofp\libg-musl.a(__overflow.o)
 .debug_info    0x00000000      0x615 c:/program files/microchip/xc32/v4.21/bin/bin/../../lib/gcc/pic32c/8.3.1/../../../../pic32c/lib/arm/v5te/nofp\libg-musl.a(__overflow.o)
 .debug_abbrev  0x00000000      0x125 c:/program files/microchip/xc32/v4.21/bin/bin/../../lib/gcc/pic32c/8.3.1/../../../../pic32c/lib/arm/v5te/nofp\libg-musl.a(__overflow.o)
 .debug_loc     0x00000000       0xb6 c:/program files/microchip/xc32/v4.21/bin/bin/../../lib/gcc/pic32c/8.3.1/../../../../pic32c/lib/arm/v5te/nofp\libg-musl.a(__overflow.o)
 .debug_aranges
                0x00000000       0x20 c:/program files/microchip/xc32/v4.21/bin/bin/../../lib/gcc/pic32c/8.3.1/../../../../pic32c/lib/arm/v5te/nofp\libg-musl.a(__overflow.o)
 .debug_ranges  0x00000000       0x10 c:/program files/microchip/xc32/v4.21/bin/bin/../../lib/gcc/pic32c/8.3.1/../../../../pic32c/lib/arm/v5te/nofp\libg-musl.a(__overflow.o)
 .debug_line    0x00000000      0x20a c:/program files/microchip/xc32/v4.21/bin/bin/../../lib/gcc/pic32c/8.3.1/../../../../pic32c/lib/arm/v5te/nofp\libg-musl.a(__overflow.o)
 .debug_str     0x00000000        0xa c:/program files/microchip/xc32/v4.21/bin/bin/../../lib/gcc/pic32c/8.3.1/../../../../pic32c/lib/arm/v5te/nofp\libg-musl.a(__overflow.o)
 .comment       0x00000000       0x2c c:/program files/microchip/xc32/v4.21/bin/bin/../../lib/gcc/pic32c/8.3.1/../../../../pic32c/lib/arm/v5te/nofp\libg-musl.a(__overflow.o)
 .note.GNU-stack
                0x00000000        0x0 c:/program files/microchip/xc32/v4.21/bin/bin/../../lib/gcc/pic32c/8.3.1/../../../../pic32c/lib/arm/v5te/nofp\libg-musl.a(__overflow.o)
 .debug_frame   0x00000000       0x30 c:/program files/microchip/xc32/v4.21/bin/bin/../../lib/gcc/pic32c/8.3.1/../../../../pic32c/lib/arm/v5te/nofp\libg-musl.a(__overflow.o)
 .ARM.attributes
                0x00000000       0x2d c:/program files/microchip/xc32/v4.21/bin/bin/../../lib/gcc/pic32c/8.3.1/../../../../pic32c/lib/arm/v5te/nofp\libg-musl.a(__overflow.o)
 .text          0x00000000        0x0 c:/program files/microchip/xc32/v4.21/bin/bin/../../lib/gcc/pic32c/8.3.1/../../../../pic32c/lib/arm/v5te/nofp\libg-musl.a(__fclose.o)
 .data          0x00000000        0x0 c:/program files/microchip/xc32/v4.21/bin/bin/../../lib/gcc/pic32c/8.3.1/../../../../pic32c/lib/arm/v5te/nofp\libg-musl.a(__fclose.o)
 .bss           0x00000000        0x0 c:/program files/microchip/xc32/v4.21/bin/bin/../../lib/gcc/pic32c/8.3.1/../../../../pic32c/lib/arm/v5te/nofp\libg-musl.a(__fclose.o)
 .xc_stack_usage
                0x00000000       0x16 c:/program files/microchip/xc32/v4.21/bin/bin/../../lib/gcc/pic32c/8.3.1/../../../../pic32c/lib/arm/v5te/nofp\libg-musl.a(__fclose.o)
 .text.__fclose
                0x00000000       0x20 c:/program files/microchip/xc32/v4.21/bin/bin/../../lib/gcc/pic32c/8.3.1/../../../../pic32c/lib/arm/v5te/nofp\libg-musl.a(__fclose.o)
 .xc_stack_usage.hdr
                0x00000000        0xe c:/program files/microchip/xc32/v4.21/bin/bin/../../lib/gcc/pic32c/8.3.1/../../../../pic32c/lib/arm/v5te/nofp\libg-musl.a(__fclose.o)
 .debug_info    0x00000000      0x41c c:/program files/microchip/xc32/v4.21/bin/bin/../../lib/gcc/pic32c/8.3.1/../../../../pic32c/lib/arm/v5te/nofp\libg-musl.a(__fclose.o)
 .debug_abbrev  0x00000000       0xc4 c:/program files/microchip/xc32/v4.21/bin/bin/../../lib/gcc/pic32c/8.3.1/../../../../pic32c/lib/arm/v5te/nofp\libg-musl.a(__fclose.o)
 .debug_loc     0x00000000       0x74 c:/program files/microchip/xc32/v4.21/bin/bin/../../lib/gcc/pic32c/8.3.1/../../../../pic32c/lib/arm/v5te/nofp\libg-musl.a(__fclose.o)
 .debug_aranges
                0x00000000       0x20 c:/program files/microchip/xc32/v4.21/bin/bin/../../lib/gcc/pic32c/8.3.1/../../../../pic32c/lib/arm/v5te/nofp\libg-musl.a(__fclose.o)
 .debug_ranges  0x00000000       0x10 c:/program files/microchip/xc32/v4.21/bin/bin/../../lib/gcc/pic32c/8.3.1/../../../../pic32c/lib/arm/v5te/nofp\libg-musl.a(__fclose.o)
 .debug_line    0x00000000      0x159 c:/program files/microchip/xc32/v4.21/bin/bin/../../lib/gcc/pic32c/8.3.1/../../../../pic32c/lib/arm/v5te/nofp\libg-musl.a(__fclose.o)
 .debug_str     0x00000000        0x0 c:/program files/microchip/xc32/v4.21/bin/bin/../../lib/gcc/pic32c/8.3.1/../../../../pic32c/lib/arm/v5te/nofp\libg-musl.a(__fclose.o)
 .comment       0x00000000       0x2c c:/program files/microchip/xc32/v4.21/bin/bin/../../lib/gcc/pic32c/8.3.1/../../../../pic32c/lib/arm/v5te/nofp\libg-musl.a(__fclose.o)
 .note.GNU-stack
                0x00000000        0x0 c:/program files/microchip/xc32/v4.21/bin/bin/../../lib/gcc/pic32c/8.3.1/../../../../pic32c/lib/arm/v5te/nofp\libg-musl.a(__fclose.o)
 .debug_frame   0x00000000       0x20 c:/program files/microchip/xc32/v4.21/bin/bin/../../lib/gcc/pic32c/8.3.1/../../../../pic32c/lib/arm/v5te/nofp\libg-musl.a(__fclose.o)
 .ARM.attributes
                0x00000000       0x2d c:/program files/microchip/xc32/v4.21/bin/bin/../../lib/gcc/pic32c/8.3.1/../../../../pic32c/lib/arm/v5te/nofp\libg-musl.a(__fclose.o)
 .text          0x00000000        0x0 c:/program files/microchip/xc32/v4.21/bin/bin/../../lib/gcc/pic32c/8.3.1/../../../../pic32c/lib/arm/v5te/nofp\libg-musl.a(__fopen.o)
 .data          0x00000000        0x0 c:/program files/microchip/xc32/v4.21/bin/bin/../../lib/gcc/pic32c/8.3.1/../../../../pic32c/lib/arm/v5te/nofp\libg-musl.a(__fopen.o)
 .bss           0x00000000        0x0 c:/program files/microchip/xc32/v4.21/bin/bin/../../lib/gcc/pic32c/8.3.1/../../../../pic32c/lib/arm/v5te/nofp\libg-musl.a(__fopen.o)
 .xc_stack_usage
                0x00000000       0x43 c:/program files/microchip/xc32/v4.21/bin/bin/../../lib/gcc/pic32c/8.3.1/../../../../pic32c/lib/arm/v5te/nofp\libg-musl.a(__fopen.o)
 .text.__dummy  0x00000000        0x8 c:/program files/microchip/xc32/v4.21/bin/bin/../../lib/gcc/pic32c/8.3.1/../../../../pic32c/lib/arm/v5te/nofp\libg-musl.a(__fopen.o)
 .text.__fopen_std
                0x00000000       0x48 c:/program files/microchip/xc32/v4.21/bin/bin/../../lib/gcc/pic32c/8.3.1/../../../../pic32c/lib/arm/v5te/nofp\libg-musl.a(__fopen.o)
 .text.__fopen  0x00000000        0xc c:/program files/microchip/xc32/v4.21/bin/bin/../../lib/gcc/pic32c/8.3.1/../../../../pic32c/lib/arm/v5te/nofp\libg-musl.a(__fopen.o)
 .xc_stack_usage.hdr
                0x00000000        0xe c:/program files/microchip/xc32/v4.21/bin/bin/../../lib/gcc/pic32c/8.3.1/../../../../pic32c/lib/arm/v5te/nofp\libg-musl.a(__fopen.o)
 .debug_info    0x00000000      0x563 c:/program files/microchip/xc32/v4.21/bin/bin/../../lib/gcc/pic32c/8.3.1/../../../../pic32c/lib/arm/v5te/nofp\libg-musl.a(__fopen.o)
 .debug_abbrev  0x00000000      0x14f c:/program files/microchip/xc32/v4.21/bin/bin/../../lib/gcc/pic32c/8.3.1/../../../../pic32c/lib/arm/v5te/nofp\libg-musl.a(__fopen.o)
 .debug_loc     0x00000000       0x87 c:/program files/microchip/xc32/v4.21/bin/bin/../../lib/gcc/pic32c/8.3.1/../../../../pic32c/lib/arm/v5te/nofp\libg-musl.a(__fopen.o)
 .debug_aranges
                0x00000000       0x30 c:/program files/microchip/xc32/v4.21/bin/bin/../../lib/gcc/pic32c/8.3.1/../../../../pic32c/lib/arm/v5te/nofp\libg-musl.a(__fopen.o)
 .debug_ranges  0x00000000       0x20 c:/program files/microchip/xc32/v4.21/bin/bin/../../lib/gcc/pic32c/8.3.1/../../../../pic32c/lib/arm/v5te/nofp\libg-musl.a(__fopen.o)
 .debug_line    0x00000000      0x22a c:/program files/microchip/xc32/v4.21/bin/bin/../../lib/gcc/pic32c/8.3.1/../../../../pic32c/lib/arm/v5te/nofp\libg-musl.a(__fopen.o)
 .debug_str     0x00000000        0x0 c:/program files/microchip/xc32/v4.21/bin/bin/../../lib/gcc/pic32c/8.3.1/../../../../pic32c/lib/arm/v5te/nofp\libg-musl.a(__fopen.o)
 .comment       0x00000000       0x2c c:/program files/microchip/xc32/v4.21/bin/bin/../../lib/gcc/pic32c/8.3.1/../../../../pic32c/lib/arm/v5te/nofp\libg-musl.a(__fopen.o)
 .note.GNU-stack
                0x00000000        0x0 c:/program files/microchip/xc32/v4.21/bin/bin/../../lib/gcc/pic32c/8.3.1/../../../../pic32c/lib/arm/v5te/nofp\libg-musl.a(__fopen.o)
 .debug_frame   0x00000000       0x50 c:/program files/microchip/xc32/v4.21/bin/bin/../../lib/gcc/pic32c/8.3.1/../../../../pic32c/lib/arm/v5te/nofp\libg-musl.a(__fopen.o)
 .ARM.attributes
                0x00000000       0x2d c:/program files/microchip/xc32/v4.21/bin/bin/../../lib/gcc/pic32c/8.3.1/../../../../pic32c/lib/arm/v5te/nofp\libg-musl.a(__fopen.o)
 .text          0x00000000        0x0 c:/program files/microchip/xc32/v4.21/bin/bin/../../lib/gcc/pic32c/8.3.1/../../../../pic32c/lib/arm/v5te/nofp\libg-musl.a(__fseeko.o)
 .data          0x00000000        0x0 c:/program files/microchip/xc32/v4.21/bin/bin/../../lib/gcc/pic32c/8.3.1/../../../../pic32c/lib/arm/v5te/nofp\libg-musl.a(__fseeko.o)
 .bss           0x00000000        0x0 c:/program files/microchip/xc32/v4.21/bin/bin/../../lib/gcc/pic32c/8.3.1/../../../../pic32c/lib/arm/v5te/nofp\libg-musl.a(__fseeko.o)
 .xc_stack_usage
                0x00000000       0x16 c:/program files/microchip/xc32/v4.21/bin/bin/../../lib/gcc/pic32c/8.3.1/../../../../pic32c/lib/arm/v5te/nofp\libg-musl.a(__fseeko.o)
 .text.__fseeko
                0x00000000        0x8 c:/program files/microchip/xc32/v4.21/bin/bin/../../lib/gcc/pic32c/8.3.1/../../../../pic32c/lib/arm/v5te/nofp\libg-musl.a(__fseeko.o)
 .xc_stack_usage.hdr
                0x00000000        0xe c:/program files/microchip/xc32/v4.21/bin/bin/../../lib/gcc/pic32c/8.3.1/../../../../pic32c/lib/arm/v5te/nofp\libg-musl.a(__fseeko.o)
 .debug_info    0x00000000      0x4d5 c:/program files/microchip/xc32/v4.21/bin/bin/../../lib/gcc/pic32c/8.3.1/../../../../pic32c/lib/arm/v5te/nofp\libg-musl.a(__fseeko.o)
 .debug_abbrev  0x00000000       0xcb c:/program files/microchip/xc32/v4.21/bin/bin/../../lib/gcc/pic32c/8.3.1/../../../../pic32c/lib/arm/v5te/nofp\libg-musl.a(__fseeko.o)
 .debug_loc     0x00000000       0x6f c:/program files/microchip/xc32/v4.21/bin/bin/../../lib/gcc/pic32c/8.3.1/../../../../pic32c/lib/arm/v5te/nofp\libg-musl.a(__fseeko.o)
 .debug_aranges
                0x00000000       0x20 c:/program files/microchip/xc32/v4.21/bin/bin/../../lib/gcc/pic32c/8.3.1/../../../../pic32c/lib/arm/v5te/nofp\libg-musl.a(__fseeko.o)
 .debug_ranges  0x00000000       0x10 c:/program files/microchip/xc32/v4.21/bin/bin/../../lib/gcc/pic32c/8.3.1/../../../../pic32c/lib/arm/v5te/nofp\libg-musl.a(__fseeko.o)
 .debug_line    0x00000000      0x148 c:/program files/microchip/xc32/v4.21/bin/bin/../../lib/gcc/pic32c/8.3.1/../../../../pic32c/lib/arm/v5te/nofp\libg-musl.a(__fseeko.o)
 .debug_str     0x00000000        0x0 c:/program files/microchip/xc32/v4.21/bin/bin/../../lib/gcc/pic32c/8.3.1/../../../../pic32c/lib/arm/v5te/nofp\libg-musl.a(__fseeko.o)
 .comment       0x00000000       0x2c c:/program files/microchip/xc32/v4.21/bin/bin/../../lib/gcc/pic32c/8.3.1/../../../../pic32c/lib/arm/v5te/nofp\libg-musl.a(__fseeko.o)
 .note.GNU-stack
                0x00000000        0x0 c:/program files/microchip/xc32/v4.21/bin/bin/../../lib/gcc/pic32c/8.3.1/../../../../pic32c/lib/arm/v5te/nofp\libg-musl.a(__fseeko.o)
 .debug_frame   0x00000000       0x20 c:/program files/microchip/xc32/v4.21/bin/bin/../../lib/gcc/pic32c/8.3.1/../../../../pic32c/lib/arm/v5te/nofp\libg-musl.a(__fseeko.o)
 .ARM.attributes
                0x00000000       0x2d c:/program files/microchip/xc32/v4.21/bin/bin/../../lib/gcc/pic32c/8.3.1/../../../../pic32c/lib/arm/v5te/nofp\libg-musl.a(__fseeko.o)
 .text          0x00000000        0x0 c:/program files/microchip/xc32/v4.21/bin/bin/../../lib/gcc/pic32c/8.3.1/../../../../pic32c/lib/arm/v5te/nofp\libg-musl.a(__ftello.o)
 .data          0x00000000        0x0 c:/program files/microchip/xc32/v4.21/bin/bin/../../lib/gcc/pic32c/8.3.1/../../../../pic32c/lib/arm/v5te/nofp\libg-musl.a(__ftello.o)
 .bss           0x00000000        0x0 c:/program files/microchip/xc32/v4.21/bin/bin/../../lib/gcc/pic32c/8.3.1/../../../../pic32c/lib/arm/v5te/nofp\libg-musl.a(__ftello.o)
 .xc_stack_usage
                0x00000000       0x2f c:/program files/microchip/xc32/v4.21/bin/bin/../../lib/gcc/pic32c/8.3.1/../../../../pic32c/lib/arm/v5te/nofp\libg-musl.a(__ftello.o)
 .text.__dummy  0x00000000       0x28 c:/program files/microchip/xc32/v4.21/bin/bin/../../lib/gcc/pic32c/8.3.1/../../../../pic32c/lib/arm/v5te/nofp\libg-musl.a(__ftello.o)
 .text.__ftello_adj
                0x00000000        0xc c:/program files/microchip/xc32/v4.21/bin/bin/../../lib/gcc/pic32c/8.3.1/../../../../pic32c/lib/arm/v5te/nofp\libg-musl.a(__ftello.o)
 .xc_stack_usage.hdr
                0x00000000        0xe c:/program files/microchip/xc32/v4.21/bin/bin/../../lib/gcc/pic32c/8.3.1/../../../../pic32c/lib/arm/v5te/nofp\libg-musl.a(__ftello.o)
 .debug_info    0x00000000      0x503 c:/program files/microchip/xc32/v4.21/bin/bin/../../lib/gcc/pic32c/8.3.1/../../../../pic32c/lib/arm/v5te/nofp\libg-musl.a(__ftello.o)
 .debug_abbrev  0x00000000       0xf5 c:/program files/microchip/xc32/v4.21/bin/bin/../../lib/gcc/pic32c/8.3.1/../../../../pic32c/lib/arm/v5te/nofp\libg-musl.a(__ftello.o)
 .debug_loc     0x00000000       0x8f c:/program files/microchip/xc32/v4.21/bin/bin/../../lib/gcc/pic32c/8.3.1/../../../../pic32c/lib/arm/v5te/nofp\libg-musl.a(__ftello.o)
 .debug_aranges
                0x00000000       0x28 c:/program files/microchip/xc32/v4.21/bin/bin/../../lib/gcc/pic32c/8.3.1/../../../../pic32c/lib/arm/v5te/nofp\libg-musl.a(__ftello.o)
 .debug_ranges  0x00000000       0x18 c:/program files/microchip/xc32/v4.21/bin/bin/../../lib/gcc/pic32c/8.3.1/../../../../pic32c/lib/arm/v5te/nofp\libg-musl.a(__ftello.o)
 .debug_line    0x00000000      0x17f c:/program files/microchip/xc32/v4.21/bin/bin/../../lib/gcc/pic32c/8.3.1/../../../../pic32c/lib/arm/v5te/nofp\libg-musl.a(__ftello.o)
 .debug_str     0x00000000        0x0 c:/program files/microchip/xc32/v4.21/bin/bin/../../lib/gcc/pic32c/8.3.1/../../../../pic32c/lib/arm/v5te/nofp\libg-musl.a(__ftello.o)
 .comment       0x00000000       0x2c c:/program files/microchip/xc32/v4.21/bin/bin/../../lib/gcc/pic32c/8.3.1/../../../../pic32c/lib/arm/v5te/nofp\libg-musl.a(__ftello.o)
 .note.GNU-stack
                0x00000000        0x0 c:/program files/microchip/xc32/v4.21/bin/bin/../../lib/gcc/pic32c/8.3.1/../../../../pic32c/lib/arm/v5te/nofp\libg-musl.a(__ftello.o)
 .debug_frame   0x00000000       0x38 c:/program files/microchip/xc32/v4.21/bin/bin/../../lib/gcc/pic32c/8.3.1/../../../../pic32c/lib/arm/v5te/nofp\libg-musl.a(__ftello.o)
 .ARM.attributes
                0x00000000       0x2d c:/program files/microchip/xc32/v4.21/bin/bin/../../lib/gcc/pic32c/8.3.1/../../../../pic32c/lib/arm/v5te/nofp\libg-musl.a(__ftello.o)
 .text          0x00000000        0x0 c:/program files/microchip/xc32/v4.21/bin/bin/../../lib/gcc/pic32c/8.3.1/../../../../pic32c/lib/arm/v5te/nofp\libg-musl.a(__fwrite.o)
 .data          0x00000000        0x0 c:/program files/microchip/xc32/v4.21/bin/bin/../../lib/gcc/pic32c/8.3.1/../../../../pic32c/lib/arm/v5te/nofp\libg-musl.a(__fwrite.o)
 .bss           0x00000000        0x0 c:/program files/microchip/xc32/v4.21/bin/bin/../../lib/gcc/pic32c/8.3.1/../../../../pic32c/lib/arm/v5te/nofp\libg-musl.a(__fwrite.o)
 .xc_stack_usage
                0x00000000       0x36 c:/program files/microchip/xc32/v4.21/bin/bin/../../lib/gcc/pic32c/8.3.1/../../../../pic32c/lib/arm/v5te/nofp\libg-musl.a(__fwrite.o)
 .xc_stack_usage.hdr
                0x00000000        0xe c:/program files/microchip/xc32/v4.21/bin/bin/../../lib/gcc/pic32c/8.3.1/../../../../pic32c/lib/arm/v5te/nofp\libg-musl.a(__fwrite.o)
 .text          0x00000000        0x0 c:/program files/microchip/xc32/v4.21/bin/bin/../../lib/gcc/pic32c/8.3.1/../../../../pic32c/lib/arm/v5te/nofp\libg-musl.a(__towrite.o)
 .data          0x00000000        0x0 c:/program files/microchip/xc32/v4.21/bin/bin/../../lib/gcc/pic32c/8.3.1/../../../../pic32c/lib/arm/v5te/nofp\libg-musl.a(__towrite.o)
 .bss           0x00000000        0x0 c:/program files/microchip/xc32/v4.21/bin/bin/../../lib/gcc/pic32c/8.3.1/../../../../pic32c/lib/arm/v5te/nofp\libg-musl.a(__towrite.o)
 .xc_stack_usage
                0x00000000       0x2c c:/program files/microchip/xc32/v4.21/bin/bin/../../lib/gcc/pic32c/8.3.1/../../../../pic32c/lib/arm/v5te/nofp\libg-musl.a(__towrite.o)
 .text.__dummy  0x00000000        0x8 c:/program files/microchip/xc32/v4.21/bin/bin/../../lib/gcc/pic32c/8.3.1/../../../../pic32c/lib/arm/v5te/nofp\libg-musl.a(__towrite.o)
 .text.__towrite
                0x00000000       0x30 c:/program files/microchip/xc32/v4.21/bin/bin/../../lib/gcc/pic32c/8.3.1/../../../../pic32c/lib/arm/v5te/nofp\libg-musl.a(__towrite.o)
 .xc_stack_usage.hdr
                0x00000000        0xe c:/program files/microchip/xc32/v4.21/bin/bin/../../lib/gcc/pic32c/8.3.1/../../../../pic32c/lib/arm/v5te/nofp\libg-musl.a(__towrite.o)
 .debug_info    0x00000000      0x4e3 c:/program files/microchip/xc32/v4.21/bin/bin/../../lib/gcc/pic32c/8.3.1/../../../../pic32c/lib/arm/v5te/nofp\libg-musl.a(__towrite.o)
 .debug_abbrev  0x00000000       0xf8 c:/program files/microchip/xc32/v4.21/bin/bin/../../lib/gcc/pic32c/8.3.1/../../../../pic32c/lib/arm/v5te/nofp\libg-musl.a(__towrite.o)
 .debug_loc     0x00000000       0x7c c:/program files/microchip/xc32/v4.21/bin/bin/../../lib/gcc/pic32c/8.3.1/../../../../pic32c/lib/arm/v5te/nofp\libg-musl.a(__towrite.o)
 .debug_aranges
                0x00000000       0x28 c:/program files/microchip/xc32/v4.21/bin/bin/../../lib/gcc/pic32c/8.3.1/../../../../pic32c/lib/arm/v5te/nofp\libg-musl.a(__towrite.o)
 .debug_ranges  0x00000000       0x18 c:/program files/microchip/xc32/v4.21/bin/bin/../../lib/gcc/pic32c/8.3.1/../../../../pic32c/lib/arm/v5te/nofp\libg-musl.a(__towrite.o)
 .debug_line    0x00000000      0x18e c:/program files/microchip/xc32/v4.21/bin/bin/../../lib/gcc/pic32c/8.3.1/../../../../pic32c/lib/arm/v5te/nofp\libg-musl.a(__towrite.o)
 .debug_str     0x00000000        0x0 c:/program files/microchip/xc32/v4.21/bin/bin/../../lib/gcc/pic32c/8.3.1/../../../../pic32c/lib/arm/v5te/nofp\libg-musl.a(__towrite.o)
 .comment       0x00000000       0x2c c:/program files/microchip/xc32/v4.21/bin/bin/../../lib/gcc/pic32c/8.3.1/../../../../pic32c/lib/arm/v5te/nofp\libg-musl.a(__towrite.o)
 .note.GNU-stack
                0x00000000        0x0 c:/program files/microchip/xc32/v4.21/bin/bin/../../lib/gcc/pic32c/8.3.1/../../../../pic32c/lib/arm/v5te/nofp\libg-musl.a(__towrite.o)
 .debug_frame   0x00000000       0x38 c:/program files/microchip/xc32/v4.21/bin/bin/../../lib/gcc/pic32c/8.3.1/../../../../pic32c/lib/arm/v5te/nofp\libg-musl.a(__towrite.o)
 .ARM.attributes
                0x00000000       0x2d c:/program files/microchip/xc32/v4.21/bin/bin/../../lib/gcc/pic32c/8.3.1/../../../../pic32c/lib/arm/v5te/nofp\libg-musl.a(__towrite.o)
 .text          0x00000000        0x0 c:/program files/microchip/xc32/v4.21/bin/bin/../../lib/gcc/pic32c/8.3.1/../../../../pic32c/lib/arm/v5te/nofp\libpic32c.a(lseek.o)
 .data          0x00000000        0x0 c:/program files/microchip/xc32/v4.21/bin/bin/../../lib/gcc/pic32c/8.3.1/../../../../pic32c/lib/arm/v5te/nofp\libpic32c.a(lseek.o)
 .bss           0x00000000        0x0 c:/program files/microchip/xc32/v4.21/bin/bin/../../lib/gcc/pic32c/8.3.1/../../../../pic32c/lib/arm/v5te/nofp\libpic32c.a(lseek.o)
 .xc_stack_usage
                0x00000000       0x13 c:/program files/microchip/xc32/v4.21/bin/bin/../../lib/gcc/pic32c/8.3.1/../../../../pic32c/lib/arm/v5te/nofp\libpic32c.a(lseek.o)
 .xc_stack_usage.hdr
                0x00000000        0xe c:/program files/microchip/xc32/v4.21/bin/bin/../../lib/gcc/pic32c/8.3.1/../../../../pic32c/lib/arm/v5te/nofp\libpic32c.a(lseek.o)
 .text          0x00000000        0x0 c:/program files/microchip/xc32/v4.21/bin/bin/../../lib/gcc/pic32c/8.3.1/../../../../pic32c/lib/arm/v5te/nofp\libpic32c.a(sbrk.o)
 .data          0x00000000        0x0 c:/program files/microchip/xc32/v4.21/bin/bin/../../lib/gcc/pic32c/8.3.1/../../../../pic32c/lib/arm/v5te/nofp\libpic32c.a(sbrk.o)
 .bss           0x00000000        0x4 c:/program files/microchip/xc32/v4.21/bin/bin/../../lib/gcc/pic32c/8.3.1/../../../../pic32c/lib/arm/v5te/nofp\libpic32c.a(sbrk.o)
 .xc_stack_usage
                0x00000000       0x13 c:/program files/microchip/xc32/v4.21/bin/bin/../../lib/gcc/pic32c/8.3.1/../../../../pic32c/lib/arm/v5te/nofp\libpic32c.a(sbrk.o)
 .text._sbrk    0x00000000       0x40 c:/program files/microchip/xc32/v4.21/bin/bin/../../lib/gcc/pic32c/8.3.1/../../../../pic32c/lib/arm/v5te/nofp\libpic32c.a(sbrk.o)
 .xc_stack_usage.hdr
                0x00000000        0xe c:/program files/microchip/xc32/v4.21/bin/bin/../../lib/gcc/pic32c/8.3.1/../../../../pic32c/lib/arm/v5te/nofp\libpic32c.a(sbrk.o)
 .debug_info    0x00000000      0x26d c:/program files/microchip/xc32/v4.21/bin/bin/../../lib/gcc/pic32c/8.3.1/../../../../pic32c/lib/arm/v5te/nofp\libpic32c.a(sbrk.o)
 .debug_abbrev  0x00000000       0x2e c:/program files/microchip/xc32/v4.21/bin/bin/../../lib/gcc/pic32c/8.3.1/../../../../pic32c/lib/arm/v5te/nofp\libpic32c.a(sbrk.o)
 .debug_aranges
                0x00000000       0x20 c:/program files/microchip/xc32/v4.21/bin/bin/../../lib/gcc/pic32c/8.3.1/../../../../pic32c/lib/arm/v5te/nofp\libpic32c.a(sbrk.o)
 .debug_ranges  0x00000000       0x10 c:/program files/microchip/xc32/v4.21/bin/bin/../../lib/gcc/pic32c/8.3.1/../../../../pic32c/lib/arm/v5te/nofp\libpic32c.a(sbrk.o)
 .debug_line    0x00000000       0xba c:/program files/microchip/xc32/v4.21/bin/bin/../../lib/gcc/pic32c/8.3.1/../../../../pic32c/lib/arm/v5te/nofp\libpic32c.a(sbrk.o)
 .debug_str     0x00000000        0x0 c:/program files/microchip/xc32/v4.21/bin/bin/../../lib/gcc/pic32c/8.3.1/../../../../pic32c/lib/arm/v5te/nofp\libpic32c.a(sbrk.o)
 .comment       0x00000000       0x2c c:/program files/microchip/xc32/v4.21/bin/bin/../../lib/gcc/pic32c/8.3.1/../../../../pic32c/lib/arm/v5te/nofp\libpic32c.a(sbrk.o)
 .debug_frame   0x00000000       0x20 c:/program files/microchip/xc32/v4.21/bin/bin/../../lib/gcc/pic32c/8.3.1/../../../../pic32c/lib/arm/v5te/nofp\libpic32c.a(sbrk.o)
 .ARM.attributes
                0x00000000       0x2b c:/program files/microchip/xc32/v4.21/bin/bin/../../lib/gcc/pic32c/8.3.1/../../../../pic32c/lib/arm/v5te/nofp\libpic32c.a(sbrk.o)
 .text          0x00000000      0x3c0 c:/program files/microchip/xc32/v4.21/bin/bin/../../lib/gcc/pic32c/8.3.1/arm/v5te/nofp\libgcc.a(_arm_addsubdf3.o)
 .data          0x00000000        0x0 c:/program files/microchip/xc32/v4.21/bin/bin/../../lib/gcc/pic32c/8.3.1/arm/v5te/nofp\libgcc.a(_arm_addsubdf3.o)
 .bss           0x00000000        0x0 c:/program files/microchip/xc32/v4.21/bin/bin/../../lib/gcc/pic32c/8.3.1/arm/v5te/nofp\libgcc.a(_arm_addsubdf3.o)
 .xc_stack_usage.hdr
                0x00000000        0xe c:/program files/microchip/xc32/v4.21/bin/bin/../../lib/gcc/pic32c/8.3.1/arm/v5te/nofp\libgcc.a(_arm_addsubdf3.o)
 .xc_stack_usage
                0x00000000       0xca c:/program files/microchip/xc32/v4.21/bin/bin/../../lib/gcc/pic32c/8.3.1/arm/v5te/nofp\libgcc.a(_arm_addsubdf3.o)
 .debug_line    0x00000000      0x19a c:/program files/microchip/xc32/v4.21/bin/bin/../../lib/gcc/pic32c/8.3.1/arm/v5te/nofp\libgcc.a(_arm_addsubdf3.o)
 .debug_info    0x00000000       0x26 c:/program files/microchip/xc32/v4.21/bin/bin/../../lib/gcc/pic32c/8.3.1/arm/v5te/nofp\libgcc.a(_arm_addsubdf3.o)
 .debug_abbrev  0x00000000       0x14 c:/program files/microchip/xc32/v4.21/bin/bin/../../lib/gcc/pic32c/8.3.1/arm/v5te/nofp\libgcc.a(_arm_addsubdf3.o)
 .debug_aranges
                0x00000000       0x20 c:/program files/microchip/xc32/v4.21/bin/bin/../../lib/gcc/pic32c/8.3.1/arm/v5te/nofp\libgcc.a(_arm_addsubdf3.o)
 .debug_str     0x00000000       0xe8 c:/program files/microchip/xc32/v4.21/bin/bin/../../lib/gcc/pic32c/8.3.1/arm/v5te/nofp\libgcc.a(_arm_addsubdf3.o)
 .debug_frame   0x00000000       0xac c:/program files/microchip/xc32/v4.21/bin/bin/../../lib/gcc/pic32c/8.3.1/arm/v5te/nofp\libgcc.a(_arm_addsubdf3.o)
 .ARM.attributes
                0x00000000       0x1d c:/program files/microchip/xc32/v4.21/bin/bin/../../lib/gcc/pic32c/8.3.1/arm/v5te/nofp\libgcc.a(_arm_addsubdf3.o)
 .text          0x00000000      0x470 c:/program files/microchip/xc32/v4.21/bin/bin/../../lib/gcc/pic32c/8.3.1/arm/v5te/nofp\libgcc.a(_arm_muldivdf3.o)
 .data          0x00000000        0x0 c:/program files/microchip/xc32/v4.21/bin/bin/../../lib/gcc/pic32c/8.3.1/arm/v5te/nofp\libgcc.a(_arm_muldivdf3.o)
 .bss           0x00000000        0x0 c:/program files/microchip/xc32/v4.21/bin/bin/../../lib/gcc/pic32c/8.3.1/arm/v5te/nofp\libgcc.a(_arm_muldivdf3.o)
 .xc_stack_usage.hdr
                0x00000000        0xe c:/program files/microchip/xc32/v4.21/bin/bin/../../lib/gcc/pic32c/8.3.1/arm/v5te/nofp\libgcc.a(_arm_muldivdf3.o)
 .xc_stack_usage
                0x00000000       0x2c c:/program files/microchip/xc32/v4.21/bin/bin/../../lib/gcc/pic32c/8.3.1/arm/v5te/nofp\libgcc.a(_arm_muldivdf3.o)
 .debug_line    0x00000000      0x1b9 c:/program files/microchip/xc32/v4.21/bin/bin/../../lib/gcc/pic32c/8.3.1/arm/v5te/nofp\libgcc.a(_arm_muldivdf3.o)
 .debug_info    0x00000000       0x26 c:/program files/microchip/xc32/v4.21/bin/bin/../../lib/gcc/pic32c/8.3.1/arm/v5te/nofp\libgcc.a(_arm_muldivdf3.o)
 .debug_abbrev  0x00000000       0x14 c:/program files/microchip/xc32/v4.21/bin/bin/../../lib/gcc/pic32c/8.3.1/arm/v5te/nofp\libgcc.a(_arm_muldivdf3.o)
 .debug_aranges
                0x00000000       0x20 c:/program files/microchip/xc32/v4.21/bin/bin/../../lib/gcc/pic32c/8.3.1/arm/v5te/nofp\libgcc.a(_arm_muldivdf3.o)
 .debug_str     0x00000000       0xe8 c:/program files/microchip/xc32/v4.21/bin/bin/../../lib/gcc/pic32c/8.3.1/arm/v5te/nofp\libgcc.a(_arm_muldivdf3.o)
 .debug_frame   0x00000000       0x50 c:/program files/microchip/xc32/v4.21/bin/bin/../../lib/gcc/pic32c/8.3.1/arm/v5te/nofp\libgcc.a(_arm_muldivdf3.o)
 .ARM.attributes
                0x00000000       0x1d c:/program files/microchip/xc32/v4.21/bin/bin/../../lib/gcc/pic32c/8.3.1/arm/v5te/nofp\libgcc.a(_arm_muldivdf3.o)
 .text          0x00000000       0xa0 c:/program files/microchip/xc32/v4.21/bin/bin/../../lib/gcc/pic32c/8.3.1/arm/v5te/nofp\libgcc.a(_arm_truncdfsf2.o)
 .data          0x00000000        0x0 c:/program files/microchip/xc32/v4.21/bin/bin/../../lib/gcc/pic32c/8.3.1/arm/v5te/nofp\libgcc.a(_arm_truncdfsf2.o)
 .bss           0x00000000        0x0 c:/program files/microchip/xc32/v4.21/bin/bin/../../lib/gcc/pic32c/8.3.1/arm/v5te/nofp\libgcc.a(_arm_truncdfsf2.o)
 .xc_stack_usage.hdr
                0x00000000        0xe c:/program files/microchip/xc32/v4.21/bin/bin/../../lib/gcc/pic32c/8.3.1/arm/v5te/nofp\libgcc.a(_arm_truncdfsf2.o)
 .xc_stack_usage
                0x00000000       0x1a c:/program files/microchip/xc32/v4.21/bin/bin/../../lib/gcc/pic32c/8.3.1/arm/v5te/nofp\libgcc.a(_arm_truncdfsf2.o)
 .debug_line    0x00000000       0xc0 c:/program files/microchip/xc32/v4.21/bin/bin/../../lib/gcc/pic32c/8.3.1/arm/v5te/nofp\libgcc.a(_arm_truncdfsf2.o)
 .debug_info    0x00000000       0x26 c:/program files/microchip/xc32/v4.21/bin/bin/../../lib/gcc/pic32c/8.3.1/arm/v5te/nofp\libgcc.a(_arm_truncdfsf2.o)
 .debug_abbrev  0x00000000       0x14 c:/program files/microchip/xc32/v4.21/bin/bin/../../lib/gcc/pic32c/8.3.1/arm/v5te/nofp\libgcc.a(_arm_truncdfsf2.o)
 .debug_aranges
                0x00000000       0x20 c:/program files/microchip/xc32/v4.21/bin/bin/../../lib/gcc/pic32c/8.3.1/arm/v5te/nofp\libgcc.a(_arm_truncdfsf2.o)
 .debug_str     0x00000000       0xe8 c:/program files/microchip/xc32/v4.21/bin/bin/../../lib/gcc/pic32c/8.3.1/arm/v5te/nofp\libgcc.a(_arm_truncdfsf2.o)
 .debug_frame   0x00000000       0x24 c:/program files/microchip/xc32/v4.21/bin/bin/../../lib/gcc/pic32c/8.3.1/arm/v5te/nofp\libgcc.a(_arm_truncdfsf2.o)
 .ARM.attributes
                0x00000000       0x1d c:/program files/microchip/xc32/v4.21/bin/bin/../../lib/gcc/pic32c/8.3.1/arm/v5te/nofp\libgcc.a(_arm_truncdfsf2.o)
 .text          0x00000000        0x0 c:/program files/microchip/xc32/v4.21/bin/bin/../../lib/gcc/pic32c/8.3.1/arm/v5te/nofp/crtend.o
 .data          0x00000000        0x0 c:/program files/microchip/xc32/v4.21/bin/bin/../../lib/gcc/pic32c/8.3.1/arm/v5te/nofp/crtend.o
 .bss           0x00000000        0x0 c:/program files/microchip/xc32/v4.21/bin/bin/../../lib/gcc/pic32c/8.3.1/arm/v5te/nofp/crtend.o
 .eh_frame      0x00000000        0x4 c:/program files/microchip/xc32/v4.21/bin/bin/../../lib/gcc/pic32c/8.3.1/arm/v5te/nofp/crtend.o
 .xc_stack_usage.hdr
                0x00000000        0xe c:/program files/microchip/xc32/v4.21/bin/bin/../../lib/gcc/pic32c/8.3.1/arm/v5te/nofp/crtend.o
 .comment       0x00000000       0x2c c:/program files/microchip/xc32/v4.21/bin/bin/../../lib/gcc/pic32c/8.3.1/arm/v5te/nofp/crtend.o
 .ARM.attributes
                0x00000000       0x2b c:/program files/microchip/xc32/v4.21/bin/bin/../../lib/gcc/pic32c/8.3.1/arm/v5te/nofp/crtend.o
 .text          0x00000000        0x0 c:/program files/microchip/xc32/v4.21/bin/bin/../../lib/gcc/pic32c/8.3.1/arm/v5te/nofp/crtn.o
 .data          0x00000000        0x0 c:/program files/microchip/xc32/v4.21/bin/bin/../../lib/gcc/pic32c/8.3.1/arm/v5te/nofp/crtn.o
 .bss           0x00000000        0x0 c:/program files/microchip/xc32/v4.21/bin/bin/../../lib/gcc/pic32c/8.3.1/arm/v5te/nofp/crtn.o
 .xc_stack_usage.hdr
                0x00000000        0xe c:/program files/microchip/xc32/v4.21/bin/bin/../../lib/gcc/pic32c/8.3.1/arm/v5te/nofp/crtn.o

Memory Configuration

Name             Origin             Length             Attributes
sram             0x00300000         0x00010000         xw
ram              0x21000000         0x0f000000         xwl !r
ram_nocache      0x20000000         0x01000000         !xrw
rom              0x00000000         0x00000000         xrl
*default*        0x00000000         0xffffffff

Linker script and memory map

LOAD c:/program files/microchip/xc32/v4.21/bin/bin/../../lib/gcc/pic32c/8.3.1/arm/v5te/nofp/crti.o
LOAD c:/program files/microchip/xc32/v4.21/bin/bin/../../lib/gcc/pic32c/8.3.1/arm/v5te/nofp/crtbegin.o
LOAD build/lcdc_rgba8888_mxt_9x60_wvga/debug/_ext/710462340/bsp.o
LOAD build/lcdc_rgba8888_mxt_9x60_wvga/debug/_ext/205529507/drv_i2c.o
LOAD build/lcdc_rgba8888_mxt_9x60_wvga/debug/_ext/802015102/drv_maxtouch.o
LOAD build/lcdc_rgba8888_mxt_9x60_wvga/debug/_ext/51791817/gfx_canvas.o
LOAD build/lcdc_rgba8888_mxt_9x60_wvga/debug/_ext/51791817/gfx_canvas_api.o
LOAD build/lcdc_rgba8888_mxt_9x60_wvga/debug/_ext/95971993/gfx_driver.o
LOAD build/lcdc_rgba8888_mxt_9x60_wvga/debug/_ext/1886796627/drv_gfx_lcdc.o
LOAD build/lcdc_rgba8888_mxt_9x60_wvga/debug/_ext/1483321925/legato_rect.o
LOAD build/lcdc_rgba8888_mxt_9x60_wvga/debug/_ext/1483321925/legato_pixelbuffer.o
LOAD build/lcdc_rgba8888_mxt_9x60_wvga/debug/_ext/1483321925/legato_utils.o
LOAD build/lcdc_rgba8888_mxt_9x60_wvga/debug/_ext/1483321925/legato_color_convert.o
LOAD build/lcdc_rgba8888_mxt_9x60_wvga/debug/_ext/1483321925/legato_color_value.o
LOAD build/lcdc_rgba8888_mxt_9x60_wvga/debug/_ext/1483321925/legato_color_blend.o
LOAD build/lcdc_rgba8888_mxt_9x60_wvga/debug/_ext/1483321925/legato_math.o
LOAD build/lcdc_rgba8888_mxt_9x60_wvga/debug/_ext/1483321925/legato_error.o
LOAD build/lcdc_rgba8888_mxt_9x60_wvga/debug/_ext/1483321925/legato_color.o
LOAD build/lcdc_rgba8888_mxt_9x60_wvga/debug/_ext/1483321925/legato_color_lerp.o
LOAD build/lcdc_rgba8888_mxt_9x60_wvga/debug/_ext/1553762159/legato_state.o
LOAD build/lcdc_rgba8888_mxt_9x60_wvga/debug/_ext/1553762159/legato_event.o
LOAD build/lcdc_rgba8888_mxt_9x60_wvga/debug/_ext/1553762159/legato_input.o
LOAD build/lcdc_rgba8888_mxt_9x60_wvga/debug/_ext/1553762159/legato_scheme.o
LOAD build/lcdc_rgba8888_mxt_9x60_wvga/debug/_ext/1553762159/legato_stream.o
LOAD build/lcdc_rgba8888_mxt_9x60_wvga/debug/_ext/1653592263/legato_array.o
LOAD build/lcdc_rgba8888_mxt_9x60_wvga/debug/_ext/1653592263/legato_list.o
LOAD build/lcdc_rgba8888_mxt_9x60_wvga/debug/_ext/1653592263/legato_rectarray.o
LOAD build/lcdc_rgba8888_mxt_9x60_wvga/debug/_ext/1553851423/legato_rasterfont_liberationmono8.o
LOAD build/lcdc_rgba8888_mxt_9x60_wvga/debug/_ext/1553851423/legato_rasterfont_liberationmono1.o
LOAD build/lcdc_rgba8888_mxt_9x60_wvga/debug/_ext/1553851423/legato_font.o
LOAD build/lcdc_rgba8888_mxt_9x60_wvga/debug/_ext/1553851423/legato_rasterfont_stream.o
LOAD build/lcdc_rgba8888_mxt_9x60_wvga/debug/_ext/528922783/le_gen_fonts.o
LOAD build/lcdc_rgba8888_mxt_9x60_wvga/debug/_ext/780564725/image5.o
LOAD build/lcdc_rgba8888_mxt_9x60_wvga/debug/_ext/780564725/Rinse2.o
LOAD build/lcdc_rgba8888_mxt_9x60_wvga/debug/_ext/780564725/r3.o
LOAD build/lcdc_rgba8888_mxt_9x60_wvga/debug/_ext/780564725/Spin3.o
LOAD build/lcdc_rgba8888_mxt_9x60_wvga/debug/_ext/780564725/low_but_up.o
LOAD build/lcdc_rgba8888_mxt_9x60_wvga/debug/_ext/780564725/image6.o
LOAD build/lcdc_rgba8888_mxt_9x60_wvga/debug/_ext/780564725/Rinse3.o
LOAD build/lcdc_rgba8888_mxt_9x60_wvga/debug/_ext/780564725/r2.o
LOAD build/lcdc_rgba8888_mxt_9x60_wvga/debug/_ext/780564725/sports_but_down.o
LOAD build/lcdc_rgba8888_mxt_9x60_wvga/debug/_ext/780564725/sound_but_off.o
LOAD build/lcdc_rgba8888_mxt_9x60_wvga/debug/_ext/780564725/warm_but_down.o
LOAD build/lcdc_rgba8888_mxt_9x60_wvga/debug/_ext/780564725/logoH.o
LOAD build/lcdc_rgba8888_mxt_9x60_wvga/debug/_ext/780564725/image7.o
LOAD build/lcdc_rgba8888_mxt_9x60_wvga/debug/_ext/780564725/xrinse_but_on.o
LOAD build/lcdc_rgba8888_mxt_9x60_wvga/debug/_ext/780564725/hot_but_down.o
LOAD build/lcdc_rgba8888_mxt_9x60_wvga/debug/_ext/780564725/r1.o
LOAD build/lcdc_rgba8888_mxt_9x60_wvga/debug/_ext/780564725/high_but_down.o
LOAD build/lcdc_rgba8888_mxt_9x60_wvga/debug/_ext/780564725/image8.o
LOAD build/lcdc_rgba8888_mxt_9x60_wvga/debug/_ext/780564725/round_exit.o
LOAD build/lcdc_rgba8888_mxt_9x60_wvga/debug/_ext/780564725/image1.o
LOAD build/lcdc_rgba8888_mxt_9x60_wvga/debug/_ext/780564725/start_but_up.o
LOAD build/lcdc_rgba8888_mxt_9x60_wvga/debug/_ext/780564725/round_button.o
LOAD build/lcdc_rgba8888_mxt_9x60_wvga/debug/_ext/780564725/r7.o
LOAD build/lcdc_rgba8888_mxt_9x60_wvga/debug/_ext/780564725/image2.o
LOAD build/lcdc_rgba8888_mxt_9x60_wvga/debug/_ext/780564725/Wash0.o
LOAD build/lcdc_rgba8888_mxt_9x60_wvga/debug/_ext/780564725/Spin0.o
LOAD build/lcdc_rgba8888_mxt_9x60_wvga/debug/_ext/780564725/r6.o
LOAD build/lcdc_rgba8888_mxt_9x60_wvga/debug/_ext/780564725/image10.o
LOAD build/lcdc_rgba8888_mxt_9x60_wvga/debug/_ext/780564725/close.o
LOAD build/lcdc_rgba8888_mxt_9x60_wvga/debug/_ext/780564725/image3.o
LOAD build/lcdc_rgba8888_mxt_9x60_wvga/debug/_ext/780564725/Rinse0.o
LOAD build/lcdc_rgba8888_mxt_9x60_wvga/debug/_ext/780564725/wool_but_down.o
LOAD build/lcdc_rgba8888_mxt_9x60_wvga/debug/_ext/780564725/r5.o
LOAD build/lcdc_rgba8888_mxt_9x60_wvga/debug/_ext/780564725/Spin1.o
LOAD build/lcdc_rgba8888_mxt_9x60_wvga/debug/_ext/780564725/image11.o
LOAD build/lcdc_rgba8888_mxt_9x60_wvga/debug/_ext/780564725/start_but_down.o
LOAD build/lcdc_rgba8888_mxt_9x60_wvga/debug/_ext/780564725/image4.o
LOAD build/lcdc_rgba8888_mxt_9x60_wvga/debug/_ext/780564725/Rinse1.o
LOAD build/lcdc_rgba8888_mxt_9x60_wvga/debug/_ext/780564725/r4.o
LOAD build/lcdc_rgba8888_mxt_9x60_wvga/debug/_ext/780564725/Spin2.o
LOAD build/lcdc_rgba8888_mxt_9x60_wvga/debug/_ext/780564725/image12.o
LOAD build/lcdc_rgba8888_mxt_9x60_wvga/debug/_ext/780564725/bed_but_down.o
LOAD build/lcdc_rgba8888_mxt_9x60_wvga/debug/_ext/780564725/warm_but_up.o
LOAD build/lcdc_rgba8888_mxt_9x60_wvga/debug/_ext/780564725/Wash3.o
LOAD build/lcdc_rgba8888_mxt_9x60_wvga/debug/_ext/780564725/PreWash2.o
LOAD build/lcdc_rgba8888_mxt_9x60_wvga/debug/_ext/780564725/r12.o
LOAD build/lcdc_rgba8888_mxt_9x60_wvga/debug/_ext/780564725/PreWash3.o
LOAD build/lcdc_rgba8888_mxt_9x60_wvga/debug/_ext/780564725/hot_but_up.o
LOAD build/lcdc_rgba8888_mxt_9x60_wvga/debug/_ext/780564725/r11.o
LOAD build/lcdc_rgba8888_mxt_9x60_wvga/debug/_ext/780564725/normal_but_up.o
LOAD build/lcdc_rgba8888_mxt_9x60_wvga/debug/_ext/780564725/Wash1.o
LOAD build/lcdc_rgba8888_mxt_9x60_wvga/debug/_ext/780564725/prewash_but_on.o
LOAD build/lcdc_rgba8888_mxt_9x60_wvga/debug/_ext/780564725/options_but_down.o
LOAD build/lcdc_rgba8888_mxt_9x60_wvga/debug/_ext/780564725/r9.o
LOAD build/lcdc_rgba8888_mxt_9x60_wvga/debug/_ext/780564725/template.o
LOAD build/lcdc_rgba8888_mxt_9x60_wvga/debug/_ext/780564725/r10.o
LOAD build/lcdc_rgba8888_mxt_9x60_wvga/debug/_ext/780564725/prewash_but_off.o
LOAD build/lcdc_rgba8888_mxt_9x60_wvga/debug/_ext/780564725/xrinse_but_off.o
LOAD build/lcdc_rgba8888_mxt_9x60_wvga/debug/_ext/780564725/options_but_up.o
LOAD build/lcdc_rgba8888_mxt_9x60_wvga/debug/_ext/780564725/sound_but_on.o
LOAD build/lcdc_rgba8888_mxt_9x60_wvga/debug/_ext/780564725/Wash2.o
LOAD build/lcdc_rgba8888_mxt_9x60_wvga/debug/_ext/780564725/r8.o
LOAD build/lcdc_rgba8888_mxt_9x60_wvga/debug/_ext/780564725/high_but_up.o
LOAD build/lcdc_rgba8888_mxt_9x60_wvga/debug/_ext/780564725/cold_but_up.o
LOAD build/lcdc_rgba8888_mxt_9x60_wvga/debug/_ext/780564725/image9.o
LOAD build/lcdc_rgba8888_mxt_9x60_wvga/debug/_ext/780564725/medium_but_up.o
LOAD build/lcdc_rgba8888_mxt_9x60_wvga/debug/_ext/780564725/sports_but_up.o
LOAD build/lcdc_rgba8888_mxt_9x60_wvga/debug/_ext/780564725/medium_but_down.o
LOAD build/lcdc_rgba8888_mxt_9x60_wvga/debug/_ext/780564725/wool_but_up.o
LOAD build/lcdc_rgba8888_mxt_9x60_wvga/debug/_ext/780564725/bed_but_up.o
LOAD build/lcdc_rgba8888_mxt_9x60_wvga/debug/_ext/780564725/PreWash0.o
LOAD build/lcdc_rgba8888_mxt_9x60_wvga/debug/_ext/780564725/low_but_down.o
LOAD build/lcdc_rgba8888_mxt_9x60_wvga/debug/_ext/780564725/normal_but_down.o
LOAD build/lcdc_rgba8888_mxt_9x60_wvga/debug/_ext/780564725/cold_but_down.o
LOAD build/lcdc_rgba8888_mxt_9x60_wvga/debug/_ext/780564725/PreWash1.o
LOAD build/lcdc_rgba8888_mxt_9x60_wvga/debug/_ext/1849858236/le_gen_screen_Screen0.o
LOAD build/lcdc_rgba8888_mxt_9x60_wvga/debug/_ext/1247075393/le_gen_init.o
LOAD build/lcdc_rgba8888_mxt_9x60_wvga/debug/_ext/1247075393/le_gen_stringtable.o
LOAD build/lcdc_rgba8888_mxt_9x60_wvga/debug/_ext/1247075393/le_gen_scheme.o
LOAD build/lcdc_rgba8888_mxt_9x60_wvga/debug/_ext/1247075393/le_gen_globalpalette.o
LOAD build/lcdc_rgba8888_mxt_9x60_wvga/debug/_ext/1247075393/le_gen_harmony.o
LOAD build/lcdc_rgba8888_mxt_9x60_wvga/debug/_ext/1797725076/legato_imagedecoder_jpeg.o
LOAD build/lcdc_rgba8888_mxt_9x60_wvga/debug/_ext/1797725076/legato_imagedecoder_jpeg_common.o
LOAD build/lcdc_rgba8888_mxt_9x60_wvga/debug/_ext/1797725076/jidctint.o
LOAD build/lcdc_rgba8888_mxt_9x60_wvga/debug/_ext/1797636377/legato_imagedecoder_mono.o
LOAD build/lcdc_rgba8888_mxt_9x60_wvga/debug/_ext/1797636377/legato_imagedecoder_mono_read_internal.o
LOAD build/lcdc_rgba8888_mxt_9x60_wvga/debug/_ext/1797636377/legato_imagedecoder_mono_read_stream.o
LOAD build/lcdc_rgba8888_mxt_9x60_wvga/debug/_ext/1881677221/legato_imagedecoder_png.o
LOAD build/lcdc_rgba8888_mxt_9x60_wvga/debug/_ext/1881677221/lodepng.o
LOAD build/lcdc_rgba8888_mxt_9x60_wvga/debug/_ext/1881678756/legato_imagedecoder_raw_palette_stream.o
LOAD build/lcdc_rgba8888_mxt_9x60_wvga/debug/_ext/1881678756/legato_imagedecoder_raw_setup.o
LOAD build/lcdc_rgba8888_mxt_9x60_wvga/debug/_ext/1881678756/legato_imagedecoder_raw_scale.o
LOAD build/lcdc_rgba8888_mxt_9x60_wvga/debug/_ext/1881678756/legato_imagedecoder_raw_mask.o
LOAD build/lcdc_rgba8888_mxt_9x60_wvga/debug/_ext/1881678756/legato_imagedecoder_raw_convert.o
LOAD build/lcdc_rgba8888_mxt_9x60_wvga/debug/_ext/1881678756/legato_imagedecoder_raw_read_internal.o
LOAD build/lcdc_rgba8888_mxt_9x60_wvga/debug/_ext/1881678756/legato_imagedecoder_raw_write.o
LOAD build/lcdc_rgba8888_mxt_9x60_wvga/debug/_ext/1881678756/legato_imagedecoder_raw_blend.o
LOAD build/lcdc_rgba8888_mxt_9x60_wvga/debug/_ext/1881678756/legato_imagedecoder_raw_read_stream_rleindex.o
LOAD build/lcdc_rgba8888_mxt_9x60_wvga/debug/_ext/1881678756/legato_imagedecoder_raw_read_stream_rlecolor.o
LOAD build/lcdc_rgba8888_mxt_9x60_wvga/debug/_ext/1881678756/legato_imagedecoder_raw_read_stream_color.o
LOAD build/lcdc_rgba8888_mxt_9x60_wvga/debug/_ext/1881678756/legato_imagedecoder_raw_read_stream_index.o
LOAD build/lcdc_rgba8888_mxt_9x60_wvga/debug/_ext/1881678756/legato_imagedecoder_raw_palette_internal.o
LOAD build/lcdc_rgba8888_mxt_9x60_wvga/debug/_ext/1881678756/legato_imagedecoder_raw.o
LOAD build/lcdc_rgba8888_mxt_9x60_wvga/debug/_ext/1881678756/legato_imagedecoder_raw_rotate.o
LOAD build/lcdc_rgba8888_mxt_9x60_wvga/debug/_ext/927452043/legato_image_utils.o
LOAD build/lcdc_rgba8888_mxt_9x60_wvga/debug/_ext/927452043/legato_palette.o
LOAD build/lcdc_rgba8888_mxt_9x60_wvga/debug/_ext/927452043/legato_image.o
LOAD build/lcdc_rgba8888_mxt_9x60_wvga/debug/_ext/1206263599/legato_memory.o
LOAD build/lcdc_rgba8888_mxt_9x60_wvga/debug/_ext/1206263599/legato_fixedheap.o
LOAD build/lcdc_rgba8888_mxt_9x60_wvga/debug/_ext/1206263599/legato_variableheap.o
LOAD build/lcdc_rgba8888_mxt_9x60_wvga/debug/_ext/564048019/legato_draw_rect.o
LOAD build/lcdc_rgba8888_mxt_9x60_wvga/debug/_ext/564048019/legato_draw.o
LOAD build/lcdc_rgba8888_mxt_9x60_wvga/debug/_ext/564048019/legato_draw_line.o
LOAD build/lcdc_rgba8888_mxt_9x60_wvga/debug/_ext/564048019/legato_renderer.o
LOAD build/lcdc_rgba8888_mxt_9x60_wvga/debug/_ext/564048019/legato_draw_arc.o
LOAD build/lcdc_rgba8888_mxt_9x60_wvga/debug/_ext/564048019/legato_gpu.o
LOAD build/lcdc_rgba8888_mxt_9x60_wvga/debug/_ext/1020492831/legato_stringutils.o
LOAD build/lcdc_rgba8888_mxt_9x60_wvga/debug/_ext/1020492831/legato_tablestring.o
LOAD build/lcdc_rgba8888_mxt_9x60_wvga/debug/_ext/1020492831/legato_dynamicstring.o
LOAD build/lcdc_rgba8888_mxt_9x60_wvga/debug/_ext/1020492831/legato_string_renderer_stream.o
LOAD build/lcdc_rgba8888_mxt_9x60_wvga/debug/_ext/1020492831/legato_stringtable.o
LOAD build/lcdc_rgba8888_mxt_9x60_wvga/debug/_ext/1020492831/legato_fixedstring.o
LOAD build/lcdc_rgba8888_mxt_9x60_wvga/debug/_ext/1020492831/legato_string_renderer.o
LOAD build/lcdc_rgba8888_mxt_9x60_wvga/debug/_ext/1020492831/legato_string.o
LOAD build/lcdc_rgba8888_mxt_9x60_wvga/debug/_ext/618648617/legato_widget_arc.o
LOAD build/lcdc_rgba8888_mxt_9x60_wvga/debug/_ext/618648617/legato_widget_arc_skin_classic.o
LOAD build/lcdc_rgba8888_mxt_9x60_wvga/debug/_ext/332049738/legato_widget_bar_graph.o
LOAD build/lcdc_rgba8888_mxt_9x60_wvga/debug/_ext/332049738/legato_widget_bar_graph_skin_classic.o
LOAD build/lcdc_rgba8888_mxt_9x60_wvga/debug/_ext/424260723/legato_widget_button.o
LOAD build/lcdc_rgba8888_mxt_9x60_wvga/debug/_ext/424260723/legato_widget_button_skin_classic.o
LOAD build/lcdc_rgba8888_mxt_9x60_wvga/debug/_ext/1342728866/legato_widget_checkbox_skin_classic.o
LOAD build/lcdc_rgba8888_mxt_9x60_wvga/debug/_ext/1342728866/legato_widget_checkbox.o
LOAD build/lcdc_rgba8888_mxt_9x60_wvga/debug/_ext/406789845/legato_widget_circle.o
LOAD build/lcdc_rgba8888_mxt_9x60_wvga/debug/_ext/406789845/legato_widget_circle_skin_classic.o
LOAD build/lcdc_rgba8888_mxt_9x60_wvga/debug/_ext/481355007/legato_widget_circular_gauge_skin_classic.o
LOAD build/lcdc_rgba8888_mxt_9x60_wvga/debug/_ext/481355007/legato_widget_circular_gauge.o
LOAD build/lcdc_rgba8888_mxt_9x60_wvga/debug/_ext/1904515685/legato_widget_circular_slider_skin_classic.o
LOAD build/lcdc_rgba8888_mxt_9x60_wvga/debug/_ext/1904515685/legato_widget_circular_slider.o
LOAD build/lcdc_rgba8888_mxt_9x60_wvga/debug/_ext/815359854/legato_widget_drawsurface_skin_classic.o
LOAD build/lcdc_rgba8888_mxt_9x60_wvga/debug/_ext/815359854/legato_widget_drawsurface.o
LOAD build/lcdc_rgba8888_mxt_9x60_wvga/debug/_ext/1504997579/legato_widget_gradient_skin_classic.o
LOAD build/lcdc_rgba8888_mxt_9x60_wvga/debug/_ext/1504997579/legato_widget_gradient.o
LOAD build/lcdc_rgba8888_mxt_9x60_wvga/debug/_ext/1921711239/legato_widget_groupbox.o
LOAD build/lcdc_rgba8888_mxt_9x60_wvga/debug/_ext/1921711239/legato_widget_groupbox_skin_classic.o
LOAD build/lcdc_rgba8888_mxt_9x60_wvga/debug/_ext/1808593504/legato_widget_image.o
LOAD build/lcdc_rgba8888_mxt_9x60_wvga/debug/_ext/1808593504/legato_widget_image_skin_classic.o
LOAD build/lcdc_rgba8888_mxt_9x60_wvga/debug/_ext/340446469/legato_widget_imagerotate.o
LOAD build/lcdc_rgba8888_mxt_9x60_wvga/debug/_ext/340446469/legato_widget_imagerotate_skin_classic.o
LOAD build/lcdc_rgba8888_mxt_9x60_wvga/debug/_ext/1513586602/legato_widget_imagescale.o
LOAD build/lcdc_rgba8888_mxt_9x60_wvga/debug/_ext/1513586602/legato_widget_imagescale_skin_classic.o
LOAD build/lcdc_rgba8888_mxt_9x60_wvga/debug/_ext/638313825/legato_widget_imagesequence.o
LOAD build/lcdc_rgba8888_mxt_9x60_wvga/debug/_ext/638313825/legato_widget_imagesequence_skin_classic.o
LOAD build/lcdc_rgba8888_mxt_9x60_wvga/debug/_ext/181230033/legato_widget_keypad.o
LOAD build/lcdc_rgba8888_mxt_9x60_wvga/debug/_ext/181230033/legato_widget_keypad_skin_classic.o
LOAD build/lcdc_rgba8888_mxt_9x60_wvga/debug/_ext/1806179527/legato_widget_label_skin_classic.o
LOAD build/lcdc_rgba8888_mxt_9x60_wvga/debug/_ext/1806179527/legato_widget_label.o
LOAD build/lcdc_rgba8888_mxt_9x60_wvga/debug/_ext/1997918449/legato_widget_line_skin_classic.o
LOAD build/lcdc_rgba8888_mxt_9x60_wvga/debug/_ext/1997918449/legato_widget_line.o
LOAD build/lcdc_rgba8888_mxt_9x60_wvga/debug/_ext/862674017/legato_widget_line_graph.o
LOAD build/lcdc_rgba8888_mxt_9x60_wvga/debug/_ext/862674017/legato_widget_line_graph_skin_classic.o
LOAD build/lcdc_rgba8888_mxt_9x60_wvga/debug/_ext/1997918279/legato_widget_list_skin_classic.o
LOAD build/lcdc_rgba8888_mxt_9x60_wvga/debug/_ext/1997918279/legato_widget_list.o
LOAD build/lcdc_rgba8888_mxt_9x60_wvga/debug/_ext/276203710/legato_widget_listwheel_skin_classic.o
LOAD build/lcdc_rgba8888_mxt_9x60_wvga/debug/_ext/276203710/legato_widget_listwheel.o
LOAD build/lcdc_rgba8888_mxt_9x60_wvga/debug/_ext/726382445/legato_widget_pie_chart_skin_classic.o
LOAD build/lcdc_rgba8888_mxt_9x60_wvga/debug/_ext/726382445/legato_widget_pie_chart.o
LOAD build/lcdc_rgba8888_mxt_9x60_wvga/debug/_ext/2027768651/legato_widget_progressbar.o
LOAD build/lcdc_rgba8888_mxt_9x60_wvga/debug/_ext/2027768651/legato_widget_progressbar_skin_classic.o
LOAD build/lcdc_rgba8888_mxt_9x60_wvga/debug/_ext/1747593511/legato_widget_radial_menu_skin_classic.o
LOAD build/lcdc_rgba8888_mxt_9x60_wvga/debug/_ext/1747593511/legato_widget_radial_menu.o
LOAD build/lcdc_rgba8888_mxt_9x60_wvga/debug/_ext/1747593511/legato_widget_radial_menu_state.o
LOAD build/lcdc_rgba8888_mxt_9x60_wvga/debug/_ext/920874866/legato_radiobutton_group.o
LOAD build/lcdc_rgba8888_mxt_9x60_wvga/debug/_ext/920874866/legato_widget_radiobutton.o
LOAD build/lcdc_rgba8888_mxt_9x60_wvga/debug/_ext/920874866/legato_widget_radiobutton_skin_classic.o
LOAD build/lcdc_rgba8888_mxt_9x60_wvga/debug/_ext/2047371060/legato_widget_rectangle_skin_classic.o
LOAD build/lcdc_rgba8888_mxt_9x60_wvga/debug/_ext/2047371060/legato_widget_rectangle.o
LOAD build/lcdc_rgba8888_mxt_9x60_wvga/debug/_ext/1343864811/legato_widget_scrollbar_skin_classic.o
LOAD build/lcdc_rgba8888_mxt_9x60_wvga/debug/_ext/1343864811/legato_widget_scrollbar.o
LOAD build/lcdc_rgba8888_mxt_9x60_wvga/debug/_ext/53779772/legato_widget_slider_skin_classic.o
LOAD build/lcdc_rgba8888_mxt_9x60_wvga/debug/_ext/53779772/legato_widget_slider.o
LOAD build/lcdc_rgba8888_mxt_9x60_wvga/debug/_ext/105363022/legato_widget_textfield_skin_classic.o
LOAD build/lcdc_rgba8888_mxt_9x60_wvga/debug/_ext/105363022/legato_widget_textfield.o
LOAD build/lcdc_rgba8888_mxt_9x60_wvga/debug/_ext/1290806806/legato_widget_touchtest.o
LOAD build/lcdc_rgba8888_mxt_9x60_wvga/debug/_ext/1290806806/legato_widget_touchtest_skin_classic.o
LOAD build/lcdc_rgba8888_mxt_9x60_wvga/debug/_ext/165675083/legato_widget_window_skin_classic.o
LOAD build/lcdc_rgba8888_mxt_9x60_wvga/debug/_ext/165675083/legato_widget_window.o
LOAD build/lcdc_rgba8888_mxt_9x60_wvga/debug/_ext/916554220/legato_editwidget.o
LOAD build/lcdc_rgba8888_mxt_9x60_wvga/debug/_ext/916554220/legato_widget_skin_classic.o
LOAD build/lcdc_rgba8888_mxt_9x60_wvga/debug/_ext/916554220/legato_widget_skin_classic_common.o
LOAD build/lcdc_rgba8888_mxt_9x60_wvga/debug/_ext/916554220/legato_widget.o
LOAD build/lcdc_rgba8888_mxt_9x60_wvga/debug/_ext/107307971/plib_aic.o
LOAD build/lcdc_rgba8888_mxt_9x60_wvga/debug/_ext/107309994/plib_clk.o
LOAD build/lcdc_rgba8888_mxt_9x60_wvga/debug/_ext/1221451702/plib_flexcom0_twi_master.o
LOAD build/lcdc_rgba8888_mxt_9x60_wvga/debug/_ext/968098130/plib_lcdc.o
LOAD build/lcdc_rgba8888_mxt_9x60_wvga/debug/_ext/107319645/plib_mmu.o
LOAD build/lcdc_rgba8888_mxt_9x60_wvga/debug/_ext/107322398/plib_pio.o
LOAD build/lcdc_rgba8888_mxt_9x60_wvga/debug/_ext/107324666/plib_rtt.o
LOAD build/lcdc_rgba8888_mxt_9x60_wvga/debug/_ext/273632537/plib_tc1.o
LOAD build/lcdc_rgba8888_mxt_9x60_wvga/debug/_ext/273632537/plib_tc0.o
LOAD build/lcdc_rgba8888_mxt_9x60_wvga/debug/_ext/129769842/xc32_monitor.o
LOAD build/lcdc_rgba8888_mxt_9x60_wvga/debug/_ext/250812413/sys_cache.o
LOAD build/lcdc_rgba8888_mxt_9x60_wvga/debug/_ext/256753733/sys_input.o
LOAD build/lcdc_rgba8888_mxt_9x60_wvga/debug/_ext/256753733/sys_input_listener.o
LOAD build/lcdc_rgba8888_mxt_9x60_wvga/debug/_ext/1928812927/sys_int.o
LOAD build/lcdc_rgba8888_mxt_9x60_wvga/debug/_ext/1359593799/sys_time.o
LOAD build/lcdc_rgba8888_mxt_9x60_wvga/debug/_ext/1455094228/fault_handlers.o
LOAD build/lcdc_rgba8888_mxt_9x60_wvga/debug/_ext/1455094228/cstartup.o
LOAD build/lcdc_rgba8888_mxt_9x60_wvga/debug/_ext/1455094228/interrupts.o
LOAD build/lcdc_rgba8888_mxt_9x60_wvga/debug/_ext/1455094228/initialization.o
LOAD build/lcdc_rgba8888_mxt_9x60_wvga/debug/_ext/1455094228/tasks.o
LOAD build/lcdc_rgba8888_mxt_9x60_wvga/debug/_ext/1360937237/app.o
LOAD build/lcdc_rgba8888_mxt_9x60_wvga/debug/_ext/1360937237/main.o
                0x00000001                __MPLAB_BUILD = 0x1
                0x00001000                C_STACK_SIZE = 0x1000
                0x00000060                IRQ_STACK_SIZE = 0x60
                0x00000060                FIQ_STACK_SIZE = 0x60
                0x00001000                SVC_STACK_SIZE = 0x1000
                0x00000040                ABT_STACK_SIZE = 0x40
                0x00000040                UND_STACK_SIZE = 0x40

.text           0x23f00000   0x9f0024
                0x23f00000                . = ALIGN (0x4)
                [!provide]                PROVIDE (_sfixed = .)
 *(.textEntry)
 .textEntry     0x23f00000      0x10c build/lcdc_rgba8888_mxt_9x60_wvga/debug/_ext/1455094228/cstartup.o
                0x23f00000                entry
 *(.text .text.* .gnu.linkonce.t.*)
 .text          0x23f0010c       0x70 c:/program files/microchip/xc32/v4.21/bin/bin/../../lib/gcc/pic32c/8.3.1/arm/v5te/nofp/crtbegin.o
 .text.BSP_Initialize
                0x23f0017c       0x20 build/lcdc_rgba8888_mxt_9x60_wvga/debug/_ext/710462340/bsp.o
                0x23f0017c                BSP_Initialize
 .text.lDRV_I2C_DriverHandleValidate
                0x23f0019c       0x6c build/lcdc_rgba8888_mxt_9x60_wvga/debug/_ext/205529507/drv_i2c.o
 .text.lDRV_I2C_RemoveTransferObjFromList
                0x23f00208       0x28 build/lcdc_rgba8888_mxt_9x60_wvga/debug/_ext/205529507/drv_i2c.o
 .text.lDRV_I2C_RemoveClientTransfersFromList
                0x23f00230       0x5c build/lcdc_rgba8888_mxt_9x60_wvga/debug/_ext/205529507/drv_i2c.o
 .text.lDRV_I2C_ClientCallback
                0x23f0028c       0x80 build/lcdc_rgba8888_mxt_9x60_wvga/debug/_ext/205529507/drv_i2c.o
 .text.lDRV_I2C_NextTransferInitiate
                0x23f0030c      0x12c build/lcdc_rgba8888_mxt_9x60_wvga/debug/_ext/205529507/drv_i2c.o
 .text.lDRV_I2C_ResourceLock
                0x23f00438       0xdc build/lcdc_rgba8888_mxt_9x60_wvga/debug/_ext/205529507/drv_i2c.o
 .text.lDRV_I2C_ResourceUnlock
                0x23f00514       0xbc build/lcdc_rgba8888_mxt_9x60_wvga/debug/_ext/205529507/drv_i2c.o
 .text.lDRV_I2C_WriteReadTransferAdd
                0x23f005d0      0x360 build/lcdc_rgba8888_mxt_9x60_wvga/debug/_ext/205529507/drv_i2c.o
 .text.lDRV_I2C_PLibCallbackHandler
                0x23f00930       0x84 build/lcdc_rgba8888_mxt_9x60_wvga/debug/_ext/205529507/drv_i2c.o
 .text.DRV_I2C_Initialize
                0x23f009b4       0xbc build/lcdc_rgba8888_mxt_9x60_wvga/debug/_ext/205529507/drv_i2c.o
                0x23f009b4                DRV_I2C_Initialize
 .text.DRV_I2C_Open
                0x23f00a70      0x1ac build/lcdc_rgba8888_mxt_9x60_wvga/debug/_ext/205529507/drv_i2c.o
                0x23f00a70                DRV_I2C_Open
 .text.DRV_I2C_Close
                0x23f00c1c       0x98 build/lcdc_rgba8888_mxt_9x60_wvga/debug/_ext/205529507/drv_i2c.o
                0x23f00c1c                DRV_I2C_Close
 .text.DRV_I2C_TransferEventHandlerSet
                0x23f00cb4       0x50 build/lcdc_rgba8888_mxt_9x60_wvga/debug/_ext/205529507/drv_i2c.o
                0x23f00cb4                DRV_I2C_TransferEventHandlerSet
 .text.DRV_I2C_ReadTransferAdd
                0x23f00d04       0x34 build/lcdc_rgba8888_mxt_9x60_wvga/debug/_ext/205529507/drv_i2c.o
                0x23f00d04                DRV_I2C_ReadTransferAdd
 .text.DRV_I2C_WriteTransferAdd
                0x23f00d38       0x30 build/lcdc_rgba8888_mxt_9x60_wvga/debug/_ext/205529507/drv_i2c.o
                0x23f00d38                DRV_I2C_WriteTransferAdd
 .text.DRV_MAXTOUCH_I2CEventHandler
                0x23f00d68      0x23c build/lcdc_rgba8888_mxt_9x60_wvga/debug/_ext/802015102/drv_maxtouch.o
                0x23f00d68                DRV_MAXTOUCH_I2CEventHandler
 .text._RegWrite16
                0x23f00fa4       0x60 build/lcdc_rgba8888_mxt_9x60_wvga/debug/_ext/802015102/drv_maxtouch.o
 .text.resetTimer_Callback
                0x23f01004       0x70 build/lcdc_rgba8888_mxt_9x60_wvga/debug/_ext/802015102/drv_maxtouch.o
 .text._MessageObjectRead
                0x23f01074       0x94 build/lcdc_rgba8888_mxt_9x60_wvga/debug/_ext/802015102/drv_maxtouch.o
 .text.mxt_proc_t100_message
                0x23f01108       0xd4 build/lcdc_rgba8888_mxt_9x60_wvga/debug/_ext/802015102/drv_maxtouch.o
 .text._mxt_DelayMS
                0x23f011dc       0x38 build/lcdc_rgba8888_mxt_9x60_wvga/debug/_ext/802015102/drv_maxtouch.o
 .text.mxt_calculate_crc
                0x23f01214       0xac build/lcdc_rgba8888_mxt_9x60_wvga/debug/_ext/802015102/drv_maxtouch.o
 .text.MXT_INTERRUPT_PIN_VALUE_GET
                0x23f012c0       0x14 build/lcdc_rgba8888_mxt_9x60_wvga/debug/_ext/802015102/drv_maxtouch.o
                0x23f012c0                MXT_INTERRUPT_PIN_VALUE_GET
 .text.DRV_MAXTOUCH_Initialize
                0x23f012d4       0xd4 build/lcdc_rgba8888_mxt_9x60_wvga/debug/_ext/802015102/drv_maxtouch.o
                0x23f012d4                DRV_MAXTOUCH_Initialize
 .text.DRV_MAXTOUCH_Open
                0x23f013a8      0x12c build/lcdc_rgba8888_mxt_9x60_wvga/debug/_ext/802015102/drv_maxtouch.o
                0x23f013a8                DRV_MAXTOUCH_Open
 .text.DRV_MAXTOUCH_Tasks
                0x23f014d4      0xadc build/lcdc_rgba8888_mxt_9x60_wvga/debug/_ext/802015102/drv_maxtouch.o
                0x23f014d4                DRV_MAXTOUCH_Tasks
 .text.effectsTimerCallback
                0x23f01fb0       0x18 build/lcdc_rgba8888_mxt_9x60_wvga/debug/_ext/51791817/gfx_canvas.o
 .text.GFXC_Update
                0x23f01fc8        0x4 build/lcdc_rgba8888_mxt_9x60_wvga/debug/_ext/51791817/gfx_canvas.o
 .text.GFX_CANVAS_IOCTL
                0x23f01fcc      0x2b4 build/lcdc_rgba8888_mxt_9x60_wvga/debug/_ext/51791817/gfx_canvas.o
 .text.GFXC_BlitBuffer
                0x23f02280       0xf0 build/lcdc_rgba8888_mxt_9x60_wvga/debug/_ext/51791817/gfx_canvas.o
 .text.GFX_CANVAS_Initialize
                0x23f02370      0x150 build/lcdc_rgba8888_mxt_9x60_wvga/debug/_ext/51791817/gfx_canvas.o
                0x23f02370                GFX_CANVAS_Initialize
 .text._gfxcCanvasUpdate
                0x23f024c0      0x2f8 build/lcdc_rgba8888_mxt_9x60_wvga/debug/_ext/51791817/gfx_canvas.o
                0x23f024c0                _gfxcCanvasUpdate
 .text.GFX_CANVAS_Task
                0x23f027b8      0x3d8 build/lcdc_rgba8888_mxt_9x60_wvga/debug/_ext/51791817/gfx_canvas.o
                0x23f027b8                GFX_CANVAS_Task
 .text.gfxcCreate
                0x23f02b90       0x98 build/lcdc_rgba8888_mxt_9x60_wvga/debug/_ext/51791817/gfx_canvas_api.o
                0x23f02b90                gfxcCreate
 .text.gfxcSetPixelBuffer
                0x23f02c28       0x78 build/lcdc_rgba8888_mxt_9x60_wvga/debug/_ext/51791817/gfx_canvas_api.o
                0x23f02c28                gfxcSetPixelBuffer
 .text.gfxcSetLayer
                0x23f02ca0       0x50 build/lcdc_rgba8888_mxt_9x60_wvga/debug/_ext/51791817/gfx_canvas_api.o
                0x23f02ca0                gfxcSetLayer
 .text.gfxcSetWindowPosition
                0x23f02cf0       0x3c build/lcdc_rgba8888_mxt_9x60_wvga/debug/_ext/51791817/gfx_canvas_api.o
                0x23f02cf0                gfxcSetWindowPosition
 .text.gfxcSetWindowSize
                0x23f02d2c       0x3c build/lcdc_rgba8888_mxt_9x60_wvga/debug/_ext/51791817/gfx_canvas_api.o
                0x23f02d2c                gfxcSetWindowSize
 .text.gfxcShowCanvas
                0x23f02d68       0x2c build/lcdc_rgba8888_mxt_9x60_wvga/debug/_ext/51791817/gfx_canvas_api.o
                0x23f02d68                gfxcShowCanvas
 .text.gfxcCanvasUpdate
                0x23f02d94       0x20 build/lcdc_rgba8888_mxt_9x60_wvga/debug/_ext/51791817/gfx_canvas_api.o
                0x23f02d94                gfxcCanvasUpdate
 .text.gfxPixelBufferCreate
                0x23f02db4       0xd8 build/lcdc_rgba8888_mxt_9x60_wvga/debug/_ext/95971993/gfx_driver.o
                0x23f02db4                gfxPixelBufferCreate
 .text.gfxPixelBufferOffsetGet
                0x23f02e8c       0x4c build/lcdc_rgba8888_mxt_9x60_wvga/debug/_ext/95971993/gfx_driver.o
                0x23f02e8c                gfxPixelBufferOffsetGet
 .text.gfxPixelBuffer_IsLocked
                0x23f02ed8       0x14 build/lcdc_rgba8888_mxt_9x60_wvga/debug/_ext/95971993/gfx_driver.o
                0x23f02ed8                gfxPixelBuffer_IsLocked
 .text.getLCDCStrideFromColorMode
                0x23f02eec       0x30 build/lcdc_rgba8888_mxt_9x60_wvga/debug/_ext/1886796627/drv_gfx_lcdc.o
 .text._IntHandlerLayerReadComplete
                0x23f02f1c       0xb4 build/lcdc_rgba8888_mxt_9x60_wvga/debug/_ext/1886796627/drv_gfx_lcdc.o
                0x23f02f1c                _IntHandlerLayerReadComplete
 .text.DRV_LCDC_Update
                0x23f02fd0       0x2c build/lcdc_rgba8888_mxt_9x60_wvga/debug/_ext/1886796627/drv_gfx_lcdc.o
                0x23f02fd0                DRV_LCDC_Update
 .text.LCDC_BrightnessSet
                0x23f02ffc       0x24 build/lcdc_rgba8888_mxt_9x60_wvga/debug/_ext/1886796627/drv_gfx_lcdc.o
                0x23f02ffc                LCDC_BrightnessSet
 .text.DRV_LCDC_Initialize
                0x23f03020      0x3d0 build/lcdc_rgba8888_mxt_9x60_wvga/debug/_ext/1886796627/drv_gfx_lcdc.o
                0x23f03020                DRV_LCDC_Initialize
 .text.DRV_LCDC_BlitBuffer
                0x23f033f0       0xf0 build/lcdc_rgba8888_mxt_9x60_wvga/debug/_ext/1886796627/drv_gfx_lcdc.o
                0x23f033f0                DRV_LCDC_BlitBuffer
 .text.DRV_LCDC_IOCTL
                0x23f034e0      0x720 build/lcdc_rgba8888_mxt_9x60_wvga/debug/_ext/1886796627/drv_gfx_lcdc.o
                0x23f034e0                DRV_LCDC_IOCTL
 .text.leRectContainsPoint
                0x23f03c00       0x60 build/lcdc_rgba8888_mxt_9x60_wvga/debug/_ext/1483321925/legato_rect.o
                0x23f03c00                leRectContainsPoint
 .text.leRectContainsRect
                0x23f03c60       0x70 build/lcdc_rgba8888_mxt_9x60_wvga/debug/_ext/1483321925/legato_rect.o
                0x23f03c60                leRectContainsRect
 .text.leRectIntersects
                0x23f03cd0       0x70 build/lcdc_rgba8888_mxt_9x60_wvga/debug/_ext/1483321925/legato_rect.o
                0x23f03cd0                leRectIntersects
 .text.leRectCombine
                0x23f03d40       0x88 build/lcdc_rgba8888_mxt_9x60_wvga/debug/_ext/1483321925/legato_rect.o
                0x23f03d40                leRectCombine
 .text.leRectClipAdj
                0x23f03dc8      0x180 build/lcdc_rgba8888_mxt_9x60_wvga/debug/_ext/1483321925/legato_rect.o
                0x23f03dc8                leRectClipAdj
 .text.leRectClip
                0x23f03f48       0xa0 build/lcdc_rgba8888_mxt_9x60_wvga/debug/_ext/1483321925/legato_rect.o
                0x23f03f48                leRectClip
 .text.leRectCompare
                0x23f03fe8       0x60 build/lcdc_rgba8888_mxt_9x60_wvga/debug/_ext/1483321925/legato_rect.o
                0x23f03fe8                leRectCompare
 .text.leRectsAreSimilar
                0x23f04048       0xcc build/lcdc_rgba8888_mxt_9x60_wvga/debug/_ext/1483321925/legato_rect.o
                0x23f04048                leRectsAreSimilar
 .text.indexGet1bpp
                0x23f04114       0x20 build/lcdc_rgba8888_mxt_9x60_wvga/debug/_ext/1483321925/legato_pixelbuffer.o
 .text.indexGet4bpp
                0x23f04134       0x18 build/lcdc_rgba8888_mxt_9x60_wvga/debug/_ext/1483321925/legato_pixelbuffer.o
 .text.indexGet
                0x23f0414c       0x64 build/lcdc_rgba8888_mxt_9x60_wvga/debug/_ext/1483321925/legato_pixelbuffer.o
 .text.get1byte
                0x23f041b0        0x8 build/lcdc_rgba8888_mxt_9x60_wvga/debug/_ext/1483321925/legato_pixelbuffer.o
 .text.get2byte
                0x23f041b8        0x8 build/lcdc_rgba8888_mxt_9x60_wvga/debug/_ext/1483321925/legato_pixelbuffer.o
 .text.get3byte
                0x23f041c0       0x1c build/lcdc_rgba8888_mxt_9x60_wvga/debug/_ext/1483321925/legato_pixelbuffer.o
 .text.get4byte
                0x23f041dc        0x8 build/lcdc_rgba8888_mxt_9x60_wvga/debug/_ext/1483321925/legato_pixelbuffer.o
 .text.set1byte
                0x23f041e4        0xc build/lcdc_rgba8888_mxt_9x60_wvga/debug/_ext/1483321925/legato_pixelbuffer.o
 .text.set2byte
                0x23f041f0        0xc build/lcdc_rgba8888_mxt_9x60_wvga/debug/_ext/1483321925/legato_pixelbuffer.o
 .text.set3byte
                0x23f041fc       0x1c build/lcdc_rgba8888_mxt_9x60_wvga/debug/_ext/1483321925/legato_pixelbuffer.o
 .text.set4byte
                0x23f04218        0xc build/lcdc_rgba8888_mxt_9x60_wvga/debug/_ext/1483321925/legato_pixelbuffer.o
 .text.lePixelBufferCreate
                0x23f04224       0xd0 build/lcdc_rgba8888_mxt_9x60_wvga/debug/_ext/1483321925/legato_pixelbuffer.o
                0x23f04224                lePixelBufferCreate
 .text.lePixelBufferOffsetGet
                0x23f042f4       0x5c build/lcdc_rgba8888_mxt_9x60_wvga/debug/_ext/1483321925/legato_pixelbuffer.o
                0x23f042f4                lePixelBufferOffsetGet
 .text.lePixelBufferOffsetGet_Unsafe
                0x23f04350       0x44 build/lcdc_rgba8888_mxt_9x60_wvga/debug/_ext/1483321925/legato_pixelbuffer.o
                0x23f04350                lePixelBufferOffsetGet_Unsafe
 .text.lePixelBufferGet_Unsafe
                0x23f04394       0x64 build/lcdc_rgba8888_mxt_9x60_wvga/debug/_ext/1483321925/legato_pixelbuffer.o
                0x23f04394                lePixelBufferGet_Unsafe
 .text.lePixelBufferGet
                0x23f043f8       0x34 build/lcdc_rgba8888_mxt_9x60_wvga/debug/_ext/1483321925/legato_pixelbuffer.o
                0x23f043f8                lePixelBufferGet
 .text.lePixelBufferClipRect
                0x23f0442c       0x84 build/lcdc_rgba8888_mxt_9x60_wvga/debug/_ext/1483321925/legato_pixelbuffer.o
                0x23f0442c                lePixelBufferClipRect
 .text.lePixelBufferGetIndex_Unsafe
                0x23f044b0       0x2c build/lcdc_rgba8888_mxt_9x60_wvga/debug/_ext/1483321925/legato_pixelbuffer.o
                0x23f044b0                lePixelBufferGetIndex_Unsafe
 .text.lePixelBufferSet_Unsafe
                0x23f044dc       0x7c build/lcdc_rgba8888_mxt_9x60_wvga/debug/_ext/1483321925/legato_pixelbuffer.o
                0x23f044dc                lePixelBufferSet_Unsafe
 .text.lePixelBufferSet
                0x23f04558       0x28 build/lcdc_rgba8888_mxt_9x60_wvga/debug/_ext/1483321925/legato_pixelbuffer.o
                0x23f04558                lePixelBufferSet
 .text.lePixelBufferAreaFill_Unsafe
                0x23f04580      0x110 build/lcdc_rgba8888_mxt_9x60_wvga/debug/_ext/1483321925/legato_pixelbuffer.o
                0x23f04580                lePixelBufferAreaFill_Unsafe
 .text.lePixelBufferAreaFill
                0x23f04690       0x70 build/lcdc_rgba8888_mxt_9x60_wvga/debug/_ext/1483321925/legato_pixelbuffer.o
                0x23f04690                lePixelBufferAreaFill
 .text.lePixelBufferCopy
                0x23f04700       0xd8 build/lcdc_rgba8888_mxt_9x60_wvga/debug/_ext/1483321925/legato_pixelbuffer.o
                0x23f04700                lePixelBufferCopy
 .text.leUtils_PickFromWidget
                0x23f047d8       0xe4 build/lcdc_rgba8888_mxt_9x60_wvga/debug/_ext/1483321925/legato_utils.o
                0x23f047d8                leUtils_PickFromWidget
 .text.leUtils_ClipRectToParent
                0x23f048bc       0x84 build/lcdc_rgba8888_mxt_9x60_wvga/debug/_ext/1483321925/legato_utils.o
                0x23f048bc                leUtils_ClipRectToParent
 .text.leUtils_RectToScreenSpace
                0x23f04940       0x44 build/lcdc_rgba8888_mxt_9x60_wvga/debug/_ext/1483321925/legato_utils.o
                0x23f04940                leUtils_RectToScreenSpace
 .text.leUtils_ClipRectToAncestors
                0x23f04984       0x94 build/lcdc_rgba8888_mxt_9x60_wvga/debug/_ext/1483321925/legato_utils.o
                0x23f04984                leUtils_ClipRectToAncestors
 .text.leUtils_ArrangeRectangle
                0x23f04a18      0x280 build/lcdc_rgba8888_mxt_9x60_wvga/debug/_ext/1483321925/legato_utils.o
                0x23f04a18                leUtils_ArrangeRectangle
 .text.leUtils_ArrangeRectangleRelative
                0x23f04c98      0x2b0 build/lcdc_rgba8888_mxt_9x60_wvga/debug/_ext/1483321925/legato_utils.o
                0x23f04c98                leUtils_ArrangeRectangleRelative
 .text.leUtils_GetSchemeLookupTable
                0x23f04f48       0x64 build/lcdc_rgba8888_mxt_9x60_wvga/debug/_ext/1483321925/legato_utils.o
                0x23f04f48                leUtils_GetSchemeLookupTable
 .text.no_conv  0x23f04fac        0x4 build/lcdc_rgba8888_mxt_9x60_wvga/debug/_ext/1483321925/legato_color_convert.o
 .text.gs8_rgb332
                0x23f04fb0       0x10 build/lcdc_rgba8888_mxt_9x60_wvga/debug/_ext/1483321925/legato_color_convert.o
 .text.gs8_rgb565
                0x23f04fc0       0x20 build/lcdc_rgba8888_mxt_9x60_wvga/debug/_ext/1483321925/legato_color_convert.o
 .text.gs8_rgba5551
                0x23f04fe0       0x28 build/lcdc_rgba8888_mxt_9x60_wvga/debug/_ext/1483321925/legato_color_convert.o
 .text.gs8_rgb888
                0x23f05008       0x10 build/lcdc_rgba8888_mxt_9x60_wvga/debug/_ext/1483321925/legato_color_convert.o
 .text.gs8_rgba8888
                0x23f05018       0x14 build/lcdc_rgba8888_mxt_9x60_wvga/debug/_ext/1483321925/legato_color_convert.o
 .text.gs8_argb8888
                0x23f0502c       0x14 build/lcdc_rgba8888_mxt_9x60_wvga/debug/_ext/1483321925/legato_color_convert.o
 .text.gs8_mono
                0x23f05040       0x10 build/lcdc_rgba8888_mxt_9x60_wvga/debug/_ext/1483321925/legato_color_convert.o
 .text.rgb332_rgb565
                0x23f05050       0x2c build/lcdc_rgba8888_mxt_9x60_wvga/debug/_ext/1483321925/legato_color_convert.o
 .text.rgb332_rgba5551
                0x23f0507c       0x2c build/lcdc_rgba8888_mxt_9x60_wvga/debug/_ext/1483321925/legato_color_convert.o
 .text.rgb332_rgb888
                0x23f050a8       0x30 build/lcdc_rgba8888_mxt_9x60_wvga/debug/_ext/1483321925/legato_color_convert.o
 .text.rgb332_rgba8888
                0x23f050d8       0x2c build/lcdc_rgba8888_mxt_9x60_wvga/debug/_ext/1483321925/legato_color_convert.o
 .text.rgb332_argb8888
                0x23f05104       0x30 build/lcdc_rgba8888_mxt_9x60_wvga/debug/_ext/1483321925/legato_color_convert.o
 .text.rgb565_rgb332
                0x23f05134       0x20 build/lcdc_rgba8888_mxt_9x60_wvga/debug/_ext/1483321925/legato_color_convert.o
 .text.rgb565_rgba5551
                0x23f05154       0x20 build/lcdc_rgba8888_mxt_9x60_wvga/debug/_ext/1483321925/legato_color_convert.o
 .text.rgb565_rgb888
                0x23f05174       0x24 build/lcdc_rgba8888_mxt_9x60_wvga/debug/_ext/1483321925/legato_color_convert.o
 .text.rgb565_rgba8888
                0x23f05198       0x24 build/lcdc_rgba8888_mxt_9x60_wvga/debug/_ext/1483321925/legato_color_convert.o
 .text.rgb565_argb8888
                0x23f051bc       0x28 build/lcdc_rgba8888_mxt_9x60_wvga/debug/_ext/1483321925/legato_color_convert.o
 .text.rgba5551_gs8
                0x23f051e4        0x4 build/lcdc_rgba8888_mxt_9x60_wvga/debug/_ext/1483321925/legato_color_convert.o
 .text.rgba5551_rgb332
                0x23f051e8       0x20 build/lcdc_rgba8888_mxt_9x60_wvga/debug/_ext/1483321925/legato_color_convert.o
 .text.rgba5551_rgb565
                0x23f05208       0x1c build/lcdc_rgba8888_mxt_9x60_wvga/debug/_ext/1483321925/legato_color_convert.o
 .text.rgba5551_rgb888
                0x23f05224       0x30 build/lcdc_rgba8888_mxt_9x60_wvga/debug/_ext/1483321925/legato_color_convert.o
 .text.rgba5551_rgba8888
                0x23f05254       0x40 build/lcdc_rgba8888_mxt_9x60_wvga/debug/_ext/1483321925/legato_color_convert.o
 .text.rgba5551_argb8888
                0x23f05294       0x40 build/lcdc_rgba8888_mxt_9x60_wvga/debug/_ext/1483321925/legato_color_convert.o
 .text.rgb888_gs8
                0x23f052d4        0x4 build/lcdc_rgba8888_mxt_9x60_wvga/debug/_ext/1483321925/legato_color_convert.o
 .text.rgb888_rgb332
                0x23f052d8       0x24 build/lcdc_rgba8888_mxt_9x60_wvga/debug/_ext/1483321925/legato_color_convert.o
 .text.rgb888_rgb565
                0x23f052fc       0x20 build/lcdc_rgba8888_mxt_9x60_wvga/debug/_ext/1483321925/legato_color_convert.o
 .text.rgb888_rgba5551
                0x23f0531c       0x28 build/lcdc_rgba8888_mxt_9x60_wvga/debug/_ext/1483321925/legato_color_convert.o
 .text.rgb888_rgba8888
                0x23f05344        0xc build/lcdc_rgba8888_mxt_9x60_wvga/debug/_ext/1483321925/legato_color_convert.o
 .text.rgb888_argb8888
                0x23f05350        0x8 build/lcdc_rgba8888_mxt_9x60_wvga/debug/_ext/1483321925/legato_color_convert.o
 .text.rgba8888_gs8
                0x23f05358        0x4 build/lcdc_rgba8888_mxt_9x60_wvga/debug/_ext/1483321925/legato_color_convert.o
 .text.rgba8888_rgb332
                0x23f0535c       0x20 build/lcdc_rgba8888_mxt_9x60_wvga/debug/_ext/1483321925/legato_color_convert.o
 .text.rgba8888_rgb565
                0x23f0537c       0x20 build/lcdc_rgba8888_mxt_9x60_wvga/debug/_ext/1483321925/legato_color_convert.o
 .text.rgba8888_rgba5551
                0x23f0539c       0x34 build/lcdc_rgba8888_mxt_9x60_wvga/debug/_ext/1483321925/legato_color_convert.o
 .text.rgba8888_rgb888
                0x23f053d0        0x8 build/lcdc_rgba8888_mxt_9x60_wvga/debug/_ext/1483321925/legato_color_convert.o
 .text.rgba8888_argb8888
                0x23f053d8        0x8 build/lcdc_rgba8888_mxt_9x60_wvga/debug/_ext/1483321925/legato_color_convert.o
 .text.argb8888_rgba5551
                0x23f053e0       0x34 build/lcdc_rgba8888_mxt_9x60_wvga/debug/_ext/1483321925/legato_color_convert.o
 .text.argb8888_rgb888
                0x23f05414        0x8 build/lcdc_rgba8888_mxt_9x60_wvga/debug/_ext/1483321925/legato_color_convert.o
 .text.argb8888_rgba8888
                0x23f0541c        0x8 build/lcdc_rgba8888_mxt_9x60_wvga/debug/_ext/1483321925/legato_color_convert.o
 .text.rgb565_gs8
                0x23f05424       0x54 build/lcdc_rgba8888_mxt_9x60_wvga/debug/_ext/1483321925/legato_color_convert.o
 .text.rgb332_gs8
                0x23f05478       0x54 build/lcdc_rgba8888_mxt_9x60_wvga/debug/_ext/1483321925/legato_color_convert.o
 .text.leColorConvert
                0x23f054cc       0x28 build/lcdc_rgba8888_mxt_9x60_wvga/debug/_ext/1483321925/legato_color_convert.o
                0x23f054cc                leColorConvert
 .text.leColorBlend_RGBA_8888
                0x23f054f4      0x168 build/lcdc_rgba8888_mxt_9x60_wvga/debug/_ext/1483321925/legato_color_blend.o
                0x23f054f4                leColorBlend_RGBA_8888
 .text.leColorBlend_ARGB_8888
                0x23f0565c      0x14c build/lcdc_rgba8888_mxt_9x60_wvga/debug/_ext/1483321925/legato_color_blend.o
                0x23f0565c                leColorBlend_ARGB_8888
 .text.leQueryArcQuadrants
                0x23f057a8      0x124 build/lcdc_rgba8888_mxt_9x60_wvga/debug/_ext/1483321925/legato_math.o
 .text.leNormalizeAngle
                0x23f058cc       0x30 build/lcdc_rgba8888_mxt_9x60_wvga/debug/_ext/1483321925/legato_math.o
                0x23f058cc                leNormalizeAngle
 .text.leSin    0x23f058fc       0x80 build/lcdc_rgba8888_mxt_9x60_wvga/debug/_ext/1483321925/legato_math.o
                0x23f058fc                leSin
 .text.leCos    0x23f0597c       0x78 build/lcdc_rgba8888_mxt_9x60_wvga/debug/_ext/1483321925/legato_math.o
                0x23f0597c                leCos
 .text.lePolarToXY
                0x23f059f4       0x60 build/lcdc_rgba8888_mxt_9x60_wvga/debug/_ext/1483321925/legato_math.o
                0x23f059f4                lePolarToXY
 .text.leMini   0x23f05a54        0xc build/lcdc_rgba8888_mxt_9x60_wvga/debug/_ext/1483321925/legato_math.o
                0x23f05a54                leMini
 .text.leMaxi   0x23f05a60        0xc build/lcdc_rgba8888_mxt_9x60_wvga/debug/_ext/1483321925/legato_math.o
                0x23f05a60                leMaxi
 .text.leClampi
                0x23f05a6c       0x18 build/lcdc_rgba8888_mxt_9x60_wvga/debug/_ext/1483321925/legato_math.o
                0x23f05a6c                leClampi
 .text.lePercent
                0x23f05a84       0x1c build/lcdc_rgba8888_mxt_9x60_wvga/debug/_ext/1483321925/legato_math.o
                0x23f05a84                lePercent
 .text.lePercentWholeRounded
                0x23f05aa0       0x3c build/lcdc_rgba8888_mxt_9x60_wvga/debug/_ext/1483321925/legato_math.o
                0x23f05aa0                lePercentWholeRounded
 .text.lePercentOf
                0x23f05adc       0x58 build/lcdc_rgba8888_mxt_9x60_wvga/debug/_ext/1483321925/legato_math.o
                0x23f05adc                lePercentOf
 .text.leScaleInteger
                0x23f05b34       0x44 build/lcdc_rgba8888_mxt_9x60_wvga/debug/_ext/1483321925/legato_math.o
                0x23f05b34                leScaleInteger
 .text.leLerp   0x23f05b78       0x58 build/lcdc_rgba8888_mxt_9x60_wvga/debug/_ext/1483321925/legato_math.o
                0x23f05b78                leLerp
 .text.lePointOnLineSide
                0x23f05bd0       0x60 build/lcdc_rgba8888_mxt_9x60_wvga/debug/_ext/1483321925/legato_math.o
                0x23f05bd0                lePointOnLineSide
 .text.leRotatePoint
                0x23f05c30       0xbc build/lcdc_rgba8888_mxt_9x60_wvga/debug/_ext/1483321925/legato_math.o
                0x23f05c30                leRotatePoint
 .text.leRotatedRectBounds
                0x23f05cec      0x14c build/lcdc_rgba8888_mxt_9x60_wvga/debug/_ext/1483321925/legato_math.o
                0x23f05cec                leRotatedRectBounds
 .text.leSqrt   0x23f05e38       0x58 build/lcdc_rgba8888_mxt_9x60_wvga/debug/_ext/1483321925/legato_math.o
                0x23f05e38                leSqrt
 .text.lePointOnCircle
                0x23f05e90       0x30 build/lcdc_rgba8888_mxt_9x60_wvga/debug/_ext/1483321925/legato_math.o
                0x23f05e90                lePointOnCircle
 .text.leResolveAngles
                0x23f05ec0      0x2a8 build/lcdc_rgba8888_mxt_9x60_wvga/debug/_ext/1483321925/legato_math.o
                0x23f05ec0                leResolveAngles
 .text.leRound  0x23f06168       0xa0 build/lcdc_rgba8888_mxt_9x60_wvga/debug/_ext/1483321925/legato_math.o
                0x23f06168                leRound
 .text.leColorChannelAlpha
                0x23f06208       0x30 build/lcdc_rgba8888_mxt_9x60_wvga/debug/_ext/1483321925/legato_color.o
                0x23f06208                leColorChannelAlpha
 .text.leColorSwap
                0x23f06238       0xa8 build/lcdc_rgba8888_mxt_9x60_wvga/debug/_ext/1483321925/legato_color.o
                0x23f06238                leColorSwap
 .text.lerp_argb8888
                0x23f062e0       0x78 build/lcdc_rgba8888_mxt_9x60_wvga/debug/_ext/1483321925/legato_color_lerp.o
 .text.lerp_rgba8888
                0x23f06358       0x78 build/lcdc_rgba8888_mxt_9x60_wvga/debug/_ext/1483321925/legato_color_lerp.o
 .text.lerp_rgb888
                0x23f063d0       0x60 build/lcdc_rgba8888_mxt_9x60_wvga/debug/_ext/1483321925/legato_color_lerp.o
 .text.lerp_rgba5551
                0x23f06430       0x74 build/lcdc_rgba8888_mxt_9x60_wvga/debug/_ext/1483321925/legato_color_lerp.o
 .text.lerp_rgb565
                0x23f064a4       0x60 build/lcdc_rgba8888_mxt_9x60_wvga/debug/_ext/1483321925/legato_color_lerp.o
 .text.lerp_rgb332
                0x23f06504       0x60 build/lcdc_rgba8888_mxt_9x60_wvga/debug/_ext/1483321925/legato_color_lerp.o
 .text.lerp_gs8
                0x23f06564        0xc build/lcdc_rgba8888_mxt_9x60_wvga/debug/_ext/1483321925/legato_color_lerp.o
 .text.leColorLerp
                0x23f06570       0x40 build/lcdc_rgba8888_mxt_9x60_wvga/debug/_ext/1483321925/legato_color_lerp.o
                0x23f06570                leColorLerp
 .text.leColorBilerp
                0x23f065b0       0x5c build/lcdc_rgba8888_mxt_9x60_wvga/debug/_ext/1483321925/legato_color_lerp.o
                0x23f065b0                leColorBilerp
 .text.updateWidget
                0x23f0660c       0x4c build/lcdc_rgba8888_mxt_9x60_wvga/debug/_ext/1553762159/legato_state.o
 .text.leGetState
                0x23f06658        0xc build/lcdc_rgba8888_mxt_9x60_wvga/debug/_ext/1553762159/legato_state.o
                0x23f06658                leGetState
 .text.leAddLayer
                0x23f06664       0xb8 build/lcdc_rgba8888_mxt_9x60_wvga/debug/_ext/1553762159/legato_state.o
                0x23f06664                leAddLayer
 .text.leInitialize
                0x23f0671c       0xa8 build/lcdc_rgba8888_mxt_9x60_wvga/debug/_ext/1553762159/legato_state.o
                0x23f0671c                leInitialize
 .text.leGetLayerState
                0x23f067c4       0x50 build/lcdc_rgba8888_mxt_9x60_wvga/debug/_ext/1553762159/legato_state.o
                0x23f067c4                leGetLayerState
 .text.leGetLayerColorMode
                0x23f06814       0x54 build/lcdc_rgba8888_mxt_9x60_wvga/debug/_ext/1553762159/legato_state.o
                0x23f06814                leGetLayerColorMode
 .text.leGetLayerRenderHorizontal
                0x23f06868       0x54 build/lcdc_rgba8888_mxt_9x60_wvga/debug/_ext/1553762159/legato_state.o
                0x23f06868                leGetLayerRenderHorizontal
 .text.leGetFocusWidget
                0x23f068bc       0x10 build/lcdc_rgba8888_mxt_9x60_wvga/debug/_ext/1553762159/legato_state.o
                0x23f068bc                leGetFocusWidget
 .text.leSetFocusWidget
                0x23f068cc       0x84 build/lcdc_rgba8888_mxt_9x60_wvga/debug/_ext/1553762159/legato_state.o
                0x23f068cc                leSetFocusWidget
 .text.leGetEditWidget
                0x23f06950       0x10 build/lcdc_rgba8888_mxt_9x60_wvga/debug/_ext/1553762159/legato_state.o
                0x23f06950                leGetEditWidget
 .text.leSetEditWidget
                0x23f06960       0x84 build/lcdc_rgba8888_mxt_9x60_wvga/debug/_ext/1553762159/legato_state.o
                0x23f06960                leSetEditWidget
 .text.leRedrawAll
                0x23f069e4       0x50 build/lcdc_rgba8888_mxt_9x60_wvga/debug/_ext/1553762159/legato_state.o
                0x23f069e4                leRedrawAll
 .text.leSetLayerColorMode
                0x23f06a34       0x74 build/lcdc_rgba8888_mxt_9x60_wvga/debug/_ext/1553762159/legato_state.o
                0x23f06a34                leSetLayerColorMode
 .text.leSetStringTable
                0x23f06aa8       0x18 build/lcdc_rgba8888_mxt_9x60_wvga/debug/_ext/1553762159/legato_state.o
                0x23f06aa8                leSetStringTable
 .text.leIsDrawing
                0x23f06ac0       0x14 build/lcdc_rgba8888_mxt_9x60_wvga/debug/_ext/1553762159/legato_state.o
                0x23f06ac0                leIsDrawing
 .text.leUpdate
                0x23f06ad4      0x114 build/lcdc_rgba8888_mxt_9x60_wvga/debug/_ext/1553762159/legato_state.o
                0x23f06ad4                leUpdate
 .text.leAddRootWidget
                0x23f06be8       0x68 build/lcdc_rgba8888_mxt_9x60_wvga/debug/_ext/1553762159/legato_state.o
                0x23f06be8                leAddRootWidget
 .text.leRemoveRootWidget
                0x23f06c50       0x74 build/lcdc_rgba8888_mxt_9x60_wvga/debug/_ext/1553762159/legato_state.o
                0x23f06c50                leRemoveRootWidget
 .text.leGetWidgetLayer
                0x23f06cc4       0x8c build/lcdc_rgba8888_mxt_9x60_wvga/debug/_ext/1553762159/legato_state.o
                0x23f06cc4                leGetWidgetLayer
 .text.leWidgetIsInScene
                0x23f06d50       0x14 build/lcdc_rgba8888_mxt_9x60_wvga/debug/_ext/1553762159/legato_state.o
                0x23f06d50                leWidgetIsInScene
 .text._leGetEventState
                0x23f06d64        0xc build/lcdc_rgba8888_mxt_9x60_wvga/debug/_ext/1553762159/legato_event.o
                0x23f06d64                _leGetEventState
 .text.leEvent_Init
                0x23f06d70       0x20 build/lcdc_rgba8888_mxt_9x60_wvga/debug/_ext/1553762159/legato_event.o
                0x23f06d70                leEvent_Init
 .text.leEvent_AddEvent
                0x23f06d90       0x28 build/lcdc_rgba8888_mxt_9x60_wvga/debug/_ext/1553762159/legato_event.o
                0x23f06d90                leEvent_AddEvent
 .text.leEvent_ProcessEvents
                0x23f06db8       0xb4 build/lcdc_rgba8888_mxt_9x60_wvga/debug/_ext/1553762159/legato_event.o
                0x23f06db8                leEvent_ProcessEvents
 .text.leWidgetEvent_Accept
                0x23f06e6c       0x14 build/lcdc_rgba8888_mxt_9x60_wvga/debug/_ext/1553762159/legato_event.o
                0x23f06e6c                leWidgetEvent_Accept
 .text.leInput_Init
                0x23f06e80       0x2c build/lcdc_rgba8888_mxt_9x60_wvga/debug/_ext/1553762159/legato_input.o
                0x23f06e80                leInput_Init
 .text.leInput_InjectTouchDown
                0x23f06eac       0xd8 build/lcdc_rgba8888_mxt_9x60_wvga/debug/_ext/1553762159/legato_input.o
                0x23f06eac                leInput_InjectTouchDown
 .text.leInput_InjectTouchUp
                0x23f06f84       0xb4 build/lcdc_rgba8888_mxt_9x60_wvga/debug/_ext/1553762159/legato_input.o
                0x23f06f84                leInput_InjectTouchUp
 .text.leInput_InjectTouchMoved
                0x23f07038      0x12c build/lcdc_rgba8888_mxt_9x60_wvga/debug/_ext/1553762159/legato_input.o
                0x23f07038                leInput_InjectTouchMoved
 .text.handleTouchDown
                0x23f07164      0x118 build/lcdc_rgba8888_mxt_9x60_wvga/debug/_ext/1553762159/legato_input.o
                0x23f07164                handleTouchDown
 .text.handleTouchUp
                0x23f0727c       0x70 build/lcdc_rgba8888_mxt_9x60_wvga/debug/_ext/1553762159/legato_input.o
                0x23f0727c                handleTouchUp
 .text.handleTouchMoved
                0x23f072ec       0x70 build/lcdc_rgba8888_mxt_9x60_wvga/debug/_ext/1553762159/legato_input.o
                0x23f072ec                handleTouchMoved
 .text._leInput_HandleInputEvent
                0x23f0735c       0x40 build/lcdc_rgba8888_mxt_9x60_wvga/debug/_ext/1553762159/legato_input.o
                0x23f0735c                _leInput_HandleInputEvent
 .text.leScheme_GetRenderColor
                0x23f0739c       0x38 build/lcdc_rgba8888_mxt_9x60_wvga/debug/_ext/1553762159/legato_scheme.o
                0x23f0739c                leScheme_GetRenderColor
 .text._shuffleRight
                0x23f073d4       0x78 build/lcdc_rgba8888_mxt_9x60_wvga/debug/_ext/1653592263/legato_array.o
 .text._shuffleLeft
                0x23f0744c       0x5c build/lcdc_rgba8888_mxt_9x60_wvga/debug/_ext/1653592263/legato_array.o
 .text.leArray_Create
                0x23f074a8       0x1c build/lcdc_rgba8888_mxt_9x60_wvga/debug/_ext/1653592263/legato_array.o
                0x23f074a8                leArray_Create
 .text.leArray_Resize
                0x23f074c4       0x70 build/lcdc_rgba8888_mxt_9x60_wvga/debug/_ext/1653592263/legato_array.o
                0x23f074c4                leArray_Resize
 .text.leArray_PushBack
                0x23f07534       0x60 build/lcdc_rgba8888_mxt_9x60_wvga/debug/_ext/1653592263/legato_array.o
                0x23f07534                leArray_PushBack
 .text.leArray_InsertAt
                0x23f07594       0x9c build/lcdc_rgba8888_mxt_9x60_wvga/debug/_ext/1653592263/legato_array.o
                0x23f07594                leArray_InsertAt
 .text.leArray_RemoveAt
                0x23f07630       0x38 build/lcdc_rgba8888_mxt_9x60_wvga/debug/_ext/1653592263/legato_array.o
                0x23f07630                leArray_RemoveAt
 .text.leArray_Get
                0x23f07668       0x18 build/lcdc_rgba8888_mxt_9x60_wvga/debug/_ext/1653592263/legato_array.o
                0x23f07668                leArray_Get
 .text.leArray_Find
                0x23f07680       0x68 build/lcdc_rgba8888_mxt_9x60_wvga/debug/_ext/1653592263/legato_array.o
                0x23f07680                leArray_Find
 .text.leArray_Remove
                0x23f076e8       0x58 build/lcdc_rgba8888_mxt_9x60_wvga/debug/_ext/1653592263/legato_array.o
                0x23f076e8                leArray_Remove
 .text.leArray_Clear
                0x23f07740       0x38 build/lcdc_rgba8888_mxt_9x60_wvga/debug/_ext/1653592263/legato_array.o
                0x23f07740                leArray_Clear
 .text.leList_Create
                0x23f07778       0x1c build/lcdc_rgba8888_mxt_9x60_wvga/debug/_ext/1653592263/legato_list.o
                0x23f07778                leList_Create
 .text.leList_PushBack
                0x23f07794       0x68 build/lcdc_rgba8888_mxt_9x60_wvga/debug/_ext/1653592263/legato_list.o
                0x23f07794                leList_PushBack
 .text.leList_Get
                0x23f077fc       0x44 build/lcdc_rgba8888_mxt_9x60_wvga/debug/_ext/1653592263/legato_list.o
                0x23f077fc                leList_Get
 .text.leList_Remove
                0x23f07840       0xbc build/lcdc_rgba8888_mxt_9x60_wvga/debug/_ext/1653592263/legato_list.o
                0x23f07840                leList_Remove
 .text.leList_Destroy
                0x23f078fc       0x4c build/lcdc_rgba8888_mxt_9x60_wvga/debug/_ext/1653592263/legato_list.o
                0x23f078fc                leList_Destroy
 .text._shuffleLeft
                0x23f07948       0xac build/lcdc_rgba8888_mxt_9x60_wvga/debug/_ext/1653592263/legato_rectarray.o
 .text.leRectArray_Create
                0x23f079f4       0x1c build/lcdc_rgba8888_mxt_9x60_wvga/debug/_ext/1653592263/legato_rectarray.o
                0x23f079f4                leRectArray_Create
 .text.leRectArray_Resize
                0x23f07a10       0x7c build/lcdc_rgba8888_mxt_9x60_wvga/debug/_ext/1653592263/legato_rectarray.o
                0x23f07a10                leRectArray_Resize
 .text.leRectArray_PushBack
                0x23f07a8c       0x70 build/lcdc_rgba8888_mxt_9x60_wvga/debug/_ext/1653592263/legato_rectarray.o
                0x23f07a8c                leRectArray_PushBack
 .text.leRectArray_RemoveAt
                0x23f07afc       0x38 build/lcdc_rgba8888_mxt_9x60_wvga/debug/_ext/1653592263/legato_rectarray.o
                0x23f07afc                leRectArray_RemoveAt
 .text.leRectArray_Copy
                0x23f07b34       0x74 build/lcdc_rgba8888_mxt_9x60_wvga/debug/_ext/1653592263/legato_rectarray.o
                0x23f07b34                leRectArray_Copy
 .text.leRectArray_Clear
                0x23f07ba8       0x14 build/lcdc_rgba8888_mxt_9x60_wvga/debug/_ext/1653592263/legato_rectarray.o
                0x23f07ba8                leRectArray_Clear
 .text.leRectArray_Destroy
                0x23f07bbc       0x3c build/lcdc_rgba8888_mxt_9x60_wvga/debug/_ext/1653592263/legato_rectarray.o
                0x23f07bbc                leRectArray_Destroy
 .text.leRectArray_RemoveDuplicates
                0x23f07bf8       0x90 build/lcdc_rgba8888_mxt_9x60_wvga/debug/_ext/1653592263/legato_rectarray.o
                0x23f07bf8                leRectArray_RemoveDuplicates
 .text.leRectArray_SortBySize
                0x23f07c88       0xdc build/lcdc_rgba8888_mxt_9x60_wvga/debug/_ext/1653592263/legato_rectarray.o
                0x23f07c88                leRectArray_SortBySize
 .text.leRectArray_SortByX
                0x23f07d64       0xfc build/lcdc_rgba8888_mxt_9x60_wvga/debug/_ext/1653592263/legato_rectarray.o
                0x23f07d64                leRectArray_SortByX
 .text.leRectArray_SortByY
                0x23f07e60       0xf4 build/lcdc_rgba8888_mxt_9x60_wvga/debug/_ext/1653592263/legato_rectarray.o
                0x23f07e60                leRectArray_SortByY
 .text.leRectArray_MergeSimilar
                0x23f07f54       0x98 build/lcdc_rgba8888_mxt_9x60_wvga/debug/_ext/1653592263/legato_rectarray.o
                0x23f07f54                leRectArray_MergeSimilar
 .text.leRectArray_RemoveOverlapping
                0x23f07fec       0x84 build/lcdc_rgba8888_mxt_9x60_wvga/debug/_ext/1653592263/legato_rectarray.o
                0x23f07fec                leRectArray_RemoveOverlapping
 .text.leRectArray_PadRectangleWidth
                0x23f08070      0x120 build/lcdc_rgba8888_mxt_9x60_wvga/debug/_ext/1653592263/legato_rectarray.o
                0x23f08070                leRectArray_PadRectangleWidth
 .text.leRectArray_CropToSizeY
                0x23f08190      0x134 build/lcdc_rgba8888_mxt_9x60_wvga/debug/_ext/1653592263/legato_rectarray.o
                0x23f08190                leRectArray_CropToSizeY
 .text.leRectArray_CropToSizeX
                0x23f082c4      0x134 build/lcdc_rgba8888_mxt_9x60_wvga/debug/_ext/1653592263/legato_rectarray.o
                0x23f082c4                leRectArray_CropToSizeX
 .text.drawGlyphRow8bpp
                0x23f083f8       0xf8 build/lcdc_rgba8888_mxt_9x60_wvga/debug/_ext/1553851423/legato_font.o
 .text.drawGlyphRow1bpp
                0x23f084f0       0xd0 build/lcdc_rgba8888_mxt_9x60_wvga/debug/_ext/1553851423/legato_font.o
 .text.drawGlyphRow8bppMono
                0x23f085c0       0x5c build/lcdc_rgba8888_mxt_9x60_wvga/debug/_ext/1553851423/legato_font.o
 .text.drawGlyphRow1bppMono
                0x23f0861c       0x64 build/lcdc_rgba8888_mxt_9x60_wvga/debug/_ext/1553851423/legato_font.o
 .text._drawUnknownGlyph
                0x23f08680       0xf4 build/lcdc_rgba8888_mxt_9x60_wvga/debug/_ext/1553851423/legato_font.o
 .text.leFont_GetGlyphInfo
                0x23f08774       0xe0 build/lcdc_rgba8888_mxt_9x60_wvga/debug/_ext/1553851423/legato_font.o
                0x23f08774                leFont_GetGlyphInfo
 .text.leFont_DrawGlyphData
                0x23f08854      0x12c build/lcdc_rgba8888_mxt_9x60_wvga/debug/_ext/1553851423/legato_font.o
                0x23f08854                leFont_DrawGlyphData
 .text.leFont_DrawGlyphData_Lookup
                0x23f08980      0x300 build/lcdc_rgba8888_mxt_9x60_wvga/debug/_ext/1553851423/legato_font.o
                0x23f08980                leFont_DrawGlyphData_Lookup
 .text.leFont_DrawGlyph
                0x23f08c80       0xa4 build/lcdc_rgba8888_mxt_9x60_wvga/debug/_ext/1553851423/legato_font.o
                0x23f08c80                leFont_DrawGlyph
 .text.leFont_DrawGlyph_Lookup
                0x23f08d24       0xb4 build/lcdc_rgba8888_mxt_9x60_wvga/debug/_ext/1553851423/legato_font.o
                0x23f08d24                leFont_DrawGlyph_Lookup
 .text.screenInit_Screen0
                0x23f08dd8       0x28 build/lcdc_rgba8888_mxt_9x60_wvga/debug/_ext/1849858236/le_gen_screen_Screen0.o
                0x23f08dd8                screenInit_Screen0
 .text.screenShow_Screen0
                0x23f08e00     0x1b54 build/lcdc_rgba8888_mxt_9x60_wvga/debug/_ext/1849858236/le_gen_screen_Screen0.o
                0x23f08e00                screenShow_Screen0
 .text.screenUpdate_Screen0
                0x23f0a954       0x88 build/lcdc_rgba8888_mxt_9x60_wvga/debug/_ext/1849858236/le_gen_screen_Screen0.o
                0x23f0a954                screenUpdate_Screen0
 .text.screenHide_Screen0
                0x23f0a9dc      0x254 build/lcdc_rgba8888_mxt_9x60_wvga/debug/_ext/1849858236/le_gen_screen_Screen0.o
                0x23f0a9dc                screenHide_Screen0
 .text.legato_showScreen
                0x23f0ac30       0x1c build/lcdc_rgba8888_mxt_9x60_wvga/debug/_ext/1247075393/le_gen_init.o
                0x23f0ac30                legato_showScreen
 .text.legato_initializeScreenState
                0x23f0ac4c       0x40 build/lcdc_rgba8888_mxt_9x60_wvga/debug/_ext/1247075393/le_gen_init.o
                0x23f0ac4c                legato_initializeScreenState
 .text.legato_updateScreenState
                0x23f0ac8c       0x8c build/lcdc_rgba8888_mxt_9x60_wvga/debug/_ext/1247075393/le_gen_init.o
                0x23f0ac8c                legato_updateScreenState
 .text.initializeStrings
                0x23f0ad18       0x48 build/lcdc_rgba8888_mxt_9x60_wvga/debug/_ext/1247075393/le_gen_stringtable.o
                0x23f0ad18                initializeStrings
 .text.touchMoveHandler
                0x23f0ad60       0x18 build/lcdc_rgba8888_mxt_9x60_wvga/debug/_ext/1247075393/le_gen_harmony.o
 .text.touchUpHandler
                0x23f0ad78       0x18 build/lcdc_rgba8888_mxt_9x60_wvga/debug/_ext/1247075393/le_gen_harmony.o
 .text.touchDownHandler
                0x23f0ad90       0x18 build/lcdc_rgba8888_mxt_9x60_wvga/debug/_ext/1247075393/le_gen_harmony.o
 .text.Legato_Initialize
                0x23f0ada8       0x98 build/lcdc_rgba8888_mxt_9x60_wvga/debug/_ext/1247075393/le_gen_harmony.o
                0x23f0ada8                Legato_Initialize
 .text.Legato_Tasks
                0x23f0ae40       0x4c build/lcdc_rgba8888_mxt_9x60_wvga/debug/_ext/1247075393/le_gen_harmony.o
                0x23f0ae40                Legato_Tasks
 .text._supportsImage
                0x23f0ae8c       0x28 build/lcdc_rgba8888_mxt_9x60_wvga/debug/_ext/1797725076/legato_imagedecoder_jpeg.o
 .text.internalMemoryRead
                0x23f0aeb4       0x48 build/lcdc_rgba8888_mxt_9x60_wvga/debug/_ext/1797725076/legato_imagedecoder_jpeg.o
 .text.exec     0x23f0aefc        0x8 build/lcdc_rgba8888_mxt_9x60_wvga/debug/_ext/1797725076/legato_imagedecoder_jpeg.o
 .text._render  0x23f0af04      0x1fc build/lcdc_rgba8888_mxt_9x60_wvga/debug/_ext/1797725076/legato_imagedecoder_jpeg.o
 .text._draw    0x23f0b100      0x20c build/lcdc_rgba8888_mxt_9x60_wvga/debug/_ext/1797725076/legato_imagedecoder_jpeg.o
 .text.blitToImage
                0x23f0b30c       0xa4 build/lcdc_rgba8888_mxt_9x60_wvga/debug/_ext/1797725076/legato_imagedecoder_jpeg.o
 .text.blitToFrameBuffer
                0x23f0b3b0       0x98 build/lcdc_rgba8888_mxt_9x60_wvga/debug/_ext/1797725076/legato_imagedecoder_jpeg.o
 .text._leJPEGImageDecoder_Init
                0x23f0b448       0x5c build/lcdc_rgba8888_mxt_9x60_wvga/debug/_ext/1797725076/legato_imagedecoder_jpeg.o
                0x23f0b448                _leJPEGImageDecoder_Init
 .text.JPEG_wReadWord
                0x23f0b4a4       0x50 build/lcdc_rgba8888_mxt_9x60_wvga/debug/_ext/1797725076/legato_imagedecoder_jpeg_common.o
 .text.JPEG_bReadByte
                0x23f0b4f4       0x2c build/lcdc_rgba8888_mxt_9x60_wvga/debug/_ext/1797725076/legato_imagedecoder_jpeg_common.o
 .text.JPEG_bGet1Bit
                0x23f0b520      0x154 build/lcdc_rgba8888_mxt_9x60_wvga/debug/_ext/1797725076/legato_imagedecoder_jpeg_common.o
 .text.JPEG_wGetBits
                0x23f0b674       0x4c build/lcdc_rgba8888_mxt_9x60_wvga/debug/_ext/1797725076/legato_imagedecoder_jpeg_common.o
 .text.JPEG_sGetBitsValue
                0x23f0b6c0       0x50 build/lcdc_rgba8888_mxt_9x60_wvga/debug/_ext/1797725076/legato_imagedecoder_jpeg_common.o
 .text.JPEG_bGetNextHuffByte
                0x23f0b710       0x98 build/lcdc_rgba8888_mxt_9x60_wvga/debug/_ext/1797725076/legato_imagedecoder_jpeg_common.o
 .text.JPEG_vResetDecoder
                0x23f0b7a8       0x20 build/lcdc_rgba8888_mxt_9x60_wvga/debug/_ext/1797725076/legato_imagedecoder_jpeg_common.o
                0x23f0b7a8                JPEG_vResetDecoder
 .text.JPEG_bReadHeader
                0x23f0b7c8      0x7c8 build/lcdc_rgba8888_mxt_9x60_wvga/debug/_ext/1797725076/legato_imagedecoder_jpeg_common.o
                0x23f0b7c8                JPEG_bReadHeader
 .text.JPEG_bGenerateHuffmanTables
                0x23f0bf90       0x90 build/lcdc_rgba8888_mxt_9x60_wvga/debug/_ext/1797725076/legato_imagedecoder_jpeg_common.o
                0x23f0bf90                JPEG_bGenerateHuffmanTables
 .text.JPEG_bDecodeOneBlock
                0x23f0c020      0x270 build/lcdc_rgba8888_mxt_9x60_wvga/debug/_ext/1797725076/legato_imagedecoder_jpeg_common.o
                0x23f0c020                JPEG_bDecodeOneBlock
 .text.JPEG_vInitDisplay
                0x23f0c290       0x10 build/lcdc_rgba8888_mxt_9x60_wvga/debug/_ext/1797725076/legato_imagedecoder_jpeg_common.o
                0x23f0c290                JPEG_vInitDisplay
 .text.JPEG_bPaintOneBlock
                0x23f0c2a0      0x9c4 build/lcdc_rgba8888_mxt_9x60_wvga/debug/_ext/1797725076/legato_imagedecoder_jpeg_common.o
                0x23f0c2a0                JPEG_bPaintOneBlock
 .text.jpeg_idct_islow_leg
                0x23f0cc64      0x514 build/lcdc_rgba8888_mxt_9x60_wvga/debug/_ext/1797725076/jidctint.o
                0x23f0cc64                jpeg_idct_islow_leg
 .text._supportsImage
                0x23f0d178       0x14 build/lcdc_rgba8888_mxt_9x60_wvga/debug/_ext/1797636377/legato_imagedecoder_mono.o
 .text._decoderCleanup
                0x23f0d18c       0x64 build/lcdc_rgba8888_mxt_9x60_wvga/debug/_ext/1797636377/legato_imagedecoder_mono.o
 .text._decoderExec
                0x23f0d1f0       0x84 build/lcdc_rgba8888_mxt_9x60_wvga/debug/_ext/1797636377/legato_imagedecoder_mono.o
 .text._decoderIsDone
                0x23f0d274       0x10 build/lcdc_rgba8888_mxt_9x60_wvga/debug/_ext/1797636377/legato_imagedecoder_mono.o
 .text.stage_sourceIterateSetup
                0x23f0d284       0xb4 build/lcdc_rgba8888_mxt_9x60_wvga/debug/_ext/1797636377/legato_imagedecoder_mono.o
 .text.stage_FrameBufferWrite
                0x23f0d338       0x20 build/lcdc_rgba8888_mxt_9x60_wvga/debug/_ext/1797636377/legato_imagedecoder_mono.o
 .text.stage_ImageWrite
                0x23f0d358       0x28 build/lcdc_rgba8888_mxt_9x60_wvga/debug/_ext/1797636377/legato_imagedecoder_mono.o
 .text._leMonoImageDecoder_Init
                0x23f0d380       0x84 build/lcdc_rgba8888_mxt_9x60_wvga/debug/_ext/1797636377/legato_imagedecoder_mono.o
                0x23f0d380                _leMonoImageDecoder_Init
 .text._leMonoImageDecoder_InjectStage
                0x23f0d404       0x38 build/lcdc_rgba8888_mxt_9x60_wvga/debug/_ext/1797636377/legato_imagedecoder_mono.o
                0x23f0d404                _leMonoImageDecoder_InjectStage
 .text._leMonoImageDecoder_SourceIterateSetupStage
                0x23f0d43c       0x38 build/lcdc_rgba8888_mxt_9x60_wvga/debug/_ext/1797636377/legato_imagedecoder_mono.o
                0x23f0d43c                _leMonoImageDecoder_SourceIterateSetupStage
 .text._leMonoImageDecoder_FrameBufferWriteStage
                0x23f0d474       0x30 build/lcdc_rgba8888_mxt_9x60_wvga/debug/_ext/1797636377/legato_imagedecoder_mono.o
                0x23f0d474                _leMonoImageDecoder_FrameBufferWriteStage
 .text._draw    0x23f0d4a4      0x154 build/lcdc_rgba8888_mxt_9x60_wvga/debug/_ext/1797636377/legato_imagedecoder_mono.o
 .text._leMonoImageDecoder_ImageWriteStage
                0x23f0d5f8       0x30 build/lcdc_rgba8888_mxt_9x60_wvga/debug/_ext/1797636377/legato_imagedecoder_mono.o
                0x23f0d5f8                _leMonoImageDecoder_ImageWriteStage
 .text._copy    0x23f0d628      0x190 build/lcdc_rgba8888_mxt_9x60_wvga/debug/_ext/1797636377/legato_imagedecoder_mono.o
 .text.stage_decode
                0x23f0d7b8       0x3c build/lcdc_rgba8888_mxt_9x60_wvga/debug/_ext/1797636377/legato_imagedecoder_mono_read_internal.o
 .text._leMonoImageDecoder_ReadStage_Internal
                0x23f0d7f4       0x30 build/lcdc_rgba8888_mxt_9x60_wvga/debug/_ext/1797636377/legato_imagedecoder_mono_read_internal.o
                0x23f0d7f4                _leMonoImageDecoder_ReadStage_Internal
 .text._supportsImage
                0x23f0d824       0x28 build/lcdc_rgba8888_mxt_9x60_wvga/debug/_ext/1881677221/legato_imagedecoder_png.o
 .text._decoderCleanup
                0x23f0d84c        0x4 build/lcdc_rgba8888_mxt_9x60_wvga/debug/_ext/1881677221/legato_imagedecoder_png.o
 .text._decoderExec
                0x23f0d850        0x8 build/lcdc_rgba8888_mxt_9x60_wvga/debug/_ext/1881677221/legato_imagedecoder_png.o
 .text._decoderIsDone
                0x23f0d858        0x8 build/lcdc_rgba8888_mxt_9x60_wvga/debug/_ext/1881677221/legato_imagedecoder_png.o
 .text._render  0x23f0d860       0xf4 build/lcdc_rgba8888_mxt_9x60_wvga/debug/_ext/1881677221/legato_imagedecoder_png.o
 .text._draw    0x23f0d954      0x1f0 build/lcdc_rgba8888_mxt_9x60_wvga/debug/_ext/1881677221/legato_imagedecoder_png.o
 .text._lePNGImageDecoder_Init
                0x23f0db44       0x6c build/lcdc_rgba8888_mxt_9x60_wvga/debug/_ext/1881677221/legato_imagedecoder_png.o
                0x23f0db44                _lePNGImageDecoder_Init
 .text.readBitsFromStream
                0x23f0dbb0       0x50 build/lcdc_rgba8888_mxt_9x60_wvga/debug/_ext/1881677221/lodepng.o
 .text.huffmanDecodeSymbol
                0x23f0dc00       0x64 build/lcdc_rgba8888_mxt_9x60_wvga/debug/_ext/1881677221/lodepng.o
 .text.readBitFromReversedStream
                0x23f0dc64       0x24 build/lcdc_rgba8888_mxt_9x60_wvga/debug/_ext/1881677221/lodepng.o
 .text.readBitsFromReversedStream
                0x23f0dc88       0x48 build/lcdc_rgba8888_mxt_9x60_wvga/debug/_ext/1881677221/lodepng.o
 .text.getNumColorChannels
                0x23f0dcd0       0x50 build/lcdc_rgba8888_mxt_9x60_wvga/debug/_ext/1881677221/lodepng.o
 .text.lodepng_color_mode_equal
                0x23f0dd20      0x120 build/lcdc_rgba8888_mxt_9x60_wvga/debug/_ext/1881677221/lodepng.o
 .text.addColorBits
                0x23f0de40       0x50 build/lcdc_rgba8888_mxt_9x60_wvga/debug/_ext/1881677221/lodepng.o
 .text.getPixelColorsRGBA8
                0x23f0de90      0x51c build/lcdc_rgba8888_mxt_9x60_wvga/debug/_ext/1881677221/lodepng.o
 .text.Adam7_getpassvalues
                0x23f0e3ac      0x18c build/lcdc_rgba8888_mxt_9x60_wvga/debug/_ext/1881677221/lodepng.o
 .text.unfilter
                0x23f0e538      0x424 build/lcdc_rgba8888_mxt_9x60_wvga/debug/_ext/1881677221/lodepng.o
 .text.removePaddingBits
                0x23f0e95c       0xa4 build/lcdc_rgba8888_mxt_9x60_wvga/debug/_ext/1881677221/lodepng.o
 .text.ucvector_reserve
                0x23f0ea00       0x58 build/lcdc_rgba8888_mxt_9x60_wvga/debug/_ext/1881677221/lodepng.o
 .text.ucvector_resize
                0x23f0ea58       0x20 build/lcdc_rgba8888_mxt_9x60_wvga/debug/_ext/1881677221/lodepng.o
 .text.ucvector_push_back
                0x23f0ea78       0x34 build/lcdc_rgba8888_mxt_9x60_wvga/debug/_ext/1881677221/lodepng.o
 .text.color_tree_cleanup
                0x23f0eaac       0x34 build/lcdc_rgba8888_mxt_9x60_wvga/debug/_ext/1881677221/lodepng.o
 .text.LodePNGIText_cleanup
                0x23f0eae0       0x90 build/lcdc_rgba8888_mxt_9x60_wvga/debug/_ext/1881677221/lodepng.o
 .text.LodePNGText_cleanup
                0x23f0eb70       0x60 build/lcdc_rgba8888_mxt_9x60_wvga/debug/_ext/1881677221/lodepng.o
 .text.HuffmanTree_cleanup
                0x23f0ebd0       0x24 build/lcdc_rgba8888_mxt_9x60_wvga/debug/_ext/1881677221/lodepng.o
 .text.string_set
                0x23f0ebf4       0x68 build/lcdc_rgba8888_mxt_9x60_wvga/debug/_ext/1881677221/lodepng.o
 .text.string_init
                0x23f0ec5c       0x2c build/lcdc_rgba8888_mxt_9x60_wvga/debug/_ext/1881677221/lodepng.o
 .text.uivector_reserve
                0x23f0ec88       0x58 build/lcdc_rgba8888_mxt_9x60_wvga/debug/_ext/1881677221/lodepng.o
 .text.HuffmanTree_makeFromLengths
                0x23f0ece0      0x424 build/lcdc_rgba8888_mxt_9x60_wvga/debug/_ext/1881677221/lodepng.o
 .text.lodepng_read32bitInt
                0x23f0f104       0x24 build/lcdc_rgba8888_mxt_9x60_wvga/debug/_ext/1881677221/lodepng.o
                0x23f0f104                lodepng_read32bitInt
 .text.lodepng_inflate
                0x23f0f128      0x998 build/lcdc_rgba8888_mxt_9x60_wvga/debug/_ext/1881677221/lodepng.o
                0x23f0f128                lodepng_inflate
 .text.lodepng_zlib_decompress
                0x23f0fac0      0x198 build/lcdc_rgba8888_mxt_9x60_wvga/debug/_ext/1881677221/lodepng.o
                0x23f0fac0                lodepng_zlib_decompress
 .text.zlib_decompress
                0x23f0fc58       0x34 build/lcdc_rgba8888_mxt_9x60_wvga/debug/_ext/1881677221/lodepng.o
 .text.lodepng_crc32
                0x23f0fc8c       0x4c build/lcdc_rgba8888_mxt_9x60_wvga/debug/_ext/1881677221/lodepng.o
                0x23f0fc8c                lodepng_crc32
 .text.lodepng_chunk_type_equals
                0x23f0fcd8       0x80 build/lcdc_rgba8888_mxt_9x60_wvga/debug/_ext/1881677221/lodepng.o
                0x23f0fcd8                lodepng_chunk_type_equals
 .text.lodepng_chunk_check_crc
                0x23f0fd58       0x38 build/lcdc_rgba8888_mxt_9x60_wvga/debug/_ext/1881677221/lodepng.o
                0x23f0fd58                lodepng_chunk_check_crc
 .text.lodepng_chunk_next_const
                0x23f0fd90       0x18 build/lcdc_rgba8888_mxt_9x60_wvga/debug/_ext/1881677221/lodepng.o
                0x23f0fd90                lodepng_chunk_next_const
 .text.lodepng_chunk_append
                0x23f0fda8       0xa4 build/lcdc_rgba8888_mxt_9x60_wvga/debug/_ext/1881677221/lodepng.o
                0x23f0fda8                lodepng_chunk_append
 .text.lodepng_color_mode_init
                0x23f0fe4c       0x30 build/lcdc_rgba8888_mxt_9x60_wvga/debug/_ext/1881677221/lodepng.o
                0x23f0fe4c                lodepng_color_mode_init
 .text.lodepng_palette_clear
                0x23f0fe7c       0x28 build/lcdc_rgba8888_mxt_9x60_wvga/debug/_ext/1881677221/lodepng.o
                0x23f0fe7c                lodepng_palette_clear
 .text.lodepng_color_mode_copy
                0x23f0fea4       0x98 build/lcdc_rgba8888_mxt_9x60_wvga/debug/_ext/1881677221/lodepng.o
                0x23f0fea4                lodepng_color_mode_copy
 .text.lodepng_get_bpp
                0x23f0ff3c       0x1c build/lcdc_rgba8888_mxt_9x60_wvga/debug/_ext/1881677221/lodepng.o
                0x23f0ff3c                lodepng_get_bpp
 .text.lodepng_get_raw_size_idat
                0x23f0ff58       0x34 build/lcdc_rgba8888_mxt_9x60_wvga/debug/_ext/1881677221/lodepng.o
 .text.lodepng_get_raw_size
                0x23f0ff8c       0x38 build/lcdc_rgba8888_mxt_9x60_wvga/debug/_ext/1881677221/lodepng.o
                0x23f0ff8c                lodepng_get_raw_size
 .text.lodepng_add_text
                0x23f0ffc4       0xcc build/lcdc_rgba8888_mxt_9x60_wvga/debug/_ext/1881677221/lodepng.o
                0x23f0ffc4                lodepng_add_text
 .text.lodepng_add_itext
                0x23f10090      0x17c build/lcdc_rgba8888_mxt_9x60_wvga/debug/_ext/1881677221/lodepng.o
                0x23f10090                lodepng_add_itext
 .text.lodepng_info_init
                0x23f1020c       0x74 build/lcdc_rgba8888_mxt_9x60_wvga/debug/_ext/1881677221/lodepng.o
                0x23f1020c                lodepng_info_init
 .text.lodepng_info_cleanup
                0x23f10280       0x3c build/lcdc_rgba8888_mxt_9x60_wvga/debug/_ext/1881677221/lodepng.o
                0x23f10280                lodepng_info_cleanup
 .text.lodepng_convert
                0x23f102bc      0xbb8 build/lcdc_rgba8888_mxt_9x60_wvga/debug/_ext/1881677221/lodepng.o
                0x23f102bc                lodepng_convert
 .text.lodepng_inspect
                0x23f10e74      0x290 build/lcdc_rgba8888_mxt_9x60_wvga/debug/_ext/1881677221/lodepng.o
                0x23f10e74                lodepng_inspect
 .text.lodepng_decode
                0x23f11104     0x1740 build/lcdc_rgba8888_mxt_9x60_wvga/debug/_ext/1881677221/lodepng.o
                0x23f11104                lodepng_decode
 .text.lodepng_decoder_settings_init
                0x23f12844       0x2c build/lcdc_rgba8888_mxt_9x60_wvga/debug/_ext/1881677221/lodepng.o
                0x23f12844                lodepng_decoder_settings_init
 .text.lodepng_state_init
                0x23f12870       0x28 build/lcdc_rgba8888_mxt_9x60_wvga/debug/_ext/1881677221/lodepng.o
                0x23f12870                lodepng_state_init
 .text.lodepng_state_cleanup
                0x23f12898       0x1c build/lcdc_rgba8888_mxt_9x60_wvga/debug/_ext/1881677221/lodepng.o
                0x23f12898                lodepng_state_cleanup
 .text.lodepng_decode_memory
                0x23f128b4       0x68 build/lcdc_rgba8888_mxt_9x60_wvga/debug/_ext/1881677221/lodepng.o
                0x23f128b4                lodepng_decode_memory
 .text.stage_sourceIterateSetup
                0x23f1291c       0xb4 build/lcdc_rgba8888_mxt_9x60_wvga/debug/_ext/1881678756/legato_imagedecoder_raw_setup.o
 .text.stage_targetIterateSetup
                0x23f129d0       0x94 build/lcdc_rgba8888_mxt_9x60_wvga/debug/_ext/1881678756/legato_imagedecoder_raw_setup.o
 .text._leRawImageDecoder_SourceIterateSetupStage
                0x23f12a64       0x38 build/lcdc_rgba8888_mxt_9x60_wvga/debug/_ext/1881678756/legato_imagedecoder_raw_setup.o
                0x23f12a64                _leRawImageDecoder_SourceIterateSetupStage
 .text._leRawImageDecoder_TargetIterateSetupStage
                0x23f12a9c       0x38 build/lcdc_rgba8888_mxt_9x60_wvga/debug/_ext/1881678756/legato_imagedecoder_raw_setup.o
                0x23f12a9c                _leRawImageDecoder_TargetIterateSetupStage
 .text.stage_postRead
                0x23f12ad4       0x14 build/lcdc_rgba8888_mxt_9x60_wvga/debug/_ext/1881678756/legato_imagedecoder_raw_scale.o
 .text.stage_scaledNearestNeighborPreRead
                0x23f12ae8       0xc4 build/lcdc_rgba8888_mxt_9x60_wvga/debug/_ext/1881678756/legato_imagedecoder_raw_scale.o
 .text.stage_bilinearPreRead
                0x23f12bac      0x164 build/lcdc_rgba8888_mxt_9x60_wvga/debug/_ext/1881678756/legato_imagedecoder_raw_scale.o
 .text.stage_scaledBilinearPostRead
                0x23f12d10       0x8c build/lcdc_rgba8888_mxt_9x60_wvga/debug/_ext/1881678756/legato_imagedecoder_raw_scale.o
 .text._leRawImageDecoder_ScaleNearestNeighborPreReadStage
                0x23f12d9c       0x6c build/lcdc_rgba8888_mxt_9x60_wvga/debug/_ext/1881678756/legato_imagedecoder_raw_scale.o
                0x23f12d9c                _leRawImageDecoder_ScaleNearestNeighborPreReadStage
 .text._leRawImageDecoder_ScaleBilinearPreReadStage
                0x23f12e08       0x74 build/lcdc_rgba8888_mxt_9x60_wvga/debug/_ext/1881678756/legato_imagedecoder_raw_scale.o
                0x23f12e08                _leRawImageDecoder_ScaleBilinearPreReadStage
 .text._leRawImageDecoder_PostReadStage
                0x23f12e7c       0x30 build/lcdc_rgba8888_mxt_9x60_wvga/debug/_ext/1881678756/legato_imagedecoder_raw_scale.o
                0x23f12e7c                _leRawImageDecoder_PostReadStage
 .text._leRawImageDecoder_ScaleBilinearPostReadStage
                0x23f12eac       0x30 build/lcdc_rgba8888_mxt_9x60_wvga/debug/_ext/1881678756/legato_imagedecoder_raw_scale.o
                0x23f12eac                _leRawImageDecoder_ScaleBilinearPostReadStage
 .text.stage_rejectMaskedColor
                0x23f12edc       0x24 build/lcdc_rgba8888_mxt_9x60_wvga/debug/_ext/1881678756/legato_imagedecoder_raw_mask.o
 .text._leRawImageDecoder_MaskStage_Internal
                0x23f12f00       0x2c build/lcdc_rgba8888_mxt_9x60_wvga/debug/_ext/1881678756/legato_imagedecoder_raw_mask.o
                0x23f12f00                _leRawImageDecoder_MaskStage_Internal
 .text.stage_convertColor
                0x23f12f2c       0x2c build/lcdc_rgba8888_mxt_9x60_wvga/debug/_ext/1881678756/legato_imagedecoder_raw_convert.o
 .text._leRawImageDecoder_ConvertStage
                0x23f12f58       0x90 build/lcdc_rgba8888_mxt_9x60_wvga/debug/_ext/1881678756/legato_imagedecoder_raw_convert.o
                0x23f12f58                _leRawImageDecoder_ConvertStage
 .text.stage_decode
                0x23f12fe8       0x74 build/lcdc_rgba8888_mxt_9x60_wvga/debug/_ext/1881678756/legato_imagedecoder_raw_read_internal.o
 .text.rleRandomDecode
                0x23f1305c       0x54 build/lcdc_rgba8888_mxt_9x60_wvga/debug/_ext/1881678756/legato_imagedecoder_raw_read_internal.o
 .text.rleSequentialDecode
                0x23f130b0       0x48 build/lcdc_rgba8888_mxt_9x60_wvga/debug/_ext/1881678756/legato_imagedecoder_raw_read_internal.o
 .text.colorDecode
                0x23f130f8       0x34 build/lcdc_rgba8888_mxt_9x60_wvga/debug/_ext/1881678756/legato_imagedecoder_raw_read_internal.o
 .text.indexRLERandomDecode
                0x23f1312c       0x80 build/lcdc_rgba8888_mxt_9x60_wvga/debug/_ext/1881678756/legato_imagedecoder_raw_read_internal.o
 .text.indexRLESequentialDecode
                0x23f131ac       0x74 build/lcdc_rgba8888_mxt_9x60_wvga/debug/_ext/1881678756/legato_imagedecoder_raw_read_internal.o
 .text.indexDecode
                0x23f13220       0x30 build/lcdc_rgba8888_mxt_9x60_wvga/debug/_ext/1881678756/legato_imagedecoder_raw_read_internal.o
 .text._leRawImageDecoder_ReadStage_Internal
                0x23f13250      0x100 build/lcdc_rgba8888_mxt_9x60_wvga/debug/_ext/1881678756/legato_imagedecoder_raw_read_internal.o
                0x23f13250                _leRawImageDecoder_ReadStage_Internal
 .text.stage_FrameBufferWrite
                0x23f13350       0x24 build/lcdc_rgba8888_mxt_9x60_wvga/debug/_ext/1881678756/legato_imagedecoder_raw_write.o
 .text.stage_ImageWrite
                0x23f13374       0x28 build/lcdc_rgba8888_mxt_9x60_wvga/debug/_ext/1881678756/legato_imagedecoder_raw_write.o
 .text._leRawImageDecoder_FrameBufferWriteStage
                0x23f1339c       0x30 build/lcdc_rgba8888_mxt_9x60_wvga/debug/_ext/1881678756/legato_imagedecoder_raw_write.o
                0x23f1339c                _leRawImageDecoder_FrameBufferWriteStage
 .text._leRawImageDecoder_ImageWriteStage
                0x23f133cc       0x30 build/lcdc_rgba8888_mxt_9x60_wvga/debug/_ext/1881678756/legato_imagedecoder_raw_write.o
                0x23f133cc                _leRawImageDecoder_ImageWriteStage
 .text.stage_BlendRGBA5551
                0x23f133fc       0x1c build/lcdc_rgba8888_mxt_9x60_wvga/debug/_ext/1881678756/legato_imagedecoder_raw_blend.o
 .text.stage_BlendARGB8888
                0x23f13418       0x70 build/lcdc_rgba8888_mxt_9x60_wvga/debug/_ext/1881678756/legato_imagedecoder_raw_blend.o
 .text.stage_BlendRGBA8888
                0x23f13488       0x70 build/lcdc_rgba8888_mxt_9x60_wvga/debug/_ext/1881678756/legato_imagedecoder_raw_blend.o
 .text._leRawImageDecoder_BlendStage_Internal
                0x23f134f8       0xa0 build/lcdc_rgba8888_mxt_9x60_wvga/debug/_ext/1881678756/legato_imagedecoder_raw_blend.o
                0x23f134f8                _leRawImageDecoder_BlendStage_Internal
 .text.stage_imageRenderPostLookup
                0x23f13598       0x48 build/lcdc_rgba8888_mxt_9x60_wvga/debug/_ext/1881678756/legato_imagedecoder_raw_palette_internal.o
 .text.stage_lookup
                0x23f135e0       0x40 build/lcdc_rgba8888_mxt_9x60_wvga/debug/_ext/1881678756/legato_imagedecoder_raw_palette_internal.o
 .text._leRawImageDecoder_LookupStage_Internal
                0x23f13620       0x50 build/lcdc_rgba8888_mxt_9x60_wvga/debug/_ext/1881678756/legato_imagedecoder_raw_palette_internal.o
                0x23f13620                _leRawImageDecoder_LookupStage_Internal
 .text._leRawImageDecoder_ImageRenderPostLookupStage
                0x23f13670       0x38 build/lcdc_rgba8888_mxt_9x60_wvga/debug/_ext/1881678756/legato_imagedecoder_raw_palette_internal.o
                0x23f13670                _leRawImageDecoder_ImageRenderPostLookupStage
 .text._supportsImage
                0x23f136a8       0x14 build/lcdc_rgba8888_mxt_9x60_wvga/debug/_ext/1881678756/legato_imagedecoder_raw.o
 .text._decoderCleanup
                0x23f136bc       0x64 build/lcdc_rgba8888_mxt_9x60_wvga/debug/_ext/1881678756/legato_imagedecoder_raw.o
 .text._decoderExec
                0x23f13720       0x84 build/lcdc_rgba8888_mxt_9x60_wvga/debug/_ext/1881678756/legato_imagedecoder_raw.o
 .text._decoderIsDone
                0x23f137a4       0x10 build/lcdc_rgba8888_mxt_9x60_wvga/debug/_ext/1881678756/legato_imagedecoder_raw.o
 .text._initReadStage
                0x23f137b4       0x1c build/lcdc_rgba8888_mxt_9x60_wvga/debug/_ext/1881678756/legato_imagedecoder_raw.o
 .text._initMaskStage
                0x23f137d0       0x24 build/lcdc_rgba8888_mxt_9x60_wvga/debug/_ext/1881678756/legato_imagedecoder_raw.o
 .text._initBlendStage
                0x23f137f4       0x44 build/lcdc_rgba8888_mxt_9x60_wvga/debug/_ext/1881678756/legato_imagedecoder_raw.o
 .text._initConvertStage
                0x23f13838       0x4c build/lcdc_rgba8888_mxt_9x60_wvga/debug/_ext/1881678756/legato_imagedecoder_raw.o
 .text._rotateDraw
                0x23f13884      0x2b0 build/lcdc_rgba8888_mxt_9x60_wvga/debug/_ext/1881678756/legato_imagedecoder_raw.o
 .text._rotate  0x23f13b34      0x2f4 build/lcdc_rgba8888_mxt_9x60_wvga/debug/_ext/1881678756/legato_imagedecoder_raw.o
 .text._resizeDraw
                0x23f13e28      0x294 build/lcdc_rgba8888_mxt_9x60_wvga/debug/_ext/1881678756/legato_imagedecoder_raw.o
 .text._resize  0x23f140bc      0x238 build/lcdc_rgba8888_mxt_9x60_wvga/debug/_ext/1881678756/legato_imagedecoder_raw.o
 .text._copy    0x23f142f4      0x1b8 build/lcdc_rgba8888_mxt_9x60_wvga/debug/_ext/1881678756/legato_imagedecoder_raw.o
 .text._initLookupStage
                0x23f144ac       0x4c build/lcdc_rgba8888_mxt_9x60_wvga/debug/_ext/1881678756/legato_imagedecoder_raw.o
 .text._render  0x23f144f8      0x260 build/lcdc_rgba8888_mxt_9x60_wvga/debug/_ext/1881678756/legato_imagedecoder_raw.o
 .text._draw    0x23f14758      0x2f4 build/lcdc_rgba8888_mxt_9x60_wvga/debug/_ext/1881678756/legato_imagedecoder_raw.o
 .text._leRawImageDecoder_Init
                0x23f14a4c       0xa8 build/lcdc_rgba8888_mxt_9x60_wvga/debug/_ext/1881678756/legato_imagedecoder_raw.o
                0x23f14a4c                _leRawImageDecoder_Init
 .text._leRawImageDecoder_InjectStage
                0x23f14af4       0x38 build/lcdc_rgba8888_mxt_9x60_wvga/debug/_ext/1881678756/legato_imagedecoder_raw.o
                0x23f14af4                _leRawImageDecoder_InjectStage
 .text.stage_rotateNearestNeighborPreRead
                0x23f14b2c      0x120 build/lcdc_rgba8888_mxt_9x60_wvga/debug/_ext/1881678756/legato_imagedecoder_raw_rotate.o
 .text.stage_bilinearPreRead
                0x23f14c4c      0x20c build/lcdc_rgba8888_mxt_9x60_wvga/debug/_ext/1881678756/legato_imagedecoder_raw_rotate.o
 .text.stage_rotateBilinearPostRead
                0x23f14e58       0x60 build/lcdc_rgba8888_mxt_9x60_wvga/debug/_ext/1881678756/legato_imagedecoder_raw_rotate.o
 .text._leRawImageDecoder_RotateNearestNeighborPreReadStage
                0x23f14eb8       0x30 build/lcdc_rgba8888_mxt_9x60_wvga/debug/_ext/1881678756/legato_imagedecoder_raw_rotate.o
                0x23f14eb8                _leRawImageDecoder_RotateNearestNeighborPreReadStage
 .text._leRawImageDecoder_RotateBilinearPreReadStage
                0x23f14ee8       0x38 build/lcdc_rgba8888_mxt_9x60_wvga/debug/_ext/1881678756/legato_imagedecoder_raw_rotate.o
                0x23f14ee8                _leRawImageDecoder_RotateBilinearPreReadStage
 .text._leRawImageDecoder_RotateBilinearPostReadStage
                0x23f14f20       0x30 build/lcdc_rgba8888_mxt_9x60_wvga/debug/_ext/1881678756/legato_imagedecoder_raw_rotate.o
                0x23f14f20                _leRawImageDecoder_RotateBilinearPostReadStage
 .text.getDiscreteValueAtIndex1
                0x23f14f50       0x18 build/lcdc_rgba8888_mxt_9x60_wvga/debug/_ext/927452043/legato_image_utils.o
 .text.getDiscreteValueAtIndex4
                0x23f14f68       0x10 build/lcdc_rgba8888_mxt_9x60_wvga/debug/_ext/927452043/legato_image_utils.o
 .text.getDiscreteValueAtIndex8
                0x23f14f78        0x8 build/lcdc_rgba8888_mxt_9x60_wvga/debug/_ext/927452043/legato_image_utils.o
 .text.calcOffset1bpp
                0x23f14f80        0x8 build/lcdc_rgba8888_mxt_9x60_wvga/debug/_ext/927452043/legato_image_utils.o
 .text.calcOffset4bpp
                0x23f14f88        0x8 build/lcdc_rgba8888_mxt_9x60_wvga/debug/_ext/927452043/legato_image_utils.o
 .text.calcOffset8bpp
                0x23f14f90        0x4 build/lcdc_rgba8888_mxt_9x60_wvga/debug/_ext/927452043/legato_image_utils.o
 .text.calcOffset16bpp
                0x23f14f94        0x8 build/lcdc_rgba8888_mxt_9x60_wvga/debug/_ext/927452043/legato_image_utils.o
 .text.calcOffset24bpp
                0x23f14f9c        0x8 build/lcdc_rgba8888_mxt_9x60_wvga/debug/_ext/927452043/legato_image_utils.o
 .text.calcOffset32bpp
                0x23f14fa4        0x8 build/lcdc_rgba8888_mxt_9x60_wvga/debug/_ext/927452043/legato_image_utils.o
 .text.leGetRLEDataAtIndex
                0x23f14fac       0xd8 build/lcdc_rgba8888_mxt_9x60_wvga/debug/_ext/927452043/legato_image_utils.o
                0x23f14fac                leGetRLEDataAtIndex
 .text.leGetDiscreteValueAtIndex
                0x23f15084       0x18 build/lcdc_rgba8888_mxt_9x60_wvga/debug/_ext/927452043/legato_image_utils.o
                0x23f15084                leGetDiscreteValueAtIndex
 .text.leGetOffsetFromIndexAndBPP
                0x23f1509c       0x18 build/lcdc_rgba8888_mxt_9x60_wvga/debug/_ext/927452043/legato_image_utils.o
                0x23f1509c                leGetOffsetFromIndexAndBPP
 .text.leImage_InitDecoders
                0x23f150b4       0x30 build/lcdc_rgba8888_mxt_9x60_wvga/debug/_ext/927452043/legato_image.o
                0x23f150b4                leImage_InitDecoders
 .text.leImage_Create
                0x23f150e4       0x94 build/lcdc_rgba8888_mxt_9x60_wvga/debug/_ext/927452043/legato_image.o
                0x23f150e4                leImage_Create
 .text.leImage_Allocate
                0x23f15178       0xb4 build/lcdc_rgba8888_mxt_9x60_wvga/debug/_ext/927452043/legato_image.o
                0x23f15178                leImage_Allocate
 .text.leImage_Draw
                0x23f1522c       0xd4 build/lcdc_rgba8888_mxt_9x60_wvga/debug/_ext/927452043/legato_image.o
                0x23f1522c                leImage_Draw
 .text._fixedHeapAlloc
                0x23f15300       0x60 build/lcdc_rgba8888_mxt_9x60_wvga/debug/_ext/1206263599/legato_memory.o
 .text._findFixedHeapForPointer
                0x23f15360       0x5c build/lcdc_rgba8888_mxt_9x60_wvga/debug/_ext/1206263599/legato_memory.o
 .text.leMemory_Init
                0x23f153bc       0xb0 build/lcdc_rgba8888_mxt_9x60_wvga/debug/_ext/1206263599/legato_memory.o
                0x23f153bc                leMemory_Init
 .text.leMalloc
                0x23f1546c       0x28 build/lcdc_rgba8888_mxt_9x60_wvga/debug/_ext/1206263599/legato_memory.o
                0x23f1546c                leMalloc
 .text.leFree   0x23f15494       0x6c build/lcdc_rgba8888_mxt_9x60_wvga/debug/_ext/1206263599/legato_memory.o
                0x23f15494                leFree
 .text.leRealloc
                0x23f15500      0x25c build/lcdc_rgba8888_mxt_9x60_wvga/debug/_ext/1206263599/legato_memory.o
                0x23f15500                leRealloc
 .text.leFixedHeap_Init
                0x23f1575c       0xb0 build/lcdc_rgba8888_mxt_9x60_wvga/debug/_ext/1206263599/legato_fixedheap.o
                0x23f1575c                leFixedHeap_Init
 .text.leFixedHeap_Alloc
                0x23f1580c       0x48 build/lcdc_rgba8888_mxt_9x60_wvga/debug/_ext/1206263599/legato_fixedheap.o
                0x23f1580c                leFixedHeap_Alloc
 .text.leFixedHeap_Free
                0x23f15854       0x1c build/lcdc_rgba8888_mxt_9x60_wvga/debug/_ext/1206263599/legato_fixedheap.o
                0x23f15854                leFixedHeap_Free
 .text.leFixedHeap_Contains
                0x23f15870       0x60 build/lcdc_rgba8888_mxt_9x60_wvga/debug/_ext/1206263599/legato_fixedheap.o
                0x23f15870                leFixedHeap_Contains
 .text._insertIntoList
                0x23f158d0       0x84 build/lcdc_rgba8888_mxt_9x60_wvga/debug/_ext/1206263599/legato_variableheap.o
 .text._removeFromList
                0x23f15954       0x38 build/lcdc_rgba8888_mxt_9x60_wvga/debug/_ext/1206263599/legato_variableheap.o
 .text._findPreviousBlock
                0x23f1598c       0xa0 build/lcdc_rgba8888_mxt_9x60_wvga/debug/_ext/1206263599/legato_variableheap.o
 .text._findNextBlock
                0x23f15a2c       0x74 build/lcdc_rgba8888_mxt_9x60_wvga/debug/_ext/1206263599/legato_variableheap.o
 .text._canSplit
                0x23f15aa0       0x3c build/lcdc_rgba8888_mxt_9x60_wvga/debug/_ext/1206263599/legato_variableheap.o
 .text._combineFreeBlockNext
                0x23f15adc       0x7c build/lcdc_rgba8888_mxt_9x60_wvga/debug/_ext/1206263599/legato_variableheap.o
 .text._growAllocBlock
                0x23f15b58      0x104 build/lcdc_rgba8888_mxt_9x60_wvga/debug/_ext/1206263599/legato_variableheap.o
 .text.leVariableHeap_Init
                0x23f15c5c       0x58 build/lcdc_rgba8888_mxt_9x60_wvga/debug/_ext/1206263599/legato_variableheap.o
                0x23f15c5c                leVariableHeap_Init
 .text.leVariableHeap_Alloc
                0x23f15cb4      0x130 build/lcdc_rgba8888_mxt_9x60_wvga/debug/_ext/1206263599/legato_variableheap.o
                0x23f15cb4                leVariableHeap_Alloc
 .text.leVariableHeap_Free
                0x23f15de4       0xd8 build/lcdc_rgba8888_mxt_9x60_wvga/debug/_ext/1206263599/legato_variableheap.o
                0x23f15de4                leVariableHeap_Free
 .text.leVariableHeap_Realloc
                0x23f15ebc      0x2a0 build/lcdc_rgba8888_mxt_9x60_wvga/debug/_ext/1206263599/legato_variableheap.o
                0x23f15ebc                leVariableHeap_Realloc
 .text.leVariableHeap_Contains
                0x23f1615c       0x20 build/lcdc_rgba8888_mxt_9x60_wvga/debug/_ext/1206263599/legato_variableheap.o
                0x23f1615c                leVariableHeap_Contains
 .text.leVariableHeap_SizeOf
                0x23f1617c        0x8 build/lcdc_rgba8888_mxt_9x60_wvga/debug/_ext/1206263599/legato_variableheap.o
                0x23f1617c                leVariableHeap_SizeOf
 .text.leVariableHeap_Validate
                0x23f16184        0x8 build/lcdc_rgba8888_mxt_9x60_wvga/debug/_ext/1206263599/legato_variableheap.o
                0x23f16184                leVariableHeap_Validate
 .text.leRenderer_RectFill
                0x23f1618c       0x6c build/lcdc_rgba8888_mxt_9x60_wvga/debug/_ext/564048019/legato_draw_rect.o
                0x23f1618c                leRenderer_RectFill
 .text._MonoFill
                0x23f161f8       0x64 build/lcdc_rgba8888_mxt_9x60_wvga/debug/_ext/564048019/legato_draw.o
 .text._MonoPutPixel
                0x23f1625c       0x30 build/lcdc_rgba8888_mxt_9x60_wvga/debug/_ext/564048019/legato_draw.o
 .text._RGBPutPixel
                0x23f1628c       0x2c build/lcdc_rgba8888_mxt_9x60_wvga/debug/_ext/564048019/legato_draw.o
 .text._RGBFill
                0x23f162b8       0x88 build/lcdc_rgba8888_mxt_9x60_wvga/debug/_ext/564048019/legato_draw.o
 .text._RGBBlendPixel
                0x23f16340      0x15c build/lcdc_rgba8888_mxt_9x60_wvga/debug/_ext/564048019/legato_draw.o
 .text.leRenderer_GetPixel
                0x23f1649c       0x40 build/lcdc_rgba8888_mxt_9x60_wvga/debug/_ext/564048019/legato_draw.o
                0x23f1649c                leRenderer_GetPixel
 .text.leRenderer_PutPixel
                0x23f164dc       0x4c build/lcdc_rgba8888_mxt_9x60_wvga/debug/_ext/564048019/legato_draw.o
                0x23f164dc                leRenderer_PutPixel
 .text.leRenderer_BlendPixel
                0x23f16528       0x50 build/lcdc_rgba8888_mxt_9x60_wvga/debug/_ext/564048019/legato_draw.o
                0x23f16528                leRenderer_BlendPixel
 .text.leRenderer_BlendPixel_Safe
                0x23f16578       0x64 build/lcdc_rgba8888_mxt_9x60_wvga/debug/_ext/564048019/legato_draw.o
                0x23f16578                leRenderer_BlendPixel_Safe
 .text._RGBBlendFill
                0x23f165dc      0x140 build/lcdc_rgba8888_mxt_9x60_wvga/debug/_ext/564048019/legato_draw.o
 .text.leRenderer_FillArea
                0x23f1671c       0x30 build/lcdc_rgba8888_mxt_9x60_wvga/debug/_ext/564048019/legato_draw.o
                0x23f1671c                leRenderer_FillArea
 .text._leRenderer_InitDrawForMode
                0x23f1674c       0xa0 build/lcdc_rgba8888_mxt_9x60_wvga/debug/_ext/564048019/legato_draw.o
                0x23f1674c                _leRenderer_InitDrawForMode
 .text.leRenderer_HorzLine
                0x23f167ec       0xe4 build/lcdc_rgba8888_mxt_9x60_wvga/debug/_ext/564048019/legato_draw_line.o
                0x23f167ec                leRenderer_HorzLine
 .text.leRenderer_VertLine
                0x23f168d0       0xe4 build/lcdc_rgba8888_mxt_9x60_wvga/debug/_ext/564048019/legato_draw_line.o
                0x23f168d0                leRenderer_VertLine
 .text.findDirtyWidget
                0x23f169b4       0x90 build/lcdc_rgba8888_mxt_9x60_wvga/debug/_ext/564048019/legato_renderer.o
 .text._nextRect
                0x23f16a44       0x34 build/lcdc_rgba8888_mxt_9x60_wvga/debug/_ext/564048019/legato_renderer.o
 .text.invalidateWidget
                0x23f16a78       0xe0 build/lcdc_rgba8888_mxt_9x60_wvga/debug/_ext/564048019/legato_renderer.o
 .text.addDamageRectToList
                0x23f16b58       0xb8 build/lcdc_rgba8888_mxt_9x60_wvga/debug/_ext/564048019/legato_renderer.o
 .text.leRenderer_IsIdle
                0x23f16c10       0x18 build/lcdc_rgba8888_mxt_9x60_wvga/debug/_ext/564048019/legato_renderer.o
                0x23f16c10                leRenderer_IsIdle
 .text.leGetRenderBuffer
                0x23f16c28       0x28 build/lcdc_rgba8888_mxt_9x60_wvga/debug/_ext/564048019/legato_renderer.o
                0x23f16c28                leGetRenderBuffer
 .text.leRenderer_CurrentColorMode
                0x23f16c50       0x20 build/lcdc_rgba8888_mxt_9x60_wvga/debug/_ext/564048019/legato_renderer.o
                0x23f16c50                leRenderer_CurrentColorMode
 .text.leRenderer_ConvertColor
                0x23f16c70       0x34 build/lcdc_rgba8888_mxt_9x60_wvga/debug/_ext/564048019/legato_renderer.o
                0x23f16c70                leRenderer_ConvertColor
 .text.leRenderer_DisplaySize
                0x23f16ca4       0x40 build/lcdc_rgba8888_mxt_9x60_wvga/debug/_ext/564048019/legato_renderer.o
                0x23f16ca4                leRenderer_DisplaySize
 .text.leRenderer_GetClipRect
                0x23f16ce4       0x18 build/lcdc_rgba8888_mxt_9x60_wvga/debug/_ext/564048019/legato_renderer.o
                0x23f16ce4                leRenderer_GetClipRect
 .text.leRenderer_GetFrameRect
                0x23f16cfc       0x28 build/lcdc_rgba8888_mxt_9x60_wvga/debug/_ext/564048019/legato_renderer.o
                0x23f16cfc                leRenderer_GetFrameRect
 .text.leRenderer_CullDrawRect
                0x23f16d24       0x20 build/lcdc_rgba8888_mxt_9x60_wvga/debug/_ext/564048019/legato_renderer.o
                0x23f16d24                leRenderer_CullDrawRect
 .text.leRenderer_CullDrawXY
                0x23f16d44       0x30 build/lcdc_rgba8888_mxt_9x60_wvga/debug/_ext/564048019/legato_renderer.o
                0x23f16d44                leRenderer_CullDrawXY
 .text.leRenderer_ClipDrawRect
                0x23f16d74       0x18 build/lcdc_rgba8888_mxt_9x60_wvga/debug/_ext/564048019/legato_renderer.o
                0x23f16d74                leRenderer_ClipDrawRect
 .text.leRenderer_Initialize
                0x23f16d8c       0xb8 build/lcdc_rgba8888_mxt_9x60_wvga/debug/_ext/564048019/legato_renderer.o
                0x23f16d8c                leRenderer_Initialize
 .text.leRenderer_DisplayInterface
                0x23f16e44       0x10 build/lcdc_rgba8888_mxt_9x60_wvga/debug/_ext/564048019/legato_renderer.o
                0x23f16e44                leRenderer_DisplayInterface
 .text.leRenderer_GPUInterface
                0x23f16e54       0x10 build/lcdc_rgba8888_mxt_9x60_wvga/debug/_ext/564048019/legato_renderer.o
                0x23f16e54                leRenderer_GPUInterface
 .text.leRenderer_DamageArea
                0x23f16e64       0xa8 build/lcdc_rgba8888_mxt_9x60_wvga/debug/_ext/564048019/legato_renderer.o
                0x23f16e64                leRenderer_DamageArea
 .text.leRenderer_Paint
                0x23f16f0c      0x7b8 build/lcdc_rgba8888_mxt_9x60_wvga/debug/_ext/564048019/legato_renderer.o
                0x23f16f0c                leRenderer_Paint
 .text._leRenderer_CreateLayerState
                0x23f176c4       0x48 build/lcdc_rgba8888_mxt_9x60_wvga/debug/_ext/564048019/legato_renderer.o
                0x23f176c4                _leRenderer_CreateLayerState
 .text.drawQ1   0x23f1770c      0x1d4 build/lcdc_rgba8888_mxt_9x60_wvga/debug/_ext/564048019/legato_draw_arc.o
 .text.drawQ2   0x23f178e0      0x1bc build/lcdc_rgba8888_mxt_9x60_wvga/debug/_ext/564048019/legato_draw_arc.o
 .text.drawQ3   0x23f17a9c      0x1c8 build/lcdc_rgba8888_mxt_9x60_wvga/debug/_ext/564048019/legato_draw_arc.o
 .text.drawQ4   0x23f17c64      0x1dc build/lcdc_rgba8888_mxt_9x60_wvga/debug/_ext/564048019/legato_draw_arc.o
 .text.leRenderer_ArcFill
                0x23f17e40      0x3e0 build/lcdc_rgba8888_mxt_9x60_wvga/debug/_ext/564048019/legato_draw_arc.o
                0x23f17e40                leRenderer_ArcFill
 .text.leRenderer_CircleFill
                0x23f18220       0xc0 build/lcdc_rgba8888_mxt_9x60_wvga/debug/_ext/564048019/legato_draw_arc.o
                0x23f18220                leRenderer_CircleFill
 .text._convertColorMode
                0x23f182e0        0xc build/lcdc_rgba8888_mxt_9x60_wvga/debug/_ext/564048019/legato_gpu.o
 .text.leGPU_DrawLine
                0x23f182ec      0x1e4 build/lcdc_rgba8888_mxt_9x60_wvga/debug/_ext/564048019/legato_gpu.o
                0x23f182ec                leGPU_DrawLine
 .text.leGPU_ClearBuffer
                0x23f184d0       0xa4 build/lcdc_rgba8888_mxt_9x60_wvga/debug/_ext/564048019/legato_gpu.o
                0x23f184d0                leGPU_ClearBuffer
 .text.leGPU_FillRect
                0x23f18574      0x178 build/lcdc_rgba8888_mxt_9x60_wvga/debug/_ext/564048019/legato_gpu.o
                0x23f18574                leGPU_FillRect
 .text.leGPU_BlitBuffer
                0x23f186ec      0x224 build/lcdc_rgba8888_mxt_9x60_wvga/debug/_ext/564048019/legato_gpu.o
                0x23f186ec                leGPU_BlitBuffer
 .text.leGPU_BlitStretchBuffer
                0x23f18910      0x200 build/lcdc_rgba8888_mxt_9x60_wvga/debug/_ext/564048019/legato_gpu.o
                0x23f18910                leGPU_BlitStretchBuffer
 .text.decodeASCII
                0x23f18b10       0x18 build/lcdc_rgba8888_mxt_9x60_wvga/debug/_ext/1020492831/legato_stringutils.o
 .text.decodeUTF8
                0x23f18b28      0x1f8 build/lcdc_rgba8888_mxt_9x60_wvga/debug/_ext/1020492831/legato_stringutils.o
 .text.decodeUTF16
                0x23f18d20       0x80 build/lcdc_rgba8888_mxt_9x60_wvga/debug/_ext/1020492831/legato_stringutils.o
 .text.leDecodeCodePoint
                0x23f18da0       0x2c build/lcdc_rgba8888_mxt_9x60_wvga/debug/_ext/1020492831/legato_stringutils.o
                0x23f18da0                leDecodeCodePoint
 .text.leStringUtils_KerningRect
                0x23f18dcc       0x44 build/lcdc_rgba8888_mxt_9x60_wvga/debug/_ext/1020492831/legato_stringutils.o
                0x23f18dcc                leStringUtils_KerningRect
 .text._leTableString_SetFont
                0x23f18e10        0x8 build/lcdc_rgba8888_mxt_9x60_wvga/debug/_ext/1020492831/legato_tablestring.o
                0x23f18e10                _leTableString_SetFont
 .text._leTableString_SetFromString
                0x23f18e18        0x8 build/lcdc_rgba8888_mxt_9x60_wvga/debug/_ext/1020492831/legato_tablestring.o
                0x23f18e18                _leTableString_SetFromString
 .text._leTableString_SetFromChar
                0x23f18e20        0x8 build/lcdc_rgba8888_mxt_9x60_wvga/debug/_ext/1020492831/legato_tablestring.o
                0x23f18e20                _leTableString_SetFromChar
 .text._leTableString_SetFromCStr
                0x23f18e28        0x8 build/lcdc_rgba8888_mxt_9x60_wvga/debug/_ext/1020492831/legato_tablestring.o
                0x23f18e28                _leTableString_SetFromCStr
 .text._leTableString_Compare
                0x23f18e30       0xb8 build/lcdc_rgba8888_mxt_9x60_wvga/debug/_ext/1020492831/legato_tablestring.o
                0x23f18e30                _leTableString_Compare
 .text._leTableString_Append
                0x23f18ee8        0x8 build/lcdc_rgba8888_mxt_9x60_wvga/debug/_ext/1020492831/legato_tablestring.o
                0x23f18ee8                _leTableString_Append
 .text._leTableString_Insert
                0x23f18ef0        0x8 build/lcdc_rgba8888_mxt_9x60_wvga/debug/_ext/1020492831/legato_tablestring.o
                0x23f18ef0                _leTableString_Insert
 .text._leTableString_Remove
                0x23f18ef8        0x8 build/lcdc_rgba8888_mxt_9x60_wvga/debug/_ext/1020492831/legato_tablestring.o
                0x23f18ef8                _leTableString_Remove
 .text._leTableString_Clear
                0x23f18f00        0x4 build/lcdc_rgba8888_mxt_9x60_wvga/debug/_ext/1020492831/legato_tablestring.o
                0x23f18f00                _leTableString_Clear
 .text._leTableString_GetID
                0x23f18f04        0x8 build/lcdc_rgba8888_mxt_9x60_wvga/debug/_ext/1020492831/legato_tablestring.o
                0x23f18f04                _leTableString_GetID
 .text._leTableString_SetID
                0x23f18f0c       0x34 build/lcdc_rgba8888_mxt_9x60_wvga/debug/_ext/1020492831/legato_tablestring.o
                0x23f18f0c                _leTableString_SetID
 .text._leTableString_Destructor
                0x23f18f40       0x14 build/lcdc_rgba8888_mxt_9x60_wvga/debug/_ext/1020492831/legato_tablestring.o
                0x23f18f40                _leTableString_Destructor
 .text._leTableString_GetFont
                0x23f18f54       0x2c build/lcdc_rgba8888_mxt_9x60_wvga/debug/_ext/1020492831/legato_tablestring.o
                0x23f18f54                _leTableString_GetFont
 .text._leTableString_Length
                0x23f18f80       0x78 build/lcdc_rgba8888_mxt_9x60_wvga/debug/_ext/1020492831/legato_tablestring.o
                0x23f18f80                _leTableString_Length
 .text._leTableString_IsEmpty
                0x23f18ff8       0x14 build/lcdc_rgba8888_mxt_9x60_wvga/debug/_ext/1020492831/legato_tablestring.o
                0x23f18ff8                _leTableString_IsEmpty
 .text._leTableString_CharAt
                0x23f1900c       0xf8 build/lcdc_rgba8888_mxt_9x60_wvga/debug/_ext/1020492831/legato_tablestring.o
                0x23f1900c                _leTableString_CharAt
 .text.leTableString_Constructor
                0x23f19104       0x28 build/lcdc_rgba8888_mxt_9x60_wvga/debug/_ext/1020492831/legato_tablestring.o
                0x23f19104                leTableString_Constructor
 .text.leStringTable_GetStringOffset
                0x23f1912c       0x64 build/lcdc_rgba8888_mxt_9x60_wvga/debug/_ext/1020492831/legato_stringtable.o
                0x23f1912c                leStringTable_GetStringOffset
 .text.leStringTable_GetStringFont
                0x23f19190       0x60 build/lcdc_rgba8888_mxt_9x60_wvga/debug/_ext/1020492831/legato_stringtable.o
                0x23f19190                leStringTable_GetStringFont
 .text.leStringTable_StringLookup
                0x23f191f0       0x60 build/lcdc_rgba8888_mxt_9x60_wvga/debug/_ext/1020492831/legato_stringtable.o
                0x23f191f0                leStringTable_StringLookup
 .text.leStringTable_GetStringLength
                0x23f19250       0x84 build/lcdc_rgba8888_mxt_9x60_wvga/debug/_ext/1020492831/legato_stringtable.o
                0x23f19250                leStringTable_GetStringLength
 .text._leFixedString_GetFont
                0x23f192d4        0x8 build/lcdc_rgba8888_mxt_9x60_wvga/debug/_ext/1020492831/legato_fixedstring.o
                0x23f192d4                _leFixedString_GetFont
 .text._leFixedString_SetFont
                0x23f192dc       0x34 build/lcdc_rgba8888_mxt_9x60_wvga/debug/_ext/1020492831/legato_fixedstring.o
                0x23f192dc                _leFixedString_SetFont
 .text._leFixedString_SetFromString
                0x23f19310       0xc8 build/lcdc_rgba8888_mxt_9x60_wvga/debug/_ext/1020492831/legato_fixedstring.o
                0x23f19310                _leFixedString_SetFromString
 .text._leFixedString_SetFromChar
                0x23f193d8       0xa0 build/lcdc_rgba8888_mxt_9x60_wvga/debug/_ext/1020492831/legato_fixedstring.o
                0x23f193d8                _leFixedString_SetFromChar
 .text._leFixedString_Length
                0x23f19478        0x8 build/lcdc_rgba8888_mxt_9x60_wvga/debug/_ext/1020492831/legato_fixedstring.o
                0x23f19478                _leFixedString_Length
 .text._leFixedString_IsEmpty
                0x23f19480       0x10 build/lcdc_rgba8888_mxt_9x60_wvga/debug/_ext/1020492831/legato_fixedstring.o
                0x23f19480                _leFixedString_IsEmpty
 .text._leFixedString_CharAt
                0x23f19490       0x1c build/lcdc_rgba8888_mxt_9x60_wvga/debug/_ext/1020492831/legato_fixedstring.o
                0x23f19490                _leFixedString_CharAt
 .text._leFixedString_Compare
                0x23f194ac       0xb0 build/lcdc_rgba8888_mxt_9x60_wvga/debug/_ext/1020492831/legato_fixedstring.o
                0x23f194ac                _leFixedString_Compare
 .text._leFixedString_Append
                0x23f1955c       0xdc build/lcdc_rgba8888_mxt_9x60_wvga/debug/_ext/1020492831/legato_fixedstring.o
                0x23f1955c                _leFixedString_Append
 .text._leFixedString_Insert
                0x23f19638      0x180 build/lcdc_rgba8888_mxt_9x60_wvga/debug/_ext/1020492831/legato_fixedstring.o
                0x23f19638                _leFixedString_Insert
 .text._leFixedString_Remove
                0x23f197b8       0xd4 build/lcdc_rgba8888_mxt_9x60_wvga/debug/_ext/1020492831/legato_fixedstring.o
                0x23f197b8                _leFixedString_Remove
 .text._leFixedString_Clear
                0x23f1988c       0x30 build/lcdc_rgba8888_mxt_9x60_wvga/debug/_ext/1020492831/legato_fixedstring.o
                0x23f1988c                _leFixedString_Clear
 .text._leFixedString_Destructor
                0x23f198bc       0x20 build/lcdc_rgba8888_mxt_9x60_wvga/debug/_ext/1020492831/legato_fixedstring.o
                0x23f198bc                _leFixedString_Destructor
 .text._leFixedString_SetFromCStr
                0x23f198dc       0xa8 build/lcdc_rgba8888_mxt_9x60_wvga/debug/_ext/1020492831/legato_fixedstring.o
                0x23f198dc                _leFixedString_SetFromCStr
 .text._leFixedString_ToChar
                0x23f19984       0x50 build/lcdc_rgba8888_mxt_9x60_wvga/debug/_ext/1020492831/legato_fixedstring.o
                0x23f19984                _leFixedString_ToChar
 .text.leFixedString_Constructor
                0x23f199d4       0x40 build/lcdc_rgba8888_mxt_9x60_wvga/debug/_ext/1020492831/legato_fixedstring.o
                0x23f199d4                leFixedString_Constructor
 .text.leStringRenderer_DrawString
                0x23f19a14      0x290 build/lcdc_rgba8888_mxt_9x60_wvga/debug/_ext/1020492831/legato_string_renderer.o
                0x23f19a14                leStringRenderer_DrawString
 .text._leString_Constructor
                0x23f19ca4       0x18 build/lcdc_rgba8888_mxt_9x60_wvga/debug/_ext/1020492831/legato_string.o
                0x23f19ca4                _leString_Constructor
 .text._leString_Destructor
                0x23f19cbc        0x4 build/lcdc_rgba8888_mxt_9x60_wvga/debug/_ext/1020492831/legato_string.o
                0x23f19cbc                _leString_Destructor
 .text._leString_GetRect
                0x23f19cc0       0xd8 build/lcdc_rgba8888_mxt_9x60_wvga/debug/_ext/1020492831/legato_string.o
                0x23f19cc0                _leString_GetRect
 .text._leString_GetLineCount
                0x23f19d98       0x58 build/lcdc_rgba8888_mxt_9x60_wvga/debug/_ext/1020492831/legato_string.o
                0x23f19d98                _leString_GetLineCount
 .text._leString_GetLineIndices
                0x23f19df0       0xbc build/lcdc_rgba8888_mxt_9x60_wvga/debug/_ext/1020492831/legato_string.o
                0x23f19df0                _leString_GetLineIndices
 .text._leString_GetLineRect
                0x23f19eac      0x118 build/lcdc_rgba8888_mxt_9x60_wvga/debug/_ext/1020492831/legato_string.o
                0x23f19eac                _leString_GetLineRect
 .text._leString_GetCharRect
                0x23f19fc4      0x118 build/lcdc_rgba8888_mxt_9x60_wvga/debug/_ext/1020492831/legato_string.o
                0x23f19fc4                _leString_GetCharRect
 .text._leString_GetCharIndexAtPoint
                0x23f1a0dc      0x128 build/lcdc_rgba8888_mxt_9x60_wvga/debug/_ext/1020492831/legato_string.o
                0x23f1a0dc                _leString_GetCharIndexAtPoint
 .text._leString_Draw
                0x23f1a204       0x40 build/lcdc_rgba8888_mxt_9x60_wvga/debug/_ext/1020492831/legato_string.o
                0x23f1a204                _leString_Draw
 .text._leString_PreInvalidate
                0x23f1a244       0x1c build/lcdc_rgba8888_mxt_9x60_wvga/debug/_ext/1020492831/legato_string.o
                0x23f1a244                _leString_PreInvalidate
 .text._leString_Invalidate
                0x23f1a260       0x1c build/lcdc_rgba8888_mxt_9x60_wvga/debug/_ext/1020492831/legato_string.o
                0x23f1a260                _leString_Invalidate
 .text._leString_SetPreInvalidateCallback
                0x23f1a27c       0x18 build/lcdc_rgba8888_mxt_9x60_wvga/debug/_ext/1020492831/legato_string.o
                0x23f1a27c                _leString_SetPreInvalidateCallback
 .text._leString_SetInvalidateCallback
                0x23f1a294       0x18 build/lcdc_rgba8888_mxt_9x60_wvga/debug/_ext/1020492831/legato_string.o
                0x23f1a294                _leString_SetInvalidateCallback
 .text.getToggleable
                0x23f1a2ac        0x8 build/lcdc_rgba8888_mxt_9x60_wvga/debug/_ext/424260723/legato_widget_button.o
 .text.setToggleable
                0x23f1a2b4       0x14 build/lcdc_rgba8888_mxt_9x60_wvga/debug/_ext/424260723/legato_widget_button.o
 .text.getPressed
                0x23f1a2c8       0x18 build/lcdc_rgba8888_mxt_9x60_wvga/debug/_ext/424260723/legato_widget_button.o
 .text.setPressed
                0x23f1a2e0      0x110 build/lcdc_rgba8888_mxt_9x60_wvga/debug/_ext/424260723/legato_widget_button.o
 .text.getString
                0x23f1a3f0        0x8 build/lcdc_rgba8888_mxt_9x60_wvga/debug/_ext/424260723/legato_widget_button.o
 .text.setString
                0x23f1a3f8       0xa0 build/lcdc_rgba8888_mxt_9x60_wvga/debug/_ext/424260723/legato_widget_button.o
 .text.getPressedImage
                0x23f1a498        0x8 build/lcdc_rgba8888_mxt_9x60_wvga/debug/_ext/424260723/legato_widget_button.o
 .text.setPressedImage
                0x23f1a4a0       0x1c build/lcdc_rgba8888_mxt_9x60_wvga/debug/_ext/424260723/legato_widget_button.o
 .text.getReleasedImage
                0x23f1a4bc        0x8 build/lcdc_rgba8888_mxt_9x60_wvga/debug/_ext/424260723/legato_widget_button.o
 .text.setReleasedImage
                0x23f1a4c4       0x1c build/lcdc_rgba8888_mxt_9x60_wvga/debug/_ext/424260723/legato_widget_button.o
 .text.getImagePosition
                0x23f1a4e0        0x8 build/lcdc_rgba8888_mxt_9x60_wvga/debug/_ext/424260723/legato_widget_button.o
 .text.setImagePosition
                0x23f1a4e8       0x48 build/lcdc_rgba8888_mxt_9x60_wvga/debug/_ext/424260723/legato_widget_button.o
 .text.getImageMargin
                0x23f1a530        0x8 build/lcdc_rgba8888_mxt_9x60_wvga/debug/_ext/424260723/legato_widget_button.o
 .text.setImageMargin
                0x23f1a538       0x48 build/lcdc_rgba8888_mxt_9x60_wvga/debug/_ext/424260723/legato_widget_button.o
 .text.getPressedOffset
                0x23f1a580        0x8 build/lcdc_rgba8888_mxt_9x60_wvga/debug/_ext/424260723/legato_widget_button.o
 .text.setPressedOffset
                0x23f1a588       0x60 build/lcdc_rgba8888_mxt_9x60_wvga/debug/_ext/424260723/legato_widget_button.o
 .text.getPressedEventCallback
                0x23f1a5e8        0x8 build/lcdc_rgba8888_mxt_9x60_wvga/debug/_ext/424260723/legato_widget_button.o
 .text.setPressedEventCallback
                0x23f1a5f0        0xc build/lcdc_rgba8888_mxt_9x60_wvga/debug/_ext/424260723/legato_widget_button.o
 .text.getReleasedEventCallback
                0x23f1a5fc        0x8 build/lcdc_rgba8888_mxt_9x60_wvga/debug/_ext/424260723/legato_widget_button.o
 .text.setReleasedEventCallback
                0x23f1a604        0xc build/lcdc_rgba8888_mxt_9x60_wvga/debug/_ext/424260723/legato_widget_button.o
 .text.languageChanging
                0x23f1a610       0x20 build/lcdc_rgba8888_mxt_9x60_wvga/debug/_ext/424260723/legato_widget_button.o
 .text.invalidateTextRect
                0x23f1a630       0x34 build/lcdc_rgba8888_mxt_9x60_wvga/debug/_ext/424260723/legato_widget_button.o
 .text.stringInvalidate
                0x23f1a664       0x10 build/lcdc_rgba8888_mxt_9x60_wvga/debug/_ext/424260723/legato_widget_button.o
 .text.stringPreinvalidate
                0x23f1a674       0x10 build/lcdc_rgba8888_mxt_9x60_wvga/debug/_ext/424260723/legato_widget_button.o
 .text.touchDown
                0x23f1a684       0xac build/lcdc_rgba8888_mxt_9x60_wvga/debug/_ext/424260723/legato_widget_button.o
 .text.touchMoved
                0x23f1a730      0x168 build/lcdc_rgba8888_mxt_9x60_wvga/debug/_ext/424260723/legato_widget_button.o
 .text.touchUp  0x23f1a898      0x158 build/lcdc_rgba8888_mxt_9x60_wvga/debug/_ext/424260723/legato_widget_button.o
 .text.invalidateContents
                0x23f1a9f0       0x8c build/lcdc_rgba8888_mxt_9x60_wvga/debug/_ext/424260723/legato_widget_button.o
 .text._leButtonWidget_Destructor
                0x23f1aa7c       0x1c build/lcdc_rgba8888_mxt_9x60_wvga/debug/_ext/424260723/legato_widget_button.o
                0x23f1aa7c                _leButtonWidget_Destructor
 .text.leButtonWidget_Constructor
                0x23f1aa98       0x70 build/lcdc_rgba8888_mxt_9x60_wvga/debug/_ext/424260723/legato_widget_button.o
                0x23f1aa98                leButtonWidget_Constructor
 .text.leButtonWidget_New
                0x23f1ab08       0x24 build/lcdc_rgba8888_mxt_9x60_wvga/debug/_ext/424260723/legato_widget_button.o
                0x23f1ab08                leButtonWidget_New
 .text.nextState
                0x23f1ab2c      0x140 build/lcdc_rgba8888_mxt_9x60_wvga/debug/_ext/424260723/legato_widget_button_skin_classic.o
 .text.drawBorder
                0x23f1ac6c       0x68 build/lcdc_rgba8888_mxt_9x60_wvga/debug/_ext/424260723/legato_widget_button_skin_classic.o
 .text.drawBackground
                0x23f1acd4       0x54 build/lcdc_rgba8888_mxt_9x60_wvga/debug/_ext/424260723/legato_widget_button_skin_classic.o
 .text._leButtonWidget_GetImageRect
                0x23f1ad28      0x160 build/lcdc_rgba8888_mxt_9x60_wvga/debug/_ext/424260723/legato_widget_button_skin_classic.o
                0x23f1ad28                _leButtonWidget_GetImageRect
 .text.drawImage
                0x23f1ae88       0x5c build/lcdc_rgba8888_mxt_9x60_wvga/debug/_ext/424260723/legato_widget_button_skin_classic.o
 .text._leButtonWidget_GetTextRects
                0x23f1aee4      0x184 build/lcdc_rgba8888_mxt_9x60_wvga/debug/_ext/424260723/legato_widget_button_skin_classic.o
                0x23f1aee4                _leButtonWidget_GetTextRects
 .text.drawString
                0x23f1b068       0xa0 build/lcdc_rgba8888_mxt_9x60_wvga/debug/_ext/424260723/legato_widget_button_skin_classic.o
 .text._leButtonWidget_InvalidateBorderAreas
                0x23f1b108      0x1a4 build/lcdc_rgba8888_mxt_9x60_wvga/debug/_ext/424260723/legato_widget_button_skin_classic.o
                0x23f1b108                _leButtonWidget_InvalidateBorderAreas
 .text._leButtonWidget_Paint
                0x23f1b2ac       0x44 build/lcdc_rgba8888_mxt_9x60_wvga/debug/_ext/424260723/legato_widget_button_skin_classic.o
                0x23f1b2ac                _leButtonWidget_Paint
 .text._leImageWidget_GetImage
                0x23f1b2f0        0x8 build/lcdc_rgba8888_mxt_9x60_wvga/debug/_ext/1808593504/legato_widget_image.o
                0x23f1b2f0                _leImageWidget_GetImage
 .text.invalidateImageRect
                0x23f1b2f8       0x64 build/lcdc_rgba8888_mxt_9x60_wvga/debug/_ext/1808593504/legato_widget_image.o
 .text.invalidateContents
                0x23f1b35c       0x18 build/lcdc_rgba8888_mxt_9x60_wvga/debug/_ext/1808593504/legato_widget_image.o
 .text._leImageWidget_SetImage
                0x23f1b374       0x48 build/lcdc_rgba8888_mxt_9x60_wvga/debug/_ext/1808593504/legato_widget_image.o
                0x23f1b374                _leImageWidget_SetImage
 .text._leImageWidget_Destructor
                0x23f1b3bc        0xc build/lcdc_rgba8888_mxt_9x60_wvga/debug/_ext/1808593504/legato_widget_image.o
                0x23f1b3bc                _leImageWidget_Destructor
 .text._leImageWidget_Constructor
                0x23f1b3c8       0x48 build/lcdc_rgba8888_mxt_9x60_wvga/debug/_ext/1808593504/legato_widget_image.o
                0x23f1b3c8                _leImageWidget_Constructor
 .text.leImageWidget_New
                0x23f1b410       0x24 build/lcdc_rgba8888_mxt_9x60_wvga/debug/_ext/1808593504/legato_widget_image.o
                0x23f1b410                leImageWidget_New
 .text.nextState
                0x23f1b434       0xec build/lcdc_rgba8888_mxt_9x60_wvga/debug/_ext/1808593504/legato_widget_image_skin_classic.o
 .text.drawBorder
                0x23f1b520       0x4c build/lcdc_rgba8888_mxt_9x60_wvga/debug/_ext/1808593504/legato_widget_image_skin_classic.o
 .text.drawBackground
                0x23f1b56c       0x24 build/lcdc_rgba8888_mxt_9x60_wvga/debug/_ext/1808593504/legato_widget_image_skin_classic.o
 .text._leImageWidget_GetImageRect
                0x23f1b590       0xb4 build/lcdc_rgba8888_mxt_9x60_wvga/debug/_ext/1808593504/legato_widget_image_skin_classic.o
                0x23f1b590                _leImageWidget_GetImageRect
 .text.drawImage
                0x23f1b644       0x74 build/lcdc_rgba8888_mxt_9x60_wvga/debug/_ext/1808593504/legato_widget_image_skin_classic.o
 .text._leImageWidget_Paint
                0x23f1b6b8       0x44 build/lcdc_rgba8888_mxt_9x60_wvga/debug/_ext/1808593504/legato_widget_image_skin_classic.o
                0x23f1b6b8                _leImageWidget_Paint
 .text.nextState
                0x23f1b6fc      0x100 build/lcdc_rgba8888_mxt_9x60_wvga/debug/_ext/1806179527/legato_widget_label_skin_classic.o
 .text.drawBorder
                0x23f1b7fc       0x4c build/lcdc_rgba8888_mxt_9x60_wvga/debug/_ext/1806179527/legato_widget_label_skin_classic.o
 .text.drawBackground
                0x23f1b848       0x24 build/lcdc_rgba8888_mxt_9x60_wvga/debug/_ext/1806179527/legato_widget_label_skin_classic.o
 .text._leLabelWidget_GetTextRects
                0x23f1b86c      0x110 build/lcdc_rgba8888_mxt_9x60_wvga/debug/_ext/1806179527/legato_widget_label_skin_classic.o
                0x23f1b86c                _leLabelWidget_GetTextRects
 .text.drawString
                0x23f1b97c       0x98 build/lcdc_rgba8888_mxt_9x60_wvga/debug/_ext/1806179527/legato_widget_label_skin_classic.o
 .text._leLabelWidget_Paint
                0x23f1ba14       0x44 build/lcdc_rgba8888_mxt_9x60_wvga/debug/_ext/1806179527/legato_widget_label_skin_classic.o
                0x23f1ba14                _leLabelWidget_Paint
 .text.handleLanguageChangeEvent
                0x23f1ba58       0x20 build/lcdc_rgba8888_mxt_9x60_wvga/debug/_ext/1806179527/legato_widget_label.o
 .text.getString
                0x23f1ba78        0x8 build/lcdc_rgba8888_mxt_9x60_wvga/debug/_ext/1806179527/legato_widget_label.o
 .text._leLabelWidget_Destructor
                0x23f1ba80       0x14 build/lcdc_rgba8888_mxt_9x60_wvga/debug/_ext/1806179527/legato_widget_label.o
 .text.invalidateContents
                0x23f1ba94       0x40 build/lcdc_rgba8888_mxt_9x60_wvga/debug/_ext/1806179527/legato_widget_label.o
 .text.setString
                0x23f1bad4       0xb0 build/lcdc_rgba8888_mxt_9x60_wvga/debug/_ext/1806179527/legato_widget_label.o
 .text.stringInvalidate
                0x23f1bb84       0x10 build/lcdc_rgba8888_mxt_9x60_wvga/debug/_ext/1806179527/legato_widget_label.o
 .text.stringPreinvalidate
                0x23f1bb94       0x10 build/lcdc_rgba8888_mxt_9x60_wvga/debug/_ext/1806179527/legato_widget_label.o
 .text.leLabelWidget_Constructor
                0x23f1bba4       0x48 build/lcdc_rgba8888_mxt_9x60_wvga/debug/_ext/1806179527/legato_widget_label.o
                0x23f1bba4                leLabelWidget_Constructor
 .text.leLabelWidget_New
                0x23f1bbec       0x1c build/lcdc_rgba8888_mxt_9x60_wvga/debug/_ext/1806179527/legato_widget_label.o
                0x23f1bbec                leLabelWidget_New
 .text.nextState
                0x23f1bc08       0xec build/lcdc_rgba8888_mxt_9x60_wvga/debug/_ext/2047371060/legato_widget_rectangle_skin_classic.o
 .text.drawBorder
                0x23f1bcf4       0x4c build/lcdc_rgba8888_mxt_9x60_wvga/debug/_ext/2047371060/legato_widget_rectangle_skin_classic.o
 .text.drawEdge
                0x23f1bd40      0x14c build/lcdc_rgba8888_mxt_9x60_wvga/debug/_ext/2047371060/legato_widget_rectangle_skin_classic.o
 .text.drawBackground
                0x23f1be8c       0x24 build/lcdc_rgba8888_mxt_9x60_wvga/debug/_ext/2047371060/legato_widget_rectangle_skin_classic.o
 .text._leRectangleWidget_InvalidateRect
                0x23f1beb0      0x130 build/lcdc_rgba8888_mxt_9x60_wvga/debug/_ext/2047371060/legato_widget_rectangle_skin_classic.o
                0x23f1beb0                _leRectangleWidget_InvalidateRect
 .text._leRectangleWidget_Paint
                0x23f1bfe0       0x44 build/lcdc_rgba8888_mxt_9x60_wvga/debug/_ext/2047371060/legato_widget_rectangle_skin_classic.o
                0x23f1bfe0                _leRectangleWidget_Paint
 .text._leRectangleWidget_GetThickness
                0x23f1c024        0x8 build/lcdc_rgba8888_mxt_9x60_wvga/debug/_ext/2047371060/legato_widget_rectangle.o
 .text._leRectangleWidget_SetThickness
                0x23f1c02c       0x44 build/lcdc_rgba8888_mxt_9x60_wvga/debug/_ext/2047371060/legato_widget_rectangle.o
 .text._leRectangleWidget_Destructor
                0x23f1c070        0xc build/lcdc_rgba8888_mxt_9x60_wvga/debug/_ext/2047371060/legato_widget_rectangle.o
 .text.leRectangleWidget_Constructor
                0x23f1c07c       0x4c build/lcdc_rgba8888_mxt_9x60_wvga/debug/_ext/2047371060/legato_widget_rectangle.o
                0x23f1c07c                leRectangleWidget_Constructor
 .text.leRectangleWidget_New
                0x23f1c0c8       0x24 build/lcdc_rgba8888_mxt_9x60_wvga/debug/_ext/2047371060/legato_widget_rectangle.o
                0x23f1c0c8                leRectangleWidget_New
 .text.drawBorder
                0x23f1c0ec       0x54 build/lcdc_rgba8888_mxt_9x60_wvga/debug/_ext/916554220/legato_widget_skin_classic.o
 .text.drawBackground
                0x23f1c140       0xb8 build/lcdc_rgba8888_mxt_9x60_wvga/debug/_ext/916554220/legato_widget_skin_classic.o
 .text._leWidget_Paint
                0x23f1c1f8       0x7c build/lcdc_rgba8888_mxt_9x60_wvga/debug/_ext/916554220/legato_widget_skin_classic.o
                0x23f1c1f8                _leWidget_Paint
 .text.leWidget_SkinClassic_FillRoundCornerRect
                0x23f1c274      0x2b4 build/lcdc_rgba8888_mxt_9x60_wvga/debug/_ext/916554220/legato_widget_skin_classic_common.o
                0x23f1c274                leWidget_SkinClassic_FillRoundCornerRect
 .text.leWidget_SkinClassic_DrawBackground
                0x23f1c528       0x68 build/lcdc_rgba8888_mxt_9x60_wvga/debug/_ext/916554220/legato_widget_skin_classic_common.o
                0x23f1c528                leWidget_SkinClassic_DrawBackground
 .text.leWidget_SkinClassic_DrawRoundCornerBackground
                0x23f1c590       0x40 build/lcdc_rgba8888_mxt_9x60_wvga/debug/_ext/916554220/legato_widget_skin_classic_common.o
                0x23f1c590                leWidget_SkinClassic_DrawRoundCornerBackground
 .text.leWidget_SkinClassic_DrawStandardBackground
                0x23f1c5d0       0x38 build/lcdc_rgba8888_mxt_9x60_wvga/debug/_ext/916554220/legato_widget_skin_classic_common.o
                0x23f1c5d0                leWidget_SkinClassic_DrawStandardBackground
 .text.leWidget_SkinClassic_DrawRoundCornerLineBorder
                0x23f1c608      0x250 build/lcdc_rgba8888_mxt_9x60_wvga/debug/_ext/916554220/legato_widget_skin_classic_common.o
                0x23f1c608                leWidget_SkinClassic_DrawRoundCornerLineBorder
 .text.leWidget_SkinClassic_DrawLineBorder
                0x23f1c858       0xa4 build/lcdc_rgba8888_mxt_9x60_wvga/debug/_ext/916554220/legato_widget_skin_classic_common.o
                0x23f1c858                leWidget_SkinClassic_DrawLineBorder
 .text.leWidget_SkinClassic_Draw2x2BeveledBorder
                0x23f1c8fc      0x150 build/lcdc_rgba8888_mxt_9x60_wvga/debug/_ext/916554220/legato_widget_skin_classic_common.o
                0x23f1c8fc                leWidget_SkinClassic_Draw2x2BeveledBorder
 .text.leWidget_SkinClassic_Draw1x2BeveledBorder
                0x23f1ca4c      0x104 build/lcdc_rgba8888_mxt_9x60_wvga/debug/_ext/916554220/legato_widget_skin_classic_common.o
                0x23f1ca4c                leWidget_SkinClassic_Draw1x2BeveledBorder
 .text.leWidget_SkinClassic_DrawStandardLineBorder
                0x23f1cb50       0x74 build/lcdc_rgba8888_mxt_9x60_wvga/debug/_ext/916554220/legato_widget_skin_classic_common.o
                0x23f1cb50                leWidget_SkinClassic_DrawStandardLineBorder
 .text.leWidget_SkinClassic_DrawStandardRaisedBorder
                0x23f1cbc4       0x80 build/lcdc_rgba8888_mxt_9x60_wvga/debug/_ext/916554220/legato_widget_skin_classic_common.o
                0x23f1cbc4                leWidget_SkinClassic_DrawStandardRaisedBorder
 .text.leWidget_SkinClassic_DrawStandardLoweredBorder
                0x23f1cc44       0x80 build/lcdc_rgba8888_mxt_9x60_wvga/debug/_ext/916554220/legato_widget_skin_classic_common.o
                0x23f1cc44                leWidget_SkinClassic_DrawStandardLoweredBorder
 .text.leWidget_SkinClassic_DrawStandardHybridBorder
                0x23f1ccc4       0x6c build/lcdc_rgba8888_mxt_9x60_wvga/debug/_ext/916554220/legato_widget_skin_classic_common.o
                0x23f1ccc4                leWidget_SkinClassic_DrawStandardHybridBorder
 .text.leWidget_SkinClassic_InvalidateBorderAreas
                0x23f1cd30      0x1a0 build/lcdc_rgba8888_mxt_9x60_wvga/debug/_ext/916554220/legato_widget_skin_classic_common.o
                0x23f1cd30                leWidget_SkinClassic_InvalidateBorderAreas
 .text._leWidget_GetType
                0x23f1ced0        0x8 build/lcdc_rgba8888_mxt_9x60_wvga/debug/_ext/916554220/legato_widget.o
                0x23f1ced0                _leWidget_GetType
 .text._leWidget_GetX
                0x23f1ced8        0x8 build/lcdc_rgba8888_mxt_9x60_wvga/debug/_ext/916554220/legato_widget.o
                0x23f1ced8                _leWidget_GetX
 .text._leWidget_SetX
                0x23f1cee0       0x80 build/lcdc_rgba8888_mxt_9x60_wvga/debug/_ext/916554220/legato_widget.o
                0x23f1cee0                _leWidget_SetX
 .text._leWidget_GetY
                0x23f1cf60        0x8 build/lcdc_rgba8888_mxt_9x60_wvga/debug/_ext/916554220/legato_widget.o
                0x23f1cf60                _leWidget_GetY
 .text._leWidget_SetY
                0x23f1cf68       0x80 build/lcdc_rgba8888_mxt_9x60_wvga/debug/_ext/916554220/legato_widget.o
                0x23f1cf68                _leWidget_SetY
 .text._leWidget_SetPosition
                0x23f1cfe8       0xd0 build/lcdc_rgba8888_mxt_9x60_wvga/debug/_ext/916554220/legato_widget.o
                0x23f1cfe8                _leWidget_SetPosition
 .text._leWidget_Translate
                0x23f1d0b8       0xcc build/lcdc_rgba8888_mxt_9x60_wvga/debug/_ext/916554220/legato_widget.o
                0x23f1d0b8                _leWidget_Translate
 .text._leWidget_GetWidth
                0x23f1d184        0x8 build/lcdc_rgba8888_mxt_9x60_wvga/debug/_ext/916554220/legato_widget.o
                0x23f1d184                _leWidget_GetWidth
 .text._leWidget_SetWidth
                0x23f1d18c       0xb8 build/lcdc_rgba8888_mxt_9x60_wvga/debug/_ext/916554220/legato_widget.o
                0x23f1d18c                _leWidget_SetWidth
 .text._leWidget_GetHeight
                0x23f1d244        0x8 build/lcdc_rgba8888_mxt_9x60_wvga/debug/_ext/916554220/legato_widget.o
                0x23f1d244                _leWidget_GetHeight
 .text._leWidget_SetHeight
                0x23f1d24c       0xb8 build/lcdc_rgba8888_mxt_9x60_wvga/debug/_ext/916554220/legato_widget.o
                0x23f1d24c                _leWidget_SetHeight
 .text._leWidget_SetSize
                0x23f1d304       0xe8 build/lcdc_rgba8888_mxt_9x60_wvga/debug/_ext/916554220/legato_widget.o
                0x23f1d304                _leWidget_SetSize
 .text._leWidget_GetAlphaEnabled
                0x23f1d3ec       0x10 build/lcdc_rgba8888_mxt_9x60_wvga/debug/_ext/916554220/legato_widget.o
                0x23f1d3ec                _leWidget_GetAlphaEnabled
 .text._leWidget_GetCumulativeAlphaEnabled
                0x23f1d3fc       0x44 build/lcdc_rgba8888_mxt_9x60_wvga/debug/_ext/916554220/legato_widget.o
                0x23f1d3fc                _leWidget_GetCumulativeAlphaEnabled
 .text._leWidget_SetAlphaEnabled
                0x23f1d440       0x44 build/lcdc_rgba8888_mxt_9x60_wvga/debug/_ext/916554220/legato_widget.o
                0x23f1d440                _leWidget_SetAlphaEnabled
 .text._leWidget_GetAlphaAmount
                0x23f1d484        0x8 build/lcdc_rgba8888_mxt_9x60_wvga/debug/_ext/916554220/legato_widget.o
                0x23f1d484                _leWidget_GetAlphaAmount
 .text._leWidget_SetAlphaAmount
                0x23f1d48c       0x38 build/lcdc_rgba8888_mxt_9x60_wvga/debug/_ext/916554220/legato_widget.o
                0x23f1d48c                _leWidget_SetAlphaAmount
 .text._leWidget_IsOpaque
                0x23f1d4c4       0x4c build/lcdc_rgba8888_mxt_9x60_wvga/debug/_ext/916554220/legato_widget.o
                0x23f1d4c4                _leWidget_IsOpaque
 .text._leWidget_GetEnabled
                0x23f1d510        0xc build/lcdc_rgba8888_mxt_9x60_wvga/debug/_ext/916554220/legato_widget.o
                0x23f1d510                _leWidget_GetEnabled
 .text._leWidget_SetEnabled
                0x23f1d51c       0x40 build/lcdc_rgba8888_mxt_9x60_wvga/debug/_ext/916554220/legato_widget.o
                0x23f1d51c                _leWidget_SetEnabled
 .text._leWidget_GetVisible
                0x23f1d55c       0x10 build/lcdc_rgba8888_mxt_9x60_wvga/debug/_ext/916554220/legato_widget.o
                0x23f1d55c                _leWidget_GetVisible
 .text._leWidget_SetVisible
                0x23f1d56c       0x44 build/lcdc_rgba8888_mxt_9x60_wvga/debug/_ext/916554220/legato_widget.o
                0x23f1d56c                _leWidget_SetVisible
 .text._leWidget_LocalRect
                0x23f1d5b0       0x28 build/lcdc_rgba8888_mxt_9x60_wvga/debug/_ext/916554220/legato_widget.o
                0x23f1d5b0                _leWidget_LocalRect
 .text._leWidget_RectToParentSpace
                0x23f1d5d8       0x40 build/lcdc_rgba8888_mxt_9x60_wvga/debug/_ext/916554220/legato_widget.o
                0x23f1d5d8                _leWidget_RectToParentSpace
 .text.isAncestorOf
                0x23f1d618       0x44 build/lcdc_rgba8888_mxt_9x60_wvga/debug/_ext/916554220/legato_widget.o
 .text._leWidget_GetRootWidget
                0x23f1d65c       0x24 build/lcdc_rgba8888_mxt_9x60_wvga/debug/_ext/916554220/legato_widget.o
                0x23f1d65c                _leWidget_GetRootWidget
 .text._leWidget_SetParent
                0x23f1d680       0x4c build/lcdc_rgba8888_mxt_9x60_wvga/debug/_ext/916554220/legato_widget.o
                0x23f1d680                _leWidget_SetParent
 .text._leWidget_GetChildCount
                0x23f1d6cc        0x8 build/lcdc_rgba8888_mxt_9x60_wvga/debug/_ext/916554220/legato_widget.o
                0x23f1d6cc                _leWidget_GetChildCount
 .text._leWidget_GetChildAtIndex
                0x23f1d6d4       0x20 build/lcdc_rgba8888_mxt_9x60_wvga/debug/_ext/916554220/legato_widget.o
                0x23f1d6d4                _leWidget_GetChildAtIndex
 .text._leWidget_ContainsDescendant
                0x23f1d6f4       0x84 build/lcdc_rgba8888_mxt_9x60_wvga/debug/_ext/916554220/legato_widget.o
                0x23f1d6f4                _leWidget_ContainsDescendant
 .text._leWidget_GetScheme
                0x23f1d778        0x8 build/lcdc_rgba8888_mxt_9x60_wvga/debug/_ext/916554220/legato_widget.o
                0x23f1d778                _leWidget_GetScheme
 .text._leWidget_SetScheme
                0x23f1d780       0x30 build/lcdc_rgba8888_mxt_9x60_wvga/debug/_ext/916554220/legato_widget.o
                0x23f1d780                _leWidget_SetScheme
 .text._leWidget_GetBorderType
                0x23f1d7b0        0x8 build/lcdc_rgba8888_mxt_9x60_wvga/debug/_ext/916554220/legato_widget.o
                0x23f1d7b0                _leWidget_GetBorderType
 .text._leWidget_SetBorderType
                0x23f1d7b8       0x30 build/lcdc_rgba8888_mxt_9x60_wvga/debug/_ext/916554220/legato_widget.o
                0x23f1d7b8                _leWidget_SetBorderType
 .text._leWidget_GetBackgroundType
                0x23f1d7e8        0x8 build/lcdc_rgba8888_mxt_9x60_wvga/debug/_ext/916554220/legato_widget.o
                0x23f1d7e8                _leWidget_GetBackgroundType
 .text._leWidget_SetBackgroundType
                0x23f1d7f0       0x30 build/lcdc_rgba8888_mxt_9x60_wvga/debug/_ext/916554220/legato_widget.o
                0x23f1d7f0                _leWidget_SetBackgroundType
 .text._leWidget_GetHAlignment
                0x23f1d820        0x8 build/lcdc_rgba8888_mxt_9x60_wvga/debug/_ext/916554220/legato_widget.o
                0x23f1d820                _leWidget_GetHAlignment
 .text._leWidget_SetHAlignment
                0x23f1d828       0x48 build/lcdc_rgba8888_mxt_9x60_wvga/debug/_ext/916554220/legato_widget.o
                0x23f1d828                _leWidget_SetHAlignment
 .text._leWidget_GetVAlignment
                0x23f1d870        0x8 build/lcdc_rgba8888_mxt_9x60_wvga/debug/_ext/916554220/legato_widget.o
                0x23f1d870                _leWidget_GetVAlignment
 .text._leWidget_SetVAlignment
                0x23f1d878       0x48 build/lcdc_rgba8888_mxt_9x60_wvga/debug/_ext/916554220/legato_widget.o
                0x23f1d878                _leWidget_SetVAlignment
 .text._leWidget_GetMargins
                0x23f1d8c0       0x2c build/lcdc_rgba8888_mxt_9x60_wvga/debug/_ext/916554220/legato_widget.o
                0x23f1d8c0                _leWidget_GetMargins
 .text._leWidget_SetMargins
                0x23f1d8ec       0x64 build/lcdc_rgba8888_mxt_9x60_wvga/debug/_ext/916554220/legato_widget.o
                0x23f1d8ec                _leWidget_SetMargins
 .text._leWidget_GetCornerRadius
                0x23f1d950        0x8 build/lcdc_rgba8888_mxt_9x60_wvga/debug/_ext/916554220/legato_widget.o
                0x23f1d950                _leWidget_GetCornerRadius
 .text._leWidget_SetCornerRadius
                0x23f1d958       0x44 build/lcdc_rgba8888_mxt_9x60_wvga/debug/_ext/916554220/legato_widget.o
                0x23f1d958                _leWidget_SetCornerRadius
 .text._leWidget_Invalidate
                0x23f1d99c       0x38 build/lcdc_rgba8888_mxt_9x60_wvga/debug/_ext/916554220/legato_widget.o
                0x23f1d99c                _leWidget_Invalidate
 .text._leWidget_InvalidateContents
                0x23f1d9d4        0x4 build/lcdc_rgba8888_mxt_9x60_wvga/debug/_ext/916554220/legato_widget.o
                0x23f1d9d4                _leWidget_InvalidateContents
 .text._leWidget_InstallEventFilter
                0x23f1d9d8       0x68 build/lcdc_rgba8888_mxt_9x60_wvga/debug/_ext/916554220/legato_widget.o
                0x23f1d9d8                _leWidget_InstallEventFilter
 .text._leWidget_RemoveEventFilter
                0x23f1da40       0x60 build/lcdc_rgba8888_mxt_9x60_wvga/debug/_ext/916554220/legato_widget.o
                0x23f1da40                _leWidget_RemoveEventFilter
 .text._leWidget_TouchDownEvent
                0x23f1daa0        0x4 build/lcdc_rgba8888_mxt_9x60_wvga/debug/_ext/916554220/legato_widget.o
                0x23f1daa0                _leWidget_TouchDownEvent
 .text._leWidget_TouchUpEvent
                0x23f1daa4        0x4 build/lcdc_rgba8888_mxt_9x60_wvga/debug/_ext/916554220/legato_widget.o
                0x23f1daa4                _leWidget_TouchUpEvent
 .text._leWidget_TouchMoveEvent
                0x23f1daa8        0x4 build/lcdc_rgba8888_mxt_9x60_wvga/debug/_ext/916554220/legato_widget.o
                0x23f1daa8                _leWidget_TouchMoveEvent
 .text._leWidget_MoveEvent
                0x23f1daac        0x4 build/lcdc_rgba8888_mxt_9x60_wvga/debug/_ext/916554220/legato_widget.o
                0x23f1daac                _leWidget_MoveEvent
 .text._leWidget_ResizeEvent
                0x23f1dab0        0x4 build/lcdc_rgba8888_mxt_9x60_wvga/debug/_ext/916554220/legato_widget.o
                0x23f1dab0                _leWidget_ResizeEvent
 .text._leWidget_FocusLostEvent
                0x23f1dab4        0x4 build/lcdc_rgba8888_mxt_9x60_wvga/debug/_ext/916554220/legato_widget.o
                0x23f1dab4                _leWidget_FocusLostEvent
 .text._leWidget_FocusGainedEvent
                0x23f1dab8        0x4 build/lcdc_rgba8888_mxt_9x60_wvga/debug/_ext/916554220/legato_widget.o
                0x23f1dab8                _leWidget_FocusGainedEvent
 .text._leWidget_LanguageChangeEvent
                0x23f1dabc        0x4 build/lcdc_rgba8888_mxt_9x60_wvga/debug/_ext/916554220/legato_widget.o
                0x23f1dabc                _leWidget_LanguageChangeEvent
 .text.filterEvent
                0x23f1dac0       0x54 build/lcdc_rgba8888_mxt_9x60_wvga/debug/_ext/916554220/legato_widget.o
 .text._leWidget_HandleEvent
                0x23f1db14      0x1a0 build/lcdc_rgba8888_mxt_9x60_wvga/debug/_ext/916554220/legato_widget.o
                0x23f1db14                _leWidget_HandleEvent
 .text._leWidget_ValidateChildren
                0x23f1dcb4       0x54 build/lcdc_rgba8888_mxt_9x60_wvga/debug/_ext/916554220/legato_widget.o
                0x23f1dcb4                _leWidget_ValidateChildren
 .text._leWidget_IncreaseDirtyState
                0x23f1dd08       0x10 build/lcdc_rgba8888_mxt_9x60_wvga/debug/_ext/916554220/legato_widget.o
                0x23f1dd08                _leWidget_IncreaseDirtyState
 .text._leWidget_SetDirtyState
                0x23f1dd18        0x8 build/lcdc_rgba8888_mxt_9x60_wvga/debug/_ext/916554220/legato_widget.o
                0x23f1dd18                _leWidget_SetDirtyState
 .text._leWidget_ClearDirtyState
                0x23f1dd20        0xc build/lcdc_rgba8888_mxt_9x60_wvga/debug/_ext/916554220/legato_widget.o
                0x23f1dd20                _leWidget_ClearDirtyState
 .text._leWidget_Update
                0x23f1dd2c        0x4 build/lcdc_rgba8888_mxt_9x60_wvga/debug/_ext/916554220/legato_widget.o
                0x23f1dd2c                _leWidget_Update
 .text._leWidget_HasFocus
                0x23f1dd30       0x20 build/lcdc_rgba8888_mxt_9x60_wvga/debug/_ext/916554220/legato_widget.o
                0x23f1dd30                _leWidget_HasFocus
 .text._leWidget_SetFocus
                0x23f1dd50        0xc build/lcdc_rgba8888_mxt_9x60_wvga/debug/_ext/916554220/legato_widget.o
                0x23f1dd50                _leWidget_SetFocus
 .text._leWidget_Destructor
                0x23f1dd5c       0x98 build/lcdc_rgba8888_mxt_9x60_wvga/debug/_ext/916554220/legato_widget.o
                0x23f1dd5c                _leWidget_Destructor
 .text._leWidget_RemoveAllChildren
                0x23f1ddf4       0x74 build/lcdc_rgba8888_mxt_9x60_wvga/debug/_ext/916554220/legato_widget.o
                0x23f1ddf4                _leWidget_RemoveAllChildren
 .text._leWidget_Resize
                0x23f1de68      0x104 build/lcdc_rgba8888_mxt_9x60_wvga/debug/_ext/916554220/legato_widget.o
                0x23f1de68                _leWidget_Resize
 .text._leWidget_RectToScreenSpace
                0x23f1df6c       0x4c build/lcdc_rgba8888_mxt_9x60_wvga/debug/_ext/916554220/legato_widget.o
                0x23f1df6c                _leWidget_RectToScreenSpace
 .text._leWidget_GetCumulativeAlphaAmount
                0x23f1dfb8       0x94 build/lcdc_rgba8888_mxt_9x60_wvga/debug/_ext/916554220/legato_widget.o
                0x23f1dfb8                _leWidget_GetCumulativeAlphaAmount
 .text._leWidget_AddChild
                0x23f1e04c       0x8c build/lcdc_rgba8888_mxt_9x60_wvga/debug/_ext/916554220/legato_widget.o
                0x23f1e04c                _leWidget_AddChild
 .text._leWidget_InsertChild
                0x23f1e0d8       0x94 build/lcdc_rgba8888_mxt_9x60_wvga/debug/_ext/916554220/legato_widget.o
                0x23f1e0d8                _leWidget_InsertChild
 .text._leWidget_RemoveChild
                0x23f1e16c       0x58 build/lcdc_rgba8888_mxt_9x60_wvga/debug/_ext/916554220/legato_widget.o
                0x23f1e16c                _leWidget_RemoveChild
 .text._leWidget_SetChildIndex
                0x23f1e1c4       0x44 build/lcdc_rgba8888_mxt_9x60_wvga/debug/_ext/916554220/legato_widget.o
                0x23f1e1c4                _leWidget_SetChildIndex
 .text._leWidget_RemoveChildAt
                0x23f1e208       0x58 build/lcdc_rgba8888_mxt_9x60_wvga/debug/_ext/916554220/legato_widget.o
                0x23f1e208                _leWidget_RemoveChildAt
 .text._leWidget_GetIndexOfChild
                0x23f1e260       0x24 build/lcdc_rgba8888_mxt_9x60_wvga/debug/_ext/916554220/legato_widget.o
                0x23f1e260                _leWidget_GetIndexOfChild
 .text._leWidget_InvalidateBorderAreas
                0x23f1e284        0xc build/lcdc_rgba8888_mxt_9x60_wvga/debug/_ext/916554220/legato_widget.o
                0x23f1e284                _leWidget_InvalidateBorderAreas
 .text._leWidget_DamageArea
                0x23f1e290       0x30 build/lcdc_rgba8888_mxt_9x60_wvga/debug/_ext/916554220/legato_widget.o
                0x23f1e290                _leWidget_DamageArea
 .text.leWidget_Constructor
                0x23f1e2c0       0xb8 build/lcdc_rgba8888_mxt_9x60_wvga/debug/_ext/916554220/legato_widget.o
                0x23f1e2c0                leWidget_Constructor
 .text.leWidget_New
                0x23f1e378       0x24 build/lcdc_rgba8888_mxt_9x60_wvga/debug/_ext/916554220/legato_widget.o
                0x23f1e378                leWidget_New
 .text.leWidget_Delete
                0x23f1e39c       0x28 build/lcdc_rgba8888_mxt_9x60_wvga/debug/_ext/916554220/legato_widget.o
                0x23f1e39c                leWidget_Delete
 .text.AIC_INT_Initialize
                0x23f1e3c4       0xf8 build/lcdc_rgba8888_mxt_9x60_wvga/debug/_ext/107307971/plib_aic.o
                0x23f1e3c4                AIC_INT_Initialize
 .text.AIC_INT_IrqDisable
                0x23f1e4bc       0x30 build/lcdc_rgba8888_mxt_9x60_wvga/debug/_ext/107307971/plib_aic.o
                0x23f1e4bc                AIC_INT_IrqDisable
 .text.AIC_INT_IrqRestore
                0x23f1e4ec       0x28 build/lcdc_rgba8888_mxt_9x60_wvga/debug/_ext/107307971/plib_aic.o
                0x23f1e4ec                AIC_INT_IrqRestore
 .text.CLK_Initialize
                0x23f1e514       0xb8 build/lcdc_rgba8888_mxt_9x60_wvga/debug/_ext/107309994/plib_clk.o
                0x23f1e514                CLK_Initialize
 .text.FLEXCOM0_TWI_InitiateRead
                0x23f1e5cc       0x60 build/lcdc_rgba8888_mxt_9x60_wvga/debug/_ext/1221451702/plib_flexcom0_twi_master.o
 .text.FLEXCOM0_TWI_InitiateTransfer
                0x23f1e62c      0x178 build/lcdc_rgba8888_mxt_9x60_wvga/debug/_ext/1221451702/plib_flexcom0_twi_master.o
 .text.FLEXCOM0_TWI_Initialize
                0x23f1e7a4       0x6c build/lcdc_rgba8888_mxt_9x60_wvga/debug/_ext/1221451702/plib_flexcom0_twi_master.o
                0x23f1e7a4                FLEXCOM0_TWI_Initialize
 .text.FLEXCOM0_TWI_CallbackRegister
                0x23f1e810       0x18 build/lcdc_rgba8888_mxt_9x60_wvga/debug/_ext/1221451702/plib_flexcom0_twi_master.o
                0x23f1e810                FLEXCOM0_TWI_CallbackRegister
 .text.FLEXCOM0_TWI_Read
                0x23f1e828       0x80 build/lcdc_rgba8888_mxt_9x60_wvga/debug/_ext/1221451702/plib_flexcom0_twi_master.o
                0x23f1e828                FLEXCOM0_TWI_Read
 .text.FLEXCOM0_TWI_Write
                0x23f1e8a8       0x80 build/lcdc_rgba8888_mxt_9x60_wvga/debug/_ext/1221451702/plib_flexcom0_twi_master.o
                0x23f1e8a8                FLEXCOM0_TWI_Write
 .text.FLEXCOM0_TWI_WriteRead
                0x23f1e928       0x80 build/lcdc_rgba8888_mxt_9x60_wvga/debug/_ext/1221451702/plib_flexcom0_twi_master.o
                0x23f1e928                FLEXCOM0_TWI_WriteRead
 .text.FLEXCOM0_TWI_TransferAbort
                0x23f1e9a8       0x38 build/lcdc_rgba8888_mxt_9x60_wvga/debug/_ext/1221451702/plib_flexcom0_twi_master.o
                0x23f1e9a8                FLEXCOM0_TWI_TransferAbort
 .text.FLEXCOM0_TWI_ErrorGet
                0x23f1e9e0       0x18 build/lcdc_rgba8888_mxt_9x60_wvga/debug/_ext/1221451702/plib_flexcom0_twi_master.o
                0x23f1e9e0                FLEXCOM0_TWI_ErrorGet
 .text.FLEXCOM0_TWI_TransferSetup
                0x23f1e9f8       0xdc build/lcdc_rgba8888_mxt_9x60_wvga/debug/_ext/1221451702/plib_flexcom0_twi_master.o
                0x23f1e9f8                FLEXCOM0_TWI_TransferSetup
 .text.FLEXCOM0_InterruptHandler
                0x23f1ead4      0x304 build/lcdc_rgba8888_mxt_9x60_wvga/debug/_ext/1221451702/plib_flexcom0_twi_master.o
                0x23f1ead4                FLEXCOM0_InterruptHandler
 .text.LCDC_SetPWMClockSourceSelection
                0x23f1edd8       0x2c build/lcdc_rgba8888_mxt_9x60_wvga/debug/_ext/968098130/plib_lcdc.o
                0x23f1edd8                LCDC_SetPWMClockSourceSelection
 .text.LCDC_SetLayerClockGatingDisable
                0x23f1ee04       0x90 build/lcdc_rgba8888_mxt_9x60_wvga/debug/_ext/968098130/plib_lcdc.o
                0x23f1ee04                LCDC_SetLayerClockGatingDisable
 .text.LCDC_SetClockDivider
                0x23f1ee94       0x28 build/lcdc_rgba8888_mxt_9x60_wvga/debug/_ext/968098130/plib_lcdc.o
                0x23f1ee94                LCDC_SetClockDivider
 .text.LCDC_SetHSYNCPulseWidth
                0x23f1eebc       0x28 build/lcdc_rgba8888_mxt_9x60_wvga/debug/_ext/968098130/plib_lcdc.o
                0x23f1eebc                LCDC_SetHSYNCPulseWidth
 .text.LCDC_SetVSYNCPulseWidth
                0x23f1eee4       0x2c build/lcdc_rgba8888_mxt_9x60_wvga/debug/_ext/968098130/plib_lcdc.o
                0x23f1eee4                LCDC_SetVSYNCPulseWidth
 .text.LCDC_SetVerticalFrontPorchWidth
                0x23f1ef10       0x2c build/lcdc_rgba8888_mxt_9x60_wvga/debug/_ext/968098130/plib_lcdc.o
                0x23f1ef10                LCDC_SetVerticalFrontPorchWidth
 .text.LCDC_SetVerticalBackPorchWidth
                0x23f1ef3c       0x30 build/lcdc_rgba8888_mxt_9x60_wvga/debug/_ext/968098130/plib_lcdc.o
                0x23f1ef3c                LCDC_SetVerticalBackPorchWidth
 .text.LCDC_SetHorizontalFrontPorchWidth
                0x23f1ef6c       0x2c build/lcdc_rgba8888_mxt_9x60_wvga/debug/_ext/968098130/plib_lcdc.o
                0x23f1ef6c                LCDC_SetHorizontalFrontPorchWidth
 .text.LCDC_SetHorizontalBackPorchWidth
                0x23f1ef98       0x30 build/lcdc_rgba8888_mxt_9x60_wvga/debug/_ext/968098130/plib_lcdc.o
                0x23f1ef98                LCDC_SetHorizontalBackPorchWidth
 .text.LCDC_SetNumActiveRows
                0x23f1efc8       0x30 build/lcdc_rgba8888_mxt_9x60_wvga/debug/_ext/968098130/plib_lcdc.o
                0x23f1efc8                LCDC_SetNumActiveRows
 .text.LCDC_SetNumPixelsPerLine
                0x23f1eff8       0x2c build/lcdc_rgba8888_mxt_9x60_wvga/debug/_ext/968098130/plib_lcdc.o
                0x23f1eff8                LCDC_SetNumPixelsPerLine
 .text.LCDC_SetHSYNCPolarity
                0x23f1f024       0x24 build/lcdc_rgba8888_mxt_9x60_wvga/debug/_ext/968098130/plib_lcdc.o
                0x23f1f024                LCDC_SetHSYNCPolarity
 .text.LCDC_SetVSYNCPolarity
                0x23f1f048       0x2c build/lcdc_rgba8888_mxt_9x60_wvga/debug/_ext/968098130/plib_lcdc.o
                0x23f1f048                LCDC_SetVSYNCPolarity
 .text.LCDC_SetVSYNCPulseStart
                0x23f1f074       0x2c build/lcdc_rgba8888_mxt_9x60_wvga/debug/_ext/968098130/plib_lcdc.o
                0x23f1f074                LCDC_SetVSYNCPulseStart
 .text.LCDC_SetDisplaySignalSynchronization
                0x23f1f0a0       0x20 build/lcdc_rgba8888_mxt_9x60_wvga/debug/_ext/968098130/plib_lcdc.o
                0x23f1f0a0                LCDC_SetDisplaySignalSynchronization
 .text.LCDC_SetOutputMode
                0x23f1f0c0       0x24 build/lcdc_rgba8888_mxt_9x60_wvga/debug/_ext/968098130/plib_lcdc.o
                0x23f1f0c0                LCDC_SetOutputMode
 .text.LCDC_SetDisplayGuardTime
                0x23f1f0e4       0x24 build/lcdc_rgba8888_mxt_9x60_wvga/debug/_ext/968098130/plib_lcdc.o
                0x23f1f0e4                LCDC_SetDisplayGuardTime
 .text.LCDC_SetPWMPrescaler
                0x23f1f108       0x20 build/lcdc_rgba8888_mxt_9x60_wvga/debug/_ext/968098130/plib_lcdc.o
                0x23f1f108                LCDC_SetPWMPrescaler
 .text.LCDC_SetPWMSignalPolarity
                0x23f1f128       0x2c build/lcdc_rgba8888_mxt_9x60_wvga/debug/_ext/968098130/plib_lcdc.o
                0x23f1f128                LCDC_SetPWMSignalPolarity
 .text.LCDC_SetPWMCompareValue
                0x23f1f154       0x20 build/lcdc_rgba8888_mxt_9x60_wvga/debug/_ext/968098130/plib_lcdc.o
                0x23f1f154                LCDC_SetPWMCompareValue
 .text.LCDC_SetPixelClockEnable
                0x23f1f174       0x28 build/lcdc_rgba8888_mxt_9x60_wvga/debug/_ext/968098130/plib_lcdc.o
                0x23f1f174                LCDC_SetPixelClockEnable
 .text.LCDC_SetSYNCEnable
                0x23f1f19c       0x28 build/lcdc_rgba8888_mxt_9x60_wvga/debug/_ext/968098130/plib_lcdc.o
                0x23f1f19c                LCDC_SetSYNCEnable
 .text.LCDC_SetDISPSignalEnable
                0x23f1f1c4       0x28 build/lcdc_rgba8888_mxt_9x60_wvga/debug/_ext/968098130/plib_lcdc.o
                0x23f1f1c4                LCDC_SetDISPSignalEnable
 .text.LCDC_SetPWMEnable
                0x23f1f1ec       0x28 build/lcdc_rgba8888_mxt_9x60_wvga/debug/_ext/968098130/plib_lcdc.o
                0x23f1f1ec                LCDC_SetPWMEnable
 .text.LCDC_WaitForSyncInProgress
                0x23f1f214       0x18 build/lcdc_rgba8888_mxt_9x60_wvga/debug/_ext/968098130/plib_lcdc.o
                0x23f1f214                LCDC_WaitForSyncInProgress
 .text.LCDC_WaitForClockRunning
                0x23f1f22c       0x18 build/lcdc_rgba8888_mxt_9x60_wvga/debug/_ext/968098130/plib_lcdc.o
                0x23f1f22c                LCDC_WaitForClockRunning
 .text.LCDC_WaitForSynchronization
                0x23f1f244       0x18 build/lcdc_rgba8888_mxt_9x60_wvga/debug/_ext/968098130/plib_lcdc.o
                0x23f1f244                LCDC_WaitForSynchronization
 .text.LCDC_WaitForDISPSignal
                0x23f1f25c       0x18 build/lcdc_rgba8888_mxt_9x60_wvga/debug/_ext/968098130/plib_lcdc.o
                0x23f1f25c                LCDC_WaitForDISPSignal
 .text.LCDC_SetSytemBusDMABurstEnable
                0x23f1f274       0xc0 build/lcdc_rgba8888_mxt_9x60_wvga/debug/_ext/968098130/plib_lcdc.o
                0x23f1f274                LCDC_SetSytemBusDMABurstEnable
 .text.LCDC_SetSytemBusDMABurstLength
                0x23f1f334       0xa0 build/lcdc_rgba8888_mxt_9x60_wvga/debug/_ext/968098130/plib_lcdc.o
                0x23f1f334                LCDC_SetSytemBusDMABurstLength
 .text.LCDC_SetRGBModeInput
                0x23f1f3d4       0xa0 build/lcdc_rgba8888_mxt_9x60_wvga/debug/_ext/968098130/plib_lcdc.o
                0x23f1f3d4                LCDC_SetRGBModeInput
 .text.LCDC_SetDMAHeadPointer
                0x23f1f474       0x80 build/lcdc_rgba8888_mxt_9x60_wvga/debug/_ext/968098130/plib_lcdc.o
                0x23f1f474                LCDC_SetDMAHeadPointer
 .text.LCDC_SetWindowPosition
                0x23f1f4f4       0x80 build/lcdc_rgba8888_mxt_9x60_wvga/debug/_ext/968098130/plib_lcdc.o
                0x23f1f4f4                LCDC_SetWindowPosition
 .text.LCDC_SetWindowSize
                0x23f1f574       0x98 build/lcdc_rgba8888_mxt_9x60_wvga/debug/_ext/968098130/plib_lcdc.o
                0x23f1f574                LCDC_SetWindowSize
 .text.LCDC_SetHorizStride
                0x23f1f60c       0x50 build/lcdc_rgba8888_mxt_9x60_wvga/debug/_ext/968098130/plib_lcdc.o
                0x23f1f60c                LCDC_SetHorizStride
 .text.LCDC_SetUseDMAPathEnable
                0x23f1f65c       0xc0 build/lcdc_rgba8888_mxt_9x60_wvga/debug/_ext/968098130/plib_lcdc.o
                0x23f1f65c                LCDC_SetUseDMAPathEnable
 .text.LCDC_SetDMAAddressRegister
                0x23f1f71c       0x50 build/lcdc_rgba8888_mxt_9x60_wvga/debug/_ext/968098130/plib_lcdc.o
                0x23f1f71c                LCDC_SetDMAAddressRegister
 .text.LCDC_SetDMADescriptorNextAddress
                0x23f1f76c       0x50 build/lcdc_rgba8888_mxt_9x60_wvga/debug/_ext/968098130/plib_lcdc.o
                0x23f1f76c                LCDC_SetDMADescriptorNextAddress
 .text.LCDC_SetTransferDescriptorFetchEnable
                0x23f1f7bc       0x80 build/lcdc_rgba8888_mxt_9x60_wvga/debug/_ext/968098130/plib_lcdc.o
                0x23f1f7bc                LCDC_SetTransferDescriptorFetchEnable
 .text.LCDC_UpdateOverlayAttributesEnable
                0x23f1f83c       0x70 build/lcdc_rgba8888_mxt_9x60_wvga/debug/_ext/968098130/plib_lcdc.o
                0x23f1f83c                LCDC_UpdateOverlayAttributesEnable
 .text.LCDC_SetChannelEnable
                0x23f1f8ac       0xbc build/lcdc_rgba8888_mxt_9x60_wvga/debug/_ext/968098130/plib_lcdc.o
                0x23f1f8ac                LCDC_SetChannelEnable
 .text.LCDC_SetBlenderOverlayLayerEnable
                0x23f1f968       0x94 build/lcdc_rgba8888_mxt_9x60_wvga/debug/_ext/968098130/plib_lcdc.o
                0x23f1f968                LCDC_SetBlenderOverlayLayerEnable
 .text.LCDC_SetBlenderDMALayerEnable
                0x23f1f9fc       0x94 build/lcdc_rgba8888_mxt_9x60_wvga/debug/_ext/968098130/plib_lcdc.o
                0x23f1f9fc                LCDC_SetBlenderDMALayerEnable
 .text.LCDC_SetBlenderLocalAlphaEnable
                0x23f1fa90       0x94 build/lcdc_rgba8888_mxt_9x60_wvga/debug/_ext/968098130/plib_lcdc.o
                0x23f1fa90                LCDC_SetBlenderLocalAlphaEnable
 .text.LCDC_SetBlenderIteratedColorEnable
                0x23f1fb24       0x94 build/lcdc_rgba8888_mxt_9x60_wvga/debug/_ext/968098130/plib_lcdc.o
                0x23f1fb24                LCDC_SetBlenderIteratedColorEnable
 .text.LCDC_SetBlenderUseIteratedColor
                0x23f1fbb8       0x94 build/lcdc_rgba8888_mxt_9x60_wvga/debug/_ext/968098130/plib_lcdc.o
                0x23f1fbb8                LCDC_SetBlenderUseIteratedColor
 .text.LCDC_UpdateAttribute
                0x23f1fc4c       0x70 build/lcdc_rgba8888_mxt_9x60_wvga/debug/_ext/968098130/plib_lcdc.o
                0x23f1fc4c                LCDC_UpdateAttribute
 .text.LCDC_IRQ_CallbackRegister
                0x23f1fcbc       0x14 build/lcdc_rgba8888_mxt_9x60_wvga/debug/_ext/968098130/plib_lcdc.o
                0x23f1fcbc                LCDC_IRQ_CallbackRegister
 .text.LCDC_IRQ_Enable
                0x23f1fcd0       0xd0 build/lcdc_rgba8888_mxt_9x60_wvga/debug/_ext/968098130/plib_lcdc.o
                0x23f1fcd0                LCDC_IRQ_Enable
 .text.LCDC_LAYER_IRQ_Enable
                0x23f1fda0       0xb8 build/lcdc_rgba8888_mxt_9x60_wvga/debug/_ext/968098130/plib_lcdc.o
                0x23f1fda0                LCDC_LAYER_IRQ_Enable
 .text.LCDC_LAYER_IRQ_Disable
                0x23f1fe58       0xb8 build/lcdc_rgba8888_mxt_9x60_wvga/debug/_ext/968098130/plib_lcdc.o
                0x23f1fe58                LCDC_LAYER_IRQ_Disable
 .text.LCDC_LAYER_IRQ_Status
                0x23f1ff10       0x58 build/lcdc_rgba8888_mxt_9x60_wvga/debug/_ext/968098130/plib_lcdc.o
                0x23f1ff10                LCDC_LAYER_IRQ_Status
 .text.LCDC_Interrupt_Handler
                0x23f1ff68       0x2c build/lcdc_rgba8888_mxt_9x60_wvga/debug/_ext/968098130/plib_lcdc.o
                0x23f1ff68                LCDC_Interrupt_Handler
 .text.LCDC_SetHEOImageMemSize
                0x23f1ff94       0x30 build/lcdc_rgba8888_mxt_9x60_wvga/debug/_ext/968098130/plib_lcdc.o
                0x23f1ff94                LCDC_SetHEOImageMemSize
 .text.LCDC_SetHEOVideoPriority
                0x23f1ffc4       0x2c build/lcdc_rgba8888_mxt_9x60_wvga/debug/_ext/968098130/plib_lcdc.o
                0x23f1ffc4                LCDC_SetHEOVideoPriority
 .text.LCDC_SetHEOScaler
                0x23f1fff0       0x38 build/lcdc_rgba8888_mxt_9x60_wvga/debug/_ext/968098130/plib_lcdc.o
                0x23f1fff0                LCDC_SetHEOScaler
 .text.icache_InvalidateAll
                0x23f20028        0xc build/lcdc_rgba8888_mxt_9x60_wvga/debug/_ext/107319645/plib_mmu.o
                0x23f20028                icache_InvalidateAll
 .text.icache_Enable
                0x23f20034       0x20 build/lcdc_rgba8888_mxt_9x60_wvga/debug/_ext/107319645/plib_mmu.o
                0x23f20034                icache_Enable
 .text.dcache_InvalidateAll
                0x23f20054       0x38 build/lcdc_rgba8888_mxt_9x60_wvga/debug/_ext/107319645/plib_mmu.o
                0x23f20054                dcache_InvalidateAll
 .text.dcache_Enable
                0x23f2008c       0x20 build/lcdc_rgba8888_mxt_9x60_wvga/debug/_ext/107319645/plib_mmu.o
                0x23f2008c                dcache_Enable
 .text.MMU_Initialize
                0x23f200ac      0x244 build/lcdc_rgba8888_mxt_9x60_wvga/debug/_ext/107319645/plib_mmu.o
                0x23f200ac                MMU_Initialize
 .text.PIO_Initialize
                0x23f202f0       0xe8 build/lcdc_rgba8888_mxt_9x60_wvga/debug/_ext/107322398/plib_pio.o
                0x23f202f0                PIO_Initialize
 .text.RTT_Initialize
                0x23f203d8       0x20 build/lcdc_rgba8888_mxt_9x60_wvga/debug/_ext/107324666/plib_rtt.o
                0x23f203d8                RTT_Initialize
 .text.RTT_Enable
                0x23f203f8       0x20 build/lcdc_rgba8888_mxt_9x60_wvga/debug/_ext/107324666/plib_rtt.o
                0x23f203f8                RTT_Enable
 .text.RTT_CallbackRegister
                0x23f20418       0x14 build/lcdc_rgba8888_mxt_9x60_wvga/debug/_ext/107324666/plib_rtt.o
                0x23f20418                RTT_CallbackRegister
 .text.RTT_InterruptHandler
                0x23f2042c       0xb4 build/lcdc_rgba8888_mxt_9x60_wvga/debug/_ext/107324666/plib_rtt.o
                0x23f2042c                RTT_InterruptHandler
 .text.TC1_CH0_TimerInitialize
                0x23f204e0       0x40 build/lcdc_rgba8888_mxt_9x60_wvga/debug/_ext/273632537/plib_tc1.o
                0x23f204e0                TC1_CH0_TimerInitialize
 .text.TC1_CH0_TimerStart
                0x23f20520       0x14 build/lcdc_rgba8888_mxt_9x60_wvga/debug/_ext/273632537/plib_tc1.o
                0x23f20520                TC1_CH0_TimerStart
 .text.TC1_CH0_TimerStop
                0x23f20534       0x14 build/lcdc_rgba8888_mxt_9x60_wvga/debug/_ext/273632537/plib_tc1.o
                0x23f20534                TC1_CH0_TimerStop
 .text.TC1_CH0_TimerCallbackRegister
                0x23f20548       0x14 build/lcdc_rgba8888_mxt_9x60_wvga/debug/_ext/273632537/plib_tc1.o
                0x23f20548                TC1_CH0_TimerCallbackRegister
 .text.TC1_CH0_InterruptHandler
                0x23f2055c       0x4c build/lcdc_rgba8888_mxt_9x60_wvga/debug/_ext/273632537/plib_tc1.o
 .text.TC1_InterruptHandler
                0x23f205a8        0xc build/lcdc_rgba8888_mxt_9x60_wvga/debug/_ext/273632537/plib_tc1.o
                0x23f205a8                TC1_InterruptHandler
 .text.TC0_CH0_TimerInitialize
                0x23f205b4       0x38 build/lcdc_rgba8888_mxt_9x60_wvga/debug/_ext/273632537/plib_tc0.o
                0x23f205b4                TC0_CH0_TimerInitialize
 .text.TC0_CH0_TimerStart
                0x23f205ec       0x14 build/lcdc_rgba8888_mxt_9x60_wvga/debug/_ext/273632537/plib_tc0.o
                0x23f205ec                TC0_CH0_TimerStart
 .text.TC0_CH0_TimerStop
                0x23f20600       0x14 build/lcdc_rgba8888_mxt_9x60_wvga/debug/_ext/273632537/plib_tc0.o
                0x23f20600                TC0_CH0_TimerStop
 .text.TC0_CH0_TimerFrequencyGet
                0x23f20614        0xc build/lcdc_rgba8888_mxt_9x60_wvga/debug/_ext/273632537/plib_tc0.o
                0x23f20614                TC0_CH0_TimerFrequencyGet
 .text.TC0_CH0_TimerPeriodSet
                0x23f20620       0x10 build/lcdc_rgba8888_mxt_9x60_wvga/debug/_ext/273632537/plib_tc0.o
                0x23f20620                TC0_CH0_TimerPeriodSet
 .text.TC0_CH0_TimerCompareSet
                0x23f20630       0x10 build/lcdc_rgba8888_mxt_9x60_wvga/debug/_ext/273632537/plib_tc0.o
                0x23f20630                TC0_CH0_TimerCompareSet
 .text.TC0_CH0_TimerCounterGet
                0x23f20640       0x10 build/lcdc_rgba8888_mxt_9x60_wvga/debug/_ext/273632537/plib_tc0.o
                0x23f20640                TC0_CH0_TimerCounterGet
 .text.TC0_CH0_TimerCallbackRegister
                0x23f20650       0x14 build/lcdc_rgba8888_mxt_9x60_wvga/debug/_ext/273632537/plib_tc0.o
                0x23f20650                TC0_CH0_TimerCallbackRegister
 .text.TC0_CH0_InterruptHandler
                0x23f20664       0x4c build/lcdc_rgba8888_mxt_9x60_wvga/debug/_ext/273632537/plib_tc0.o
 .text.TC0_CH1_TimerInitialize
                0x23f206b0       0x40 build/lcdc_rgba8888_mxt_9x60_wvga/debug/_ext/273632537/plib_tc0.o
                0x23f206b0                TC0_CH1_TimerInitialize
 .text.TC0_CH1_TimerStart
                0x23f206f0       0x14 build/lcdc_rgba8888_mxt_9x60_wvga/debug/_ext/273632537/plib_tc0.o
                0x23f206f0                TC0_CH1_TimerStart
 .text.TC0_CH1_TimerStop
                0x23f20704       0x14 build/lcdc_rgba8888_mxt_9x60_wvga/debug/_ext/273632537/plib_tc0.o
                0x23f20704                TC0_CH1_TimerStop
 .text.TC0_CH1_TimerCallbackRegister
                0x23f20718       0x14 build/lcdc_rgba8888_mxt_9x60_wvga/debug/_ext/273632537/plib_tc0.o
                0x23f20718                TC0_CH1_TimerCallbackRegister
 .text.TC0_CH1_InterruptHandler
                0x23f2072c       0x4c build/lcdc_rgba8888_mxt_9x60_wvga/debug/_ext/273632537/plib_tc0.o
 .text.TC0_InterruptHandler
                0x23f20778       0x10 build/lcdc_rgba8888_mxt_9x60_wvga/debug/_ext/273632537/plib_tc0.o
                0x23f20778                TC0_InterruptHandler
 .text.write    0x23f20788        0x8 build/lcdc_rgba8888_mxt_9x60_wvga/debug/_ext/129769842/xc32_monitor.o
                0x23f20788                write
 .text.SYS_INP_Init
                0x23f20790       0x44 build/lcdc_rgba8888_mxt_9x60_wvga/debug/_ext/256753733/sys_input.o
                0x23f20790                SYS_INP_Init
 .text.SYS_INP_Tasks
                0x23f207d4      0x1dc build/lcdc_rgba8888_mxt_9x60_wvga/debug/_ext/256753733/sys_input.o
                0x23f207d4                SYS_INP_Tasks
 .text.SYS_INP_AddListener
                0x23f209b0       0x84 build/lcdc_rgba8888_mxt_9x60_wvga/debug/_ext/256753733/sys_input.o
                0x23f209b0                SYS_INP_AddListener
 .text.SYS_INP_InjectTouchDown
                0x23f20a34       0x54 build/lcdc_rgba8888_mxt_9x60_wvga/debug/_ext/256753733/sys_input.o
                0x23f20a34                SYS_INP_InjectTouchDown
 .text.SYS_INP_InjectTouchUp
                0x23f20a88       0x54 build/lcdc_rgba8888_mxt_9x60_wvga/debug/_ext/256753733/sys_input.o
                0x23f20a88                SYS_INP_InjectTouchUp
 .text.SYS_INP_InjectTouchMove
                0x23f20adc       0x54 build/lcdc_rgba8888_mxt_9x60_wvga/debug/_ext/256753733/sys_input.o
                0x23f20adc                SYS_INP_InjectTouchMove
 .text.SYS_INT_Disable
                0x23f20b30        0xc build/lcdc_rgba8888_mxt_9x60_wvga/debug/_ext/1928812927/sys_int.o
                0x23f20b30                SYS_INT_Disable
 .text.SYS_INT_Restore
                0x23f20b3c        0xc build/lcdc_rgba8888_mxt_9x60_wvga/debug/_ext/1928812927/sys_int.o
                0x23f20b3c                SYS_INT_Restore
 .text.SYS_INT_SourceIsEnabled
                0x23f20b48       0x28 build/lcdc_rgba8888_mxt_9x60_wvga/debug/_ext/1928812927/sys_int.o
                0x23f20b48                SYS_INT_SourceIsEnabled
 .text.SYS_INT_SourceDisable
                0x23f20b70       0x3c build/lcdc_rgba8888_mxt_9x60_wvga/debug/_ext/1928812927/sys_int.o
                0x23f20b70                SYS_INT_SourceDisable
 .text.SYS_INT_SourceRestore
                0x23f20bac       0x30 build/lcdc_rgba8888_mxt_9x60_wvga/debug/_ext/1928812927/sys_int.o
                0x23f20bac                SYS_INT_SourceRestore
 .text.SYS_TIME_GetTimerObject
                0x23f20bdc       0x70 build/lcdc_rgba8888_mxt_9x60_wvga/debug/_ext/1359593799/sys_time.o
 .text.SYS_TIME_HwTimerCompareUpdate
                0x23f20c4c       0xfc build/lcdc_rgba8888_mxt_9x60_wvga/debug/_ext/1359593799/sys_time.o
 .text.SYS_TIME_RemoveFromList
                0x23f20d48       0x94 build/lcdc_rgba8888_mxt_9x60_wvga/debug/_ext/1359593799/sys_time.o
 .text.SYS_TIME_AddToList
                0x23f20ddc       0xe0 build/lcdc_rgba8888_mxt_9x60_wvga/debug/_ext/1359593799/sys_time.o
 .text.SYS_TIME_UpdateTimerList
                0x23f20ebc       0x74 build/lcdc_rgba8888_mxt_9x60_wvga/debug/_ext/1359593799/sys_time.o
 .text.SYS_TIME_ResourceLock
                0x23f20f30       0x58 build/lcdc_rgba8888_mxt_9x60_wvga/debug/_ext/1359593799/sys_time.o
 .text.SYS_TIME_ResourceUnlock
                0x23f20f88       0x2c build/lcdc_rgba8888_mxt_9x60_wvga/debug/_ext/1359593799/sys_time.o
 .text.SYS_TIME_TimerObjectCreate
                0x23f20fb4      0x12c build/lcdc_rgba8888_mxt_9x60_wvga/debug/_ext/1359593799/sys_time.o
 .text.SYS_TIME_TimerAdd
                0x23f210e0       0x74 build/lcdc_rgba8888_mxt_9x60_wvga/debug/_ext/1359593799/sys_time.o
 *fill*         0x23f21154        0x4 
 .text.SYS_TIME_Initialize
                0x23f21158      0x154 build/lcdc_rgba8888_mxt_9x60_wvga/debug/_ext/1359593799/sys_time.o
                0x23f21158                SYS_TIME_Initialize
 .text.SYS_TIME_TimerDestroy
                0x23f212ac       0x6c build/lcdc_rgba8888_mxt_9x60_wvga/debug/_ext/1359593799/sys_time.o
                0x23f212ac                SYS_TIME_TimerDestroy
 .text.SYS_TIME_PLIBCallback
                0x23f21318      0x174 build/lcdc_rgba8888_mxt_9x60_wvga/debug/_ext/1359593799/sys_time.o
 .text.SYS_TIME_TimerStart
                0x23f2148c       0x94 build/lcdc_rgba8888_mxt_9x60_wvga/debug/_ext/1359593799/sys_time.o
                0x23f2148c                SYS_TIME_TimerStart
 .text.SYS_TIME_TimerStop
                0x23f21520       0x6c build/lcdc_rgba8888_mxt_9x60_wvga/debug/_ext/1359593799/sys_time.o
                0x23f21520                SYS_TIME_TimerStop
 .text.SYS_TIME_TimerPeriodHasExpired
                0x23f2158c       0x40 build/lcdc_rgba8888_mxt_9x60_wvga/debug/_ext/1359593799/sys_time.o
                0x23f2158c                SYS_TIME_TimerPeriodHasExpired
 .text.SYS_TIME_DelayMS
                0x23f215cc       0x84 build/lcdc_rgba8888_mxt_9x60_wvga/debug/_ext/1359593799/sys_time.o
                0x23f215cc                SYS_TIME_DelayMS
 .text.SYS_TIME_DelayIsComplete
                0x23f21650       0x28 build/lcdc_rgba8888_mxt_9x60_wvga/debug/_ext/1359593799/sys_time.o
                0x23f21650                SYS_TIME_DelayIsComplete
 .text.SYS_TIME_CallbackRegisterMS
                0x23f21678       0x9c build/lcdc_rgba8888_mxt_9x60_wvga/debug/_ext/1359593799/sys_time.o
                0x23f21678                SYS_TIME_CallbackRegisterMS
 .text.undefined_instruction_irq_handler
                0x23f21714        0x4 build/lcdc_rgba8888_mxt_9x60_wvga/debug/_ext/1455094228/fault_handlers.o
                0x23f21714                undefined_instruction_irq_handler
 .text.software_interrupt_irq_handler
                0x23f21718        0x4 build/lcdc_rgba8888_mxt_9x60_wvga/debug/_ext/1455094228/fault_handlers.o
                0x23f21718                software_interrupt_irq_handler
 .text.data_abort_irq_handler
                0x23f2171c        0x4 build/lcdc_rgba8888_mxt_9x60_wvga/debug/_ext/1455094228/fault_handlers.o
                0x23f2171c                data_abort_irq_handler
 .text.prefetch_abort_irq_handler
                0x23f21720        0x4 build/lcdc_rgba8888_mxt_9x60_wvga/debug/_ext/1455094228/fault_handlers.o
                0x23f21720                prefetch_abort_irq_handler
 *fill*         0x23f21724        0xc 
 .text          0x23f21730       0xa0 build/lcdc_rgba8888_mxt_9x60_wvga/debug/_ext/1455094228/cstartup.o
 .text.SYSC_SharedHandler
                0x23f217d0        0xc build/lcdc_rgba8888_mxt_9x60_wvga/debug/_ext/1455094228/interrupts.o
                0x23f217d0                SYSC_SharedHandler
 .text.SPURIOUS_INTERRUPT_Handler
                0x23f217dc       0x18 build/lcdc_rgba8888_mxt_9x60_wvga/debug/_ext/1455094228/interrupts.o
                0x23f217dc                SPURIOUS_INTERRUPT_Handler
 .text.SYS_Initialize
                0x23f217f4       0xec build/lcdc_rgba8888_mxt_9x60_wvga/debug/_ext/1455094228/initialization.o
                0x23f217f4                SYS_Initialize
 .text.SYS_Tasks
                0x23f218e0       0x2c build/lcdc_rgba8888_mxt_9x60_wvga/debug/_ext/1455094228/tasks.o
                0x23f218e0                SYS_Tasks
 .text.RTT_Callback
                0x23f2190c       0xac build/lcdc_rgba8888_mxt_9x60_wvga/debug/_ext/1360937237/app.o
 .text.TC0_CH1_TimerInterruptHandler
                0x23f219b8       0x18 build/lcdc_rgba8888_mxt_9x60_wvga/debug/_ext/1360937237/app.o
                0x23f219b8                TC0_CH1_TimerInterruptHandler
 .text.event_Screen0_ButtonWidget_exit_OnReleased
                0x23f219d0        0x4 build/lcdc_rgba8888_mxt_9x60_wvga/debug/_ext/1360937237/app.o
                0x23f219d0                event_Screen0_ButtonWidget_exit_OnReleased
 .text.event_Screen0_ButtonWidget_pp_OnReleased
                0x23f219d4        0x4 build/lcdc_rgba8888_mxt_9x60_wvga/debug/_ext/1360937237/app.o
                0x23f219d4                event_Screen0_ButtonWidget_pp_OnReleased
 .text.event_Screen0_ButtonWidget_Opt_sound_OnReleased
                0x23f219d8        0x4 build/lcdc_rgba8888_mxt_9x60_wvga/debug/_ext/1360937237/app.o
                0x23f219d8                event_Screen0_ButtonWidget_Opt_sound_OnReleased
 .text.event_Screen0_ButtonWidget_Opt_preWash_OnReleased
                0x23f219dc        0x4 build/lcdc_rgba8888_mxt_9x60_wvga/debug/_ext/1360937237/app.o
                0x23f219dc                event_Screen0_ButtonWidget_Opt_preWash_OnReleased
 .text.event_Screen0_ButtonWidget_Options_OnReleased
                0x23f219e0       0x54 build/lcdc_rgba8888_mxt_9x60_wvga/debug/_ext/1360937237/app.o
                0x23f219e0                event_Screen0_ButtonWidget_Options_OnReleased
 .text.event_Screen0_ButtonWidget_Start_OnReleased
                0x23f21a34        0x4 build/lcdc_rgba8888_mxt_9x60_wvga/debug/_ext/1360937237/app.o
                0x23f21a34                event_Screen0_ButtonWidget_Start_OnReleased
 .text.Screen0_OnShow
                0x23f21a38       0xd4 build/lcdc_rgba8888_mxt_9x60_wvga/debug/_ext/1360937237/app.o
                0x23f21a38                Screen0_OnShow
 .text.showAllOptionButtons
                0x23f21b0c       0xac build/lcdc_rgba8888_mxt_9x60_wvga/debug/_ext/1360937237/app.o
                0x23f21b0c                showAllOptionButtons
 .text.hideAllOptionButtons
                0x23f21bb8       0x5c build/lcdc_rgba8888_mxt_9x60_wvga/debug/_ext/1360937237/app.o
                0x23f21bb8                hideAllOptionButtons
 .text.event_Screen0_ButtonWidget_Opt_close_OnReleased
                0x23f21c14       0x40 build/lcdc_rgba8888_mxt_9x60_wvga/debug/_ext/1360937237/app.o
                0x23f21c14                event_Screen0_ButtonWidget_Opt_close_OnReleased
 .text.doneOptionAnime
                0x23f21c54       0x70 build/lcdc_rgba8888_mxt_9x60_wvga/debug/_ext/1360937237/app.o
                0x23f21c54                doneOptionAnime
 .text.showAllSoilButtons
                0x23f21cc4       0x58 build/lcdc_rgba8888_mxt_9x60_wvga/debug/_ext/1360937237/app.o
                0x23f21cc4                showAllSoilButtons
 .text.hideAllSoilButtons
                0x23f21d1c       0x40 build/lcdc_rgba8888_mxt_9x60_wvga/debug/_ext/1360937237/app.o
                0x23f21d1c                hideAllSoilButtons
 .text.event_Screen0_ButtonWidget_sl1_OnReleased
                0x23f21d5c       0x80 build/lcdc_rgba8888_mxt_9x60_wvga/debug/_ext/1360937237/app.o
                0x23f21d5c                event_Screen0_ButtonWidget_sl1_OnReleased
 .text.event_Screen0_ButtonWidget_sl2_OnReleased
                0x23f21ddc       0x40 build/lcdc_rgba8888_mxt_9x60_wvga/debug/_ext/1360937237/app.o
                0x23f21ddc                event_Screen0_ButtonWidget_sl2_OnReleased
 .text.event_Screen0_ButtonWidget_sl3_OnReleased
                0x23f21e1c       0x40 build/lcdc_rgba8888_mxt_9x60_wvga/debug/_ext/1360937237/app.o
                0x23f21e1c                event_Screen0_ButtonWidget_sl3_OnReleased
 .text.doneSoilAnime
                0x23f21e5c       0x38 build/lcdc_rgba8888_mxt_9x60_wvga/debug/_ext/1360937237/app.o
                0x23f21e5c                doneSoilAnime
 .text.showAllTempButtons
                0x23f21e94       0x58 build/lcdc_rgba8888_mxt_9x60_wvga/debug/_ext/1360937237/app.o
                0x23f21e94                showAllTempButtons
 .text.hideAllTempButtons
                0x23f21eec       0x40 build/lcdc_rgba8888_mxt_9x60_wvga/debug/_ext/1360937237/app.o
                0x23f21eec                hideAllTempButtons
 .text.event_Screen0_ButtonWidget_t1_OnReleased
                0x23f21f2c       0x78 build/lcdc_rgba8888_mxt_9x60_wvga/debug/_ext/1360937237/app.o
                0x23f21f2c                event_Screen0_ButtonWidget_t1_OnReleased
 .text.event_Screen0_ButtonWidget_t2_OnReleased
                0x23f21fa4       0x3c build/lcdc_rgba8888_mxt_9x60_wvga/debug/_ext/1360937237/app.o
                0x23f21fa4                event_Screen0_ButtonWidget_t2_OnReleased
 .text.event_Screen0_ButtonWidget_t3_OnReleased
                0x23f21fe0       0x3c build/lcdc_rgba8888_mxt_9x60_wvga/debug/_ext/1360937237/app.o
                0x23f21fe0                event_Screen0_ButtonWidget_t3_OnReleased
 .text.doneTempAnime
                0x23f2201c       0x38 build/lcdc_rgba8888_mxt_9x60_wvga/debug/_ext/1360937237/app.o
                0x23f2201c                doneTempAnime
 .text.doneProgramAnime
                0x23f22054       0x38 build/lcdc_rgba8888_mxt_9x60_wvga/debug/_ext/1360937237/app.o
                0x23f22054                doneProgramAnime
 .text.showAllProgramButtons
                0x23f2208c       0x74 build/lcdc_rgba8888_mxt_9x60_wvga/debug/_ext/1360937237/app.o
                0x23f2208c                showAllProgramButtons
 .text.TC1_CH0_TimerInterruptHandler
                0x23f22100      0x250 build/lcdc_rgba8888_mxt_9x60_wvga/debug/_ext/1360937237/app.o
                0x23f22100                TC1_CH0_TimerInterruptHandler
 .text.hideAllProgramButtons
                0x23f22350       0x5c build/lcdc_rgba8888_mxt_9x60_wvga/debug/_ext/1360937237/app.o
                0x23f22350                hideAllProgramButtons
 .text.event_Screen0_ButtonWidget_p1_OnReleased
                0x23f223ac       0x80 build/lcdc_rgba8888_mxt_9x60_wvga/debug/_ext/1360937237/app.o
                0x23f223ac                event_Screen0_ButtonWidget_p1_OnReleased
 .text.event_Screen0_ButtonWidget_p2_OnReleased
                0x23f2242c       0x3c build/lcdc_rgba8888_mxt_9x60_wvga/debug/_ext/1360937237/app.o
                0x23f2242c                event_Screen0_ButtonWidget_p2_OnReleased
 .text.event_Screen0_ButtonWidget_p3_OnReleased
                0x23f22468       0x3c build/lcdc_rgba8888_mxt_9x60_wvga/debug/_ext/1360937237/app.o
                0x23f22468                event_Screen0_ButtonWidget_p3_OnReleased
 .text.init_anim_images
                0x23f224a4      0x134 build/lcdc_rgba8888_mxt_9x60_wvga/debug/_ext/1360937237/app.o
                0x23f224a4                init_anim_images
 .text.APP_Initialize
                0x23f225d8      0x174 build/lcdc_rgba8888_mxt_9x60_wvga/debug/_ext/1360937237/app.o
                0x23f225d8                APP_Initialize
 .text.APP_Tasks
                0x23f2274c      0x2b4 build/lcdc_rgba8888_mxt_9x60_wvga/debug/_ext/1360937237/app.o
                0x23f2274c                APP_Tasks
 .text.main     0x23f22a00       0x14 build/lcdc_rgba8888_mxt_9x60_wvga/debug/_ext/1360937237/main.o
                0x23f22a00                main
 .text          0x23f22a14       0xc8 c:/program files/microchip/xc32/v4.21/bin/bin/../../lib/gcc/pic32c/8.3.1/arm/v5te/nofp\libgcc.a(_udivsi3.o)
                0x23f22a14                __aeabi_uidiv
                0x23f22a14                __udivsi3
                0x23f22abc                __aeabi_uidivmod
 .text          0x23f22adc       0xfc c:/program files/microchip/xc32/v4.21/bin/bin/../../lib/gcc/pic32c/8.3.1/arm/v5te/nofp\libgcc.a(_divsi3.o)
                0x23f22adc                __divsi3
                0x23f22adc                __aeabi_idiv
                0x23f22bb8                __aeabi_idivmod
 .text          0x23f22bd8        0x4 c:/program files/microchip/xc32/v4.21/bin/bin/../../lib/gcc/pic32c/8.3.1/arm/v5te/nofp\libgcc.a(_dvmd_tls.o)
                0x23f22bd8                __aeabi_idiv0
                0x23f22bd8                __aeabi_ldiv0
 .text          0x23f22bdc      0x250 c:/program files/microchip/xc32/v4.21/bin/bin/../../lib/gcc/pic32c/8.3.1/arm/v5te/nofp\libgcc.a(_arm_addsubsf3.o)
                0x23f22bdc                __aeabi_frsub
                0x23f22be4                __subsf3
                0x23f22be4                __aeabi_fsub
                0x23f22be8                __aeabi_fadd
                0x23f22be8                __addsf3
                0x23f22d78                __aeabi_ui2f
                0x23f22d78                __floatunsisf
                0x23f22d80                __aeabi_i2f
                0x23f22d80                __floatsisf
                0x23f22da0                __aeabi_ul2f
                0x23f22da0                __floatundisf
                0x23f22db0                __aeabi_l2f
                0x23f22db0                __floatdisf
 .text          0x23f22e2c      0x2f8 c:/program files/microchip/xc32/v4.21/bin/bin/../../lib/gcc/pic32c/8.3.1/arm/v5te/nofp\libgcc.a(_arm_muldivsf3.o)
                0x23f22e2c                __mulsf3
                0x23f22e2c                __aeabi_fmul
                0x23f22fc4                __aeabi_fdiv
                0x23f22fc4                __divsf3
 .text          0x23f23124       0xfc c:/program files/microchip/xc32/v4.21/bin/bin/../../lib/gcc/pic32c/8.3.1/arm/v5te/nofp\libgcc.a(_arm_cmpsf2.o)
                0x23f23124                __gesf2
                0x23f23124                __gtsf2
                0x23f2312c                __lesf2
                0x23f2312c                __ltsf2
                0x23f23134                __nesf2
                0x23f23134                __eqsf2
                0x23f23134                __cmpsf2
                0x23f23198                __aeabi_cfrcmple
                0x23f231a8                __aeabi_cfcmpeq
                0x23f231a8                __aeabi_cfcmple
                0x23f231bc                __aeabi_fcmpeq
                0x23f231d0                __aeabi_fcmplt
                0x23f231e4                __aeabi_fcmple
                0x23f231f8                __aeabi_fcmpge
                0x23f2320c                __aeabi_fcmpgt
 .text          0x23f23220       0x5c c:/program files/microchip/xc32/v4.21/bin/bin/../../lib/gcc/pic32c/8.3.1/arm/v5te/nofp\libgcc.a(_arm_fixsfsi.o)
                0x23f23220                __aeabi_f2iz
                0x23f23220                __fixsfsi
 .text          0x23f2327c       0x54 c:/program files/microchip/xc32/v4.21/bin/bin/../../lib/gcc/pic32c/8.3.1/arm/v5te/nofp\libgcc.a(_arm_fixunssfsi.o)
                0x23f2327c                __fixunssfsi
                0x23f2327c                __aeabi_f2uiz
 .text          0x23f232d0       0x3c c:/program files/microchip/xc32/v4.21/bin/bin/../../lib/gcc/pic32c/8.3.1/arm/v5te/nofp\libgcc.a(_aeabi_uldivmod.o)
                0x23f232d0                __aeabi_uldivmod
 .text          0x23f2330c      0x12c c:/program files/microchip/xc32/v4.21/bin/bin/../../lib/gcc/pic32c/8.3.1/arm/v5te/nofp\libgcc.a(_udivmoddi4.o)
                0x23f2330c                __udivmoddi4
 .text.__dummy  0x23f23438        0x4 c:/program files/microchip/xc32/v4.21/bin/bin/../../lib/gcc/pic32c/8.3.1/../../../../pic32c/lib/arm/v5te/nofp\libg-musl.a(__libc_start_main.o)
                0x23f23438                __init_host
 .text.__libc_start_init
                0x23f2343c       0x88 c:/program files/microchip/xc32/v4.21/bin/bin/../../lib/gcc/pic32c/8.3.1/../../../../pic32c/lib/arm/v5te/nofp\libg-musl.a(__libc_start_main.o)
                0x23f2343c                __libc_init_array
 .text.__wrap_sprintf
                0x23f234c4       0x28 c:/program files/microchip/xc32/v4.21/bin/bin/../../lib/gcc/pic32c/8.3.1/../../../../pic32c/lib/arm/v5te/nofp\libg-musl.a(__sio_sprintf_dosux.o)
                0x23f234c4                __sprintf_dis
                0x23f234c4                _sprintf_cdnopsuxX
                0x23f234c4                _dsprintf_cdnopsuxX
 .text.__fmt_d  0x23f234ec      0x118 c:/program files/microchip/xc32/v4.21/bin/bin/../../lib/gcc/pic32c/8.3.1/../../../../pic32c/lib/arm/v5te/nofp\libg-musl.a(__fmt_d.o)
                0x23f234ec                __fmt_d
                0x23f234ec                __fmt_d_needed
 .text.__fmt_o  0x23f23604       0xbc c:/program files/microchip/xc32/v4.21/bin/bin/../../lib/gcc/pic32c/8.3.1/../../../../pic32c/lib/arm/v5te/nofp\libg-musl.a(__fmt_o.o)
                0x23f23604                __fmt_o
                0x23f23604                __fmt_o_needed
 .text.__fmt_s  0x23f236c0       0x88 c:/program files/microchip/xc32/v4.21/bin/bin/../../lib/gcc/pic32c/8.3.1/../../../../pic32c/lib/arm/v5te/nofp\libg-musl.a(__fmt_s.o)
                0x23f236c0                __fmt_s
                0x23f236c0                __fmt_0_needed
                0x23f236c0                __fmt_s_needed
 .text.__cvt_u  0x23f23748       0xb8 c:/program files/microchip/xc32/v4.21/bin/bin/../../lib/gcc/pic32c/8.3.1/../../../../pic32c/lib/arm/v5te/nofp\libg-musl.a(__fmt_u.o)
                0x23f23748                __cvt_u
 .text.__fmt_u  0x23f23800       0x94 c:/program files/microchip/xc32/v4.21/bin/bin/../../lib/gcc/pic32c/8.3.1/../../../../pic32c/lib/arm/v5te/nofp\libg-musl.a(__fmt_u.o)
                0x23f23800                __fmt_u_needed
                0x23f23800                __fmt_u
 .text.__fmt_x  0x23f23894      0x1a0 c:/program files/microchip/xc32/v4.21/bin/bin/../../lib/gcc/pic32c/8.3.1/../../../../pic32c/lib/arm/v5te/nofp\libg-musl.a(__fmt_x.o)
                0x23f23894                __fmt_x_needed
                0x23f23894                __fmt_x
 .text.__pop_int
                0x23f23a34      0x164 c:/program files/microchip/xc32/v4.21/bin/bin/../../lib/gcc/pic32c/8.3.1/../../../../pic32c/lib/arm/v5te/nofp\libg-musl.a(__pop_int.o)
                0x23f23a34                __pop_int_needed
                0x23f23a34                __pop_int
 .text.__pop_ptr
                0x23f23b98       0xec c:/program files/microchip/xc32/v4.21/bin/bin/../../lib/gcc/pic32c/8.3.1/../../../../pic32c/lib/arm/v5te/nofp\libg-musl.a(__pop_ptr.o)
                0x23f23b98                __pop_ptr
                0x23f23b98                __pop_ptr_needed
 .text.__pad    0x23f23c84       0xc0 c:/program files/microchip/xc32/v4.21/bin/bin/../../lib/gcc/pic32c/8.3.1/../../../../pic32c/lib/arm/v5te/nofp\libg-musl.a(__printf_core.o)
                0x23f23c84                __pad
 .text.__dummy_fmt4
                0x23f23d44        0x8 c:/program files/microchip/xc32/v4.21/bin/bin/../../lib/gcc/pic32c/8.3.1/../../../../pic32c/lib/arm/v5te/nofp\libg-musl.a(__printf_core.o)
                0x23f23d44                __fmt_fp
                0x23f23d44                __fmt_a
 .text.__fmt_state
                0x23f23d4c       0x74 c:/program files/microchip/xc32/v4.21/bin/bin/../../lib/gcc/pic32c/8.3.1/../../../../pic32c/lib/arm/v5te/nofp\libg-musl.a(__printf_core.o)
                0x23f23d4c                __fmt_state
 .text.__printf_core
                0x23f23dc0      0x520 c:/program files/microchip/xc32/v4.21/bin/bin/../../lib/gcc/pic32c/8.3.1/../../../../pic32c/lib/arm/v5te/nofp\libg-musl.a(__printf_core.o)
                0x23f23dc0                __printf_core
 .text.__init_stdout
                0x23f242e0       0x1c c:/program files/microchip/xc32/v4.21/bin/bin/../../lib/gcc/pic32c/8.3.1/../../../../pic32c/lib/arm/v5te/nofp\libg-musl.a(stdout.o)
                0x23f242e0                __init_stdout
 .text.atoi     0x23f242fc       0x7c c:/program files/microchip/xc32/v4.21/bin/bin/../../lib/gcc/pic32c/8.3.1/../../../../pic32c/lib/arm/v5te/nofp\libg-musl.a(atoi.o)
                0x23f242fc                atoi
 .text.memcpy   0x23f24378       0x1c c:/program files/microchip/xc32/v4.21/bin/bin/../../lib/gcc/pic32c/8.3.1/../../../../pic32c/lib/arm/v5te/nofp\libg-musl.a(memcpy.o)
                0x23f24378                memcpy
 .text.memset   0x23f24394       0x18 c:/program files/microchip/xc32/v4.21/bin/bin/../../lib/gcc/pic32c/8.3.1/../../../../pic32c/lib/arm/v5te/nofp\libg-musl.a(memset.o)
                0x23f24394                memset
 .text.strlen   0x23f243ac       0x20 c:/program files/microchip/xc32/v4.21/bin/bin/../../lib/gcc/pic32c/8.3.1/../../../../pic32c/lib/arm/v5te/nofp\libg-musl.a(strlen.o)
                0x23f243ac                strlen
 .text.tolower  0x23f243cc       0x10 c:/program files/microchip/xc32/v4.21/bin/bin/../../lib/gcc/pic32c/8.3.1/../../../../pic32c/lib/arm/v5te/nofp\libg-musl.a(tolower.o)
                0x23f243cc                tolower
 .text.toupper  0x23f243dc       0x10 c:/program files/microchip/xc32/v4.21/bin/bin/../../lib/gcc/pic32c/8.3.1/../../../../pic32c/lib/arm/v5te/nofp\libg-musl.a(toupper.o)
                0x23f243dc                toupper
 .text.__vfprintf
                0x23f243ec       0x28 c:/program files/microchip/xc32/v4.21/bin/bin/../../lib/gcc/pic32c/8.3.1/../../../../pic32c/lib/arm/v5te/nofp\libg-musl.a(__int_vfprintf.o)
                0x23f243ec                __vfprintf
 .text.__vsprintf
                0x23f24414       0x10 c:/program files/microchip/xc32/v4.21/bin/bin/../../lib/gcc/pic32c/8.3.1/../../../../pic32c/lib/arm/v5te/nofp\libg-musl.a(__int_vsprintf.o)
                0x23f24414                __vsprintf
 .text.__pop_float
                0x23f24424       0x44 c:/program files/microchip/xc32/v4.21/bin/bin/../../lib/gcc/pic32c/8.3.1/../../../../pic32c/lib/arm/v5te/nofp\libg-musl.a(__pop_float.o)
                0x23f24424                __pop_float_needed
                0x23f24424                __pop_float
 .text.__vsnprintf
                0x23f24468       0x84 c:/program files/microchip/xc32/v4.21/bin/bin/../../lib/gcc/pic32c/8.3.1/../../../../pic32c/lib/arm/v5te/nofp\libg-musl.a(__int_vsnprintf.o)
                0x23f24468                __vsnprintf
 .text.__dummy  0x23f244ec        0x4 c:/program files/microchip/xc32/v4.21/bin/bin/../../lib/gcc/pic32c/8.3.1/../../../../pic32c/lib/arm/v5te/nofp\libg-musl.a(__init_stdio.o)
                0x23f244ec                __init_stdin
                0x23f244ec                __init_stderr
 .text.__init_stdio
                0x23f244f0       0x14 c:/program files/microchip/xc32/v4.21/bin/bin/../../lib/gcc/pic32c/8.3.1/../../../../pic32c/lib/arm/v5te/nofp\libg-musl.a(__init_stdio.o)
                0x23f244f0                __init_stdio_needed
                0x23f244f0                __init_stdio
 .text.__fwrite_min
                0x23f24504        0x8 c:/program files/microchip/xc32/v4.21/bin/bin/../../lib/gcc/pic32c/8.3.1/../../../../pic32c/lib/arm/v5te/nofp\libg-musl.a(__out.o)
                0x23f24504                __stdio_write_unbuffered
                0x23f24504                __stdio_write
 .text.__out    0x23f2450c       0x68 c:/program files/microchip/xc32/v4.21/bin/bin/../../lib/gcc/pic32c/8.3.1/../../../../pic32c/lib/arm/v5te/nofp\libg-musl.a(__out.o)
                0x23f2450c                __out
                0x23f2450c                __out_needed
 .text.__stdio_close_rw
                0x23f24574       0xa8 c:/program files/microchip/xc32/v4.21/bin/bin/../../lib/gcc/pic32c/8.3.1/../../../../pic32c/lib/arm/v5te/nofp\libg-musl.a(__stdio_close.o)
                0x23f24574                __stdio_close_rw
 .text.__stdio_seek_unbuffered
                0x23f2461c       0x2c c:/program files/microchip/xc32/v4.21/bin/bin/../../lib/gcc/pic32c/8.3.1/../../../../pic32c/lib/arm/v5te/nofp\libg-musl.a(__stdio_seek.o)
                0x23f2461c                __stdio_seek_unbuffered
                0x23f2461c                __stdio_seek_needed
 .text.__stdio_seek
                0x23f24648       0x74 c:/program files/microchip/xc32/v4.21/bin/bin/../../lib/gcc/pic32c/8.3.1/../../../../pic32c/lib/arm/v5te/nofp\libg-musl.a(__stdio_seek.o)
                0x23f24648                __stdio_seek
 .text.__get_stdout
                0x23f246bc        0xc c:/program files/microchip/xc32/v4.21/bin/bin/../../lib/gcc/pic32c/8.3.1/../../../../pic32c/lib/arm/v5te/nofp\libg-musl.a(__stdout.o)
                0x23f246bc                __get_stdout
                0x23f246bc                __init_stdout_needed
 .text.__fwrite
                0x23f246c8       0x28 c:/program files/microchip/xc32/v4.21/bin/bin/../../lib/gcc/pic32c/8.3.1/../../../../pic32c/lib/arm/v5te/nofp\libg-musl.a(__fwrite.o)
                0x23f246c8                __fwrite
                0x23f246c8                __fwrite_needed
 .text.lseek    0x23f246f0        0x8 c:/program files/microchip/xc32/v4.21/bin/bin/../../lib/gcc/pic32c/8.3.1/../../../../pic32c/lib/arm/v5te/nofp\libpic32c.a(lseek.o)
                0x23f246f0                lseek
 *(.rodata .rodata* .gnu.linkonce.r.*)
 .rodata.progress
                0x23f246f8       0x24 build/lcdc_rgba8888_mxt_9x60_wvga/debug/_ext/802015102/drv_maxtouch.o
 .rodata.gfxDriverInterface
                0x23f2471c        0xc build/lcdc_rgba8888_mxt_9x60_wvga/debug/_ext/51791817/gfx_canvas.o
                0x23f2471c                gfxDriverInterface
 .rodata.lcdcDisplayDriver
                0x23f24728        0xc build/lcdc_rgba8888_mxt_9x60_wvga/debug/_ext/51791817/gfx_canvas.o
 .rodata.gfxColorInfoTable
                0x23f24734      0x160 build/lcdc_rgba8888_mxt_9x60_wvga/debug/_ext/95971993/gfx_driver.o
                0x23f24734                gfxColorInfoTable
 .rodata.lcdcLayerZOrder
                0x23f24894        0x4 build/lcdc_rgba8888_mxt_9x60_wvga/debug/_ext/1886796627/drv_gfx_lcdc.o
 .rodata._cosTable
                0x23f24898       0xb8 build/lcdc_rgba8888_mxt_9x60_wvga/debug/_ext/1483321925/legato_math.o
                0x23f24898                _cosTable
 .rodata.leColorInfoTable
                0x23f24950      0x160 build/lcdc_rgba8888_mxt_9x60_wvga/debug/_ext/1483321925/legato_color.o
                0x23f24950                leColorInfoTable
 .rodata.leDefaultScheme
                0x23f24ab0      0x2c8 build/lcdc_rgba8888_mxt_9x60_wvga/debug/_ext/1553762159/legato_scheme.o
                0x23f24ab0                leDefaultScheme
 .rodata.NotoSans_Bold_data
                0x23f24d78      0x770 build/lcdc_rgba8888_mxt_9x60_wvga/debug/_ext/528922783/le_gen_fonts.o
                0x23f24d78                NotoSans_Bold_data
 .rodata.NotoSans_Bold_glyphs
                0x23f254e8     0x65b4 build/lcdc_rgba8888_mxt_9x60_wvga/debug/_ext/528922783/le_gen_fonts.o
                0x23f254e8                NotoSans_Bold_glyphs
 .rodata.NotoSans_regular_data
                0x23f2ba9c      0x770 build/lcdc_rgba8888_mxt_9x60_wvga/debug/_ext/528922783/le_gen_fonts.o
                0x23f2ba9c                NotoSans_regular_data
 .rodata.NotoSans_regular_glyphs
                0x23f2c20c      0xef4 build/lcdc_rgba8888_mxt_9x60_wvga/debug/_ext/528922783/le_gen_fonts.o
                0x23f2c20c                NotoSans_regular_glyphs
 .rodata.NoyoSans_Medium_data
                0x23f2d100      0x770 build/lcdc_rgba8888_mxt_9x60_wvga/debug/_ext/528922783/le_gen_fonts.o
                0x23f2d100                NoyoSans_Medium_data
 .rodata.NoyoSans_Medium_glyphs
                0x23f2d870     0x20a4 build/lcdc_rgba8888_mxt_9x60_wvga/debug/_ext/528922783/le_gen_fonts.o
                0x23f2d870                NoyoSans_Medium_glyphs
 .rodata.image5_data
                0x23f2f914    0x8ca00 build/lcdc_rgba8888_mxt_9x60_wvga/debug/_ext/780564725/image5.o
                0x23f2f914                image5_data
 .rodata.r3_data
                0x23fbc314    0x3f674 build/lcdc_rgba8888_mxt_9x60_wvga/debug/_ext/780564725/r3.o
                0x23fbc314                r3_data
 .rodata.low_but_up_data
                0x23ffb988      0xfc8 build/lcdc_rgba8888_mxt_9x60_wvga/debug/_ext/780564725/low_but_up.o
                0x23ffb988                low_but_up_data
 .rodata.image6_data
                0x23ffc950    0x8ca00 build/lcdc_rgba8888_mxt_9x60_wvga/debug/_ext/780564725/image6.o
                0x23ffc950                image6_data
 .rodata.r2_data
                0x24089350    0x3f674 build/lcdc_rgba8888_mxt_9x60_wvga/debug/_ext/780564725/r2.o
                0x24089350                r2_data
 .rodata.sports_but_down_data
                0x240c89c4     0x14e0 build/lcdc_rgba8888_mxt_9x60_wvga/debug/_ext/780564725/sports_but_down.o
                0x240c89c4                sports_but_down_data
 .rodata.warm_but_down_data
                0x240c9ea4     0x1964 build/lcdc_rgba8888_mxt_9x60_wvga/debug/_ext/780564725/warm_but_down.o
                0x240c9ea4                warm_but_down_data
 .rodata.logoH_data
                0x240cb808     0x7688 build/lcdc_rgba8888_mxt_9x60_wvga/debug/_ext/780564725/logoH.o
                0x240cb808                logoH_data
 .rodata.image7_data
                0x240d2e90    0x8ca00 build/lcdc_rgba8888_mxt_9x60_wvga/debug/_ext/780564725/image7.o
                0x240d2e90                image7_data
 .rodata.hot_but_down_data
                0x2415f890     0x1524 build/lcdc_rgba8888_mxt_9x60_wvga/debug/_ext/780564725/hot_but_down.o
                0x2415f890                hot_but_down_data
 .rodata.r1_data
                0x24160db4    0x3f674 build/lcdc_rgba8888_mxt_9x60_wvga/debug/_ext/780564725/r1.o
                0x24160db4                r1_data
 .rodata.high_but_down_data
                0x241a0428     0x13a0 build/lcdc_rgba8888_mxt_9x60_wvga/debug/_ext/780564725/high_but_down.o
                0x241a0428                high_but_down_data
 .rodata.image8_data
                0x241a17c8    0x8ca00 build/lcdc_rgba8888_mxt_9x60_wvga/debug/_ext/780564725/image8.o
                0x241a17c8                image8_data
 .rodata.round_exit_data
                0x2422e1c8      0x598 build/lcdc_rgba8888_mxt_9x60_wvga/debug/_ext/780564725/round_exit.o
                0x2422e1c8                round_exit_data
 .rodata.image1_data
                0x2422e760    0x8ca00 build/lcdc_rgba8888_mxt_9x60_wvga/debug/_ext/780564725/image1.o
                0x2422e760                image1_data
 .rodata.start_but_up_data
                0x242bb160     0x125c build/lcdc_rgba8888_mxt_9x60_wvga/debug/_ext/780564725/start_but_up.o
                0x242bb160                start_but_up_data
 .rodata.round_button_data
                0x242bc3bc     0x1004 build/lcdc_rgba8888_mxt_9x60_wvga/debug/_ext/780564725/round_button.o
                0x242bc3bc                round_button_data
 .rodata.r7_data
                0x242bd3c0    0x3f674 build/lcdc_rgba8888_mxt_9x60_wvga/debug/_ext/780564725/r7.o
                0x242bd3c0                r7_data
 .rodata.image2_data
                0x242fca34    0x8ca00 build/lcdc_rgba8888_mxt_9x60_wvga/debug/_ext/780564725/image2.o
                0x242fca34                image2_data
 .rodata.r6_data
                0x24389434    0x3f674 build/lcdc_rgba8888_mxt_9x60_wvga/debug/_ext/780564725/r6.o
                0x24389434                r6_data
 .rodata.image10_data
                0x243c8aa8    0x8ca00 build/lcdc_rgba8888_mxt_9x60_wvga/debug/_ext/780564725/image10.o
                0x243c8aa8                image10_data
 .rodata.close_data
                0x244554a8     0x1194 build/lcdc_rgba8888_mxt_9x60_wvga/debug/_ext/780564725/close.o
                0x244554a8                close_data
 .rodata.image3_data
                0x2445663c    0x8ca00 build/lcdc_rgba8888_mxt_9x60_wvga/debug/_ext/780564725/image3.o
                0x2445663c                image3_data
 .rodata.wool_but_down_data
                0x244e303c     0x122c build/lcdc_rgba8888_mxt_9x60_wvga/debug/_ext/780564725/wool_but_down.o
                0x244e303c                wool_but_down_data
 .rodata.r5_data
                0x244e4268    0x3f674 build/lcdc_rgba8888_mxt_9x60_wvga/debug/_ext/780564725/r5.o
                0x244e4268                r5_data
 .rodata.image11_data
                0x245238dc    0x8ca00 build/lcdc_rgba8888_mxt_9x60_wvga/debug/_ext/780564725/image11.o
                0x245238dc                image11_data
 .rodata.start_but_down_data
                0x245b02dc     0x10d8 build/lcdc_rgba8888_mxt_9x60_wvga/debug/_ext/780564725/start_but_down.o
                0x245b02dc                start_but_down_data
 .rodata.image4_data
                0x245b13b4    0x8ca00 build/lcdc_rgba8888_mxt_9x60_wvga/debug/_ext/780564725/image4.o
                0x245b13b4                image4_data
 .rodata.r4_data
                0x2463ddb4    0x3f674 build/lcdc_rgba8888_mxt_9x60_wvga/debug/_ext/780564725/r4.o
                0x2463ddb4                r4_data
 .rodata.image12_data
                0x2467d428    0x8ca00 build/lcdc_rgba8888_mxt_9x60_wvga/debug/_ext/780564725/image12.o
                0x2467d428                image12_data
 .rodata.bed_but_down_data
                0x24709e28     0x1658 build/lcdc_rgba8888_mxt_9x60_wvga/debug/_ext/780564725/bed_but_down.o
                0x24709e28                bed_but_down_data
 .rodata.warm_but_up_data
                0x2470b480     0x19dc build/lcdc_rgba8888_mxt_9x60_wvga/debug/_ext/780564725/warm_but_up.o
                0x2470b480                warm_but_up_data
 .rodata.r12_data
                0x2470ce5c    0x3f674 build/lcdc_rgba8888_mxt_9x60_wvga/debug/_ext/780564725/r12.o
                0x2470ce5c                r12_data
 .rodata.hot_but_up_data
                0x2474c4d0     0x1594 build/lcdc_rgba8888_mxt_9x60_wvga/debug/_ext/780564725/hot_but_up.o
                0x2474c4d0                hot_but_up_data
 .rodata.r11_data
                0x2474da64    0x3f674 build/lcdc_rgba8888_mxt_9x60_wvga/debug/_ext/780564725/r11.o
                0x2474da64                r11_data
 .rodata.normal_but_up_data
                0x2478d0d8     0x1614 build/lcdc_rgba8888_mxt_9x60_wvga/debug/_ext/780564725/normal_but_up.o
                0x2478d0d8                normal_but_up_data
 .rodata.options_but_down_data
                0x2478e6ec     0x1728 build/lcdc_rgba8888_mxt_9x60_wvga/debug/_ext/780564725/options_but_down.o
                0x2478e6ec                options_but_down_data
 .rodata.r9_data
                0x2478fe14    0x3f674 build/lcdc_rgba8888_mxt_9x60_wvga/debug/_ext/780564725/r9.o
                0x2478fe14                r9_data
 .rodata.template_data
                0x247cf488      0x624 build/lcdc_rgba8888_mxt_9x60_wvga/debug/_ext/780564725/template.o
                0x247cf488                template_data
 .rodata.r10_data
                0x247cfaac    0x3f674 build/lcdc_rgba8888_mxt_9x60_wvga/debug/_ext/780564725/r10.o
                0x247cfaac                r10_data
 .rodata.prewash_but_off_data
                0x2480f120     0x190c build/lcdc_rgba8888_mxt_9x60_wvga/debug/_ext/780564725/prewash_but_off.o
                0x2480f120                prewash_but_off_data
 .rodata.xrinse_but_off_data
                0x24810a2c     0x1784 build/lcdc_rgba8888_mxt_9x60_wvga/debug/_ext/780564725/xrinse_but_off.o
                0x24810a2c                xrinse_but_off_data
 .rodata.options_but_up_data
                0x248121b0     0x10a4 build/lcdc_rgba8888_mxt_9x60_wvga/debug/_ext/780564725/options_but_up.o
                0x248121b0                options_but_up_data
 .rodata.sound_but_on_data
                0x24813254     0x16b0 build/lcdc_rgba8888_mxt_9x60_wvga/debug/_ext/780564725/sound_but_on.o
                0x24813254                sound_but_on_data
 .rodata.r8_data
                0x24814904    0x3f674 build/lcdc_rgba8888_mxt_9x60_wvga/debug/_ext/780564725/r8.o
                0x24814904                r8_data
 .rodata.high_but_up_data
                0x24853f78     0x12b0 build/lcdc_rgba8888_mxt_9x60_wvga/debug/_ext/780564725/high_but_up.o
                0x24853f78                high_but_up_data
 .rodata.cold_but_up_data
                0x24855228     0x175c build/lcdc_rgba8888_mxt_9x60_wvga/debug/_ext/780564725/cold_but_up.o
                0x24855228                cold_but_up_data
 .rodata.image9_data
                0x24856984    0x8ca00 build/lcdc_rgba8888_mxt_9x60_wvga/debug/_ext/780564725/image9.o
                0x24856984                image9_data
 .rodata.medium_but_up_data
                0x248e3384     0x18d0 build/lcdc_rgba8888_mxt_9x60_wvga/debug/_ext/780564725/medium_but_up.o
                0x248e3384                medium_but_up_data
 .rodata.sports_but_up_data
                0x248e4c54     0x1570 build/lcdc_rgba8888_mxt_9x60_wvga/debug/_ext/780564725/sports_but_up.o
                0x248e4c54                sports_but_up_data
 .rodata.medium_but_down_data
                0x248e61c4     0x1968 build/lcdc_rgba8888_mxt_9x60_wvga/debug/_ext/780564725/medium_but_down.o
                0x248e61c4                medium_but_down_data
 .rodata.wool_but_up_data
                0x248e7b2c     0x11e4 build/lcdc_rgba8888_mxt_9x60_wvga/debug/_ext/780564725/wool_but_up.o
                0x248e7b2c                wool_but_up_data
 .rodata.bed_but_up_data
                0x248e8d10     0x1678 build/lcdc_rgba8888_mxt_9x60_wvga/debug/_ext/780564725/bed_but_up.o
                0x248e8d10                bed_but_up_data
 .rodata.low_but_down_data
                0x248ea388     0x10c4 build/lcdc_rgba8888_mxt_9x60_wvga/debug/_ext/780564725/low_but_down.o
                0x248ea388                low_but_down_data
 .rodata.normal_but_down_data
                0x248eb44c     0x1650 build/lcdc_rgba8888_mxt_9x60_wvga/debug/_ext/780564725/normal_but_down.o
                0x248eb44c                normal_but_down_data
 .rodata.cold_but_down_data
                0x248eca9c     0x16d8 build/lcdc_rgba8888_mxt_9x60_wvga/debug/_ext/780564725/cold_but_down.o
                0x248eca9c                cold_but_down_data
 .rodata.stringTable
                0x248ee174       0x18 build/lcdc_rgba8888_mxt_9x60_wvga/debug/_ext/1247075393/le_gen_stringtable.o
                0x248ee174                stringTable
 .rodata.stringTable_data
                0x248ee18c       0x44 build/lcdc_rgba8888_mxt_9x60_wvga/debug/_ext/1247075393/le_gen_stringtable.o
                0x248ee18c                stringTable_data
 .rodata.BlueScheme
                0x248ee1d0      0x2c8 build/lcdc_rgba8888_mxt_9x60_wvga/debug/_ext/1247075393/le_gen_scheme.o
                0x248ee1d0                BlueScheme
 .rodata.BlueSchemeTransparent
                0x248ee498      0x2c8 build/lcdc_rgba8888_mxt_9x60_wvga/debug/_ext/1247075393/le_gen_scheme.o
                0x248ee498                BlueSchemeTransparent
 .rodata.GreenScheme
                0x248ee760      0x2c8 build/lcdc_rgba8888_mxt_9x60_wvga/debug/_ext/1247075393/le_gen_scheme.o
                0x248ee760                GreenScheme
 .rodata.GreenSchemeTransparent
                0x248eea28      0x2c8 build/lcdc_rgba8888_mxt_9x60_wvga/debug/_ext/1247075393/le_gen_scheme.o
                0x248eea28                GreenSchemeTransparent
 .rodata.WhiteScheme
                0x248eecf0      0x2c8 build/lcdc_rgba8888_mxt_9x60_wvga/debug/_ext/1247075393/le_gen_scheme.o
                0x248eecf0                WhiteScheme
 .rodata.leGlobalPalette
                0x248eefb8       0x14 build/lcdc_rgba8888_mxt_9x60_wvga/debug/_ext/1247075393/le_gen_globalpalette.o
                0x248eefb8                leGlobalPalette
 .rodata.abZigzag
                0x248eefcc       0x40 build/lcdc_rgba8888_mxt_9x60_wvga/debug/_ext/1797725076/legato_imagedecoder_jpeg_common.o
 .rodata.bCbCrOffset.5354
                0x248ef00c        0x4 build/lcdc_rgba8888_mxt_9x60_wvga/debug/_ext/1797725076/legato_imagedecoder_jpeg_common.o
 .rodata.bOffsetX.5353
                0x248ef010        0x4 build/lcdc_rgba8888_mxt_9x60_wvga/debug/_ext/1797725076/legato_imagedecoder_jpeg_common.o
 .rodata.bOffsetY.5352
                0x248ef014        0x4 build/lcdc_rgba8888_mxt_9x60_wvga/debug/_ext/1797725076/legato_imagedecoder_jpeg_common.o
 .rodata        0x248ef018       0x64 build/lcdc_rgba8888_mxt_9x60_wvga/debug/_ext/1881677221/lodepng.o
 .rodata.ADAM7_DX
                0x248ef07c       0x1c build/lcdc_rgba8888_mxt_9x60_wvga/debug/_ext/1881677221/lodepng.o
 .rodata.ADAM7_DY
                0x248ef098       0x1c build/lcdc_rgba8888_mxt_9x60_wvga/debug/_ext/1881677221/lodepng.o
 .rodata.ADAM7_IX
                0x248ef0b4       0x1c build/lcdc_rgba8888_mxt_9x60_wvga/debug/_ext/1881677221/lodepng.o
 .rodata.ADAM7_IY
                0x248ef0d0       0x1c build/lcdc_rgba8888_mxt_9x60_wvga/debug/_ext/1881677221/lodepng.o
 .rodata.CLCL_ORDER
                0x248ef0ec       0x4c build/lcdc_rgba8888_mxt_9x60_wvga/debug/_ext/1881677221/lodepng.o
 .rodata.DISTANCEBASE
                0x248ef138       0x78 build/lcdc_rgba8888_mxt_9x60_wvga/debug/_ext/1881677221/lodepng.o
 .rodata.DISTANCEEXTRA
                0x248ef1b0       0x78 build/lcdc_rgba8888_mxt_9x60_wvga/debug/_ext/1881677221/lodepng.o
 .rodata.LENGTHBASE
                0x248ef228       0x74 build/lcdc_rgba8888_mxt_9x60_wvga/debug/_ext/1881677221/lodepng.o
 .rodata.LENGTHEXTRA
                0x248ef29c       0x74 build/lcdc_rgba8888_mxt_9x60_wvga/debug/_ext/1881677221/lodepng.o
 .rodata.lodepng_crc32_table
                0x248ef310      0x400 build/lcdc_rgba8888_mxt_9x60_wvga/debug/_ext/1881677221/lodepng.o
 .rodata.calcOffset
                0x248ef710       0x18 build/lcdc_rgba8888_mxt_9x60_wvga/debug/_ext/927452043/legato_image_utils.o
 .rodata.getDiscreteValue
                0x248ef728       0x2c build/lcdc_rgba8888_mxt_9x60_wvga/debug/_ext/927452043/legato_image_utils.o
 .rodata.tableStringVTable
                0x248ef754       0x74 build/lcdc_rgba8888_mxt_9x60_wvga/debug/_ext/1020492831/legato_tablestring.o
 .rodata.fixedStringVTable
                0x248ef7c8       0x6c build/lcdc_rgba8888_mxt_9x60_wvga/debug/_ext/1020492831/legato_fixedstring.o
 .rodata.buttonWidgetVTable
                0x248ef834      0x184 build/lcdc_rgba8888_mxt_9x60_wvga/debug/_ext/424260723/legato_widget_button.o
 .rodata.imageWidgetVTable
                0x248ef9b8      0x13c build/lcdc_rgba8888_mxt_9x60_wvga/debug/_ext/1808593504/legato_widget_image.o
 .rodata.labelWidgetVTable
                0x248efaf4      0x13c build/lcdc_rgba8888_mxt_9x60_wvga/debug/_ext/1806179527/legato_widget_label.o
 .rodata.rectangleWidgetVTable
                0x248efc30      0x13c build/lcdc_rgba8888_mxt_9x60_wvga/debug/_ext/2047371060/legato_widget_rectangle.o
 .rodata.widgetVTable
                0x248efd6c      0x134 build/lcdc_rgba8888_mxt_9x60_wvga/debug/_ext/916554220/legato_widget.o
 .rodata.irqData
                0x248efea0       0x50 build/lcdc_rgba8888_mxt_9x60_wvga/debug/_ext/107307971/plib_aic.o
 .rodata        0x248efef0       0x30 build/lcdc_rgba8888_mxt_9x60_wvga/debug/_ext/107309994/plib_clk.o
 .rodata.drvI2C0InitData
                0x248eff20       0x1c build/lcdc_rgba8888_mxt_9x60_wvga/debug/_ext/1455094228/initialization.o
 .rodata.drvI2C0InterruptSources
                0x248eff3c       0x14 build/lcdc_rgba8888_mxt_9x60_wvga/debug/_ext/1455094228/initialization.o
 .rodata.drvI2C0PLibAPI
                0x248eff50       0x1c build/lcdc_rgba8888_mxt_9x60_wvga/debug/_ext/1455094228/initialization.o
 .rodata.drvMAXTOUCHInitData
                0x248eff6c       0x1c build/lcdc_rgba8888_mxt_9x60_wvga/debug/_ext/1455094228/initialization.o
                0x248eff6c                drvMAXTOUCHInitData
 .rodata.sysTimeInitData
                0x248eff88        0x8 build/lcdc_rgba8888_mxt_9x60_wvga/debug/_ext/1455094228/initialization.o
 .rodata.sysTimePlibAPI
                0x248eff90       0x1c build/lcdc_rgba8888_mxt_9x60_wvga/debug/_ext/1455094228/initialization.o
 .rodata        0x248effac       0x10 build/lcdc_rgba8888_mxt_9x60_wvga/debug/_ext/1360937237/app.o
 .rodata.am     0x248effbc        0x4 build/lcdc_rgba8888_mxt_9x60_wvga/debug/_ext/1360937237/app.o
                0x248effbc                am
 .rodata.colonCharBuffer
                0x248effc0        0x4 build/lcdc_rgba8888_mxt_9x60_wvga/debug/_ext/1360937237/app.o
                0x248effc0                colonCharBuffer
 .rodata.pm     0x248effc4        0x4 build/lcdc_rgba8888_mxt_9x60_wvga/debug/_ext/1360937237/app.o
                0x248effc4                pm
 .rodata        0x248effc8        0x7 c:/program files/microchip/xc32/v4.21/bin/bin/../../lib/gcc/pic32c/8.3.1/../../../../pic32c/lib/arm/v5te/nofp\libg-musl.a(__fmt_s.o)
 .rodata        0x248effcf       0x1c c:/program files/microchip/xc32/v4.21/bin/bin/../../lib/gcc/pic32c/8.3.1/../../../../pic32c/lib/arm/v5te/nofp\libg-musl.a(__printf_core.o)
 *(.ARM.extab* .gnu.linkonce.armextab.*)
                0x248effec                . = ALIGN (0x4)
 *fill*         0x248effeb        0x1 
 *(.init)
 .init          0x248effec        0xc c:/program files/microchip/xc32/v4.21/bin/bin/../../lib/gcc/pic32c/8.3.1/arm/v5te/nofp/crti.o
                0x248effec                _init
 .init          0x248efff8        0xc c:/program files/microchip/xc32/v4.21/bin/bin/../../lib/gcc/pic32c/8.3.1/arm/v5te/nofp/crtn.o
                0x248f0004                . = ALIGN (0x4)
                [!provide]                PROVIDE (__preinit_array_start = .)
 *(.preinit_array)
                [!provide]                PROVIDE (__preinit_array_end = .)
                0x248f0004                . = ALIGN (0x4)
                0x248f0004                PROVIDE (__init_array_start = .)
 *(SORT_BY_NAME(.init_array.*))
 *(.init_array)
 .init_array    0x248f0004        0x4 c:/program files/microchip/xc32/v4.21/bin/bin/../../lib/gcc/pic32c/8.3.1/arm/v5te/nofp/crtbegin.o
                0x248f0008                PROVIDE (__init_array_end = .)
                0x248f0008                . = ALIGN (0x4)
 *crtbegin.o(.ctors)
 *(EXCLUDE_FILE(*crtend.o) .ctors)
 *(SORT_BY_NAME(.ctors.*))
 *crtend.o(.ctors)
                0x248f0008                . = ALIGN (0x4)
 *(.fini)
 .fini          0x248f0008        0xc c:/program files/microchip/xc32/v4.21/bin/bin/../../lib/gcc/pic32c/8.3.1/arm/v5te/nofp/crti.o
                0x248f0008                _fini
 .fini          0x248f0014        0xc c:/program files/microchip/xc32/v4.21/bin/bin/../../lib/gcc/pic32c/8.3.1/arm/v5te/nofp/crtn.o
                0x248f0020                . = ALIGN (0x4)
                [!provide]                PROVIDE (__fini_array_start = .)
 *(.fini_array)
 .fini_array    0x248f0020        0x4 c:/program files/microchip/xc32/v4.21/bin/bin/../../lib/gcc/pic32c/8.3.1/arm/v5te/nofp/crtbegin.o
 *(SORT_BY_NAME(.fini_array.*))
                [!provide]                PROVIDE (__fini_array_end = .)
 *crtbegin.o(.dtors)
 *(EXCLUDE_FILE(*crtend.o) .dtors)
 *(SORT_BY_NAME(.dtors.*))
 *crtend.o(.dtors)
 *(.dinit*)
                0x248f0024                . = ALIGN (0x4)

.data           0x248f0024     0x12d4
 *(.data .data.*)
 .data.val.12522
                0x248f0024        0x4 build/lcdc_rgba8888_mxt_9x60_wvga/debug/_ext/802015102/drv_maxtouch.o
 .data.effectsIntervalMS
                0x248f0028        0x4 build/lcdc_rgba8888_mxt_9x60_wvga/debug/_ext/51791817/gfx_canvas.o
 .data.gfxDispCtrlr
                0x248f002c        0x4 build/lcdc_rgba8888_mxt_9x60_wvga/debug/_ext/51791817/gfx_canvas.o
                0x248f002c                gfxDispCtrlr
 .data.indexGet_FnTable
                0x248f0030       0x18 build/lcdc_rgba8888_mxt_9x60_wvga/debug/_ext/1483321925/legato_pixelbuffer.o
                0x248f0030                indexGet_FnTable
 .data.pixelGet_FnTable
                0x248f0048       0x10 build/lcdc_rgba8888_mxt_9x60_wvga/debug/_ext/1483321925/legato_pixelbuffer.o
                0x248f0048                pixelGet_FnTable
 .data.pixelSet_FnTable
                0x248f0058       0x10 build/lcdc_rgba8888_mxt_9x60_wvga/debug/_ext/1483321925/legato_pixelbuffer.o
                0x248f0058                pixelSet_FnTable
 .data.color_convert_table
                0x248f0068      0x1e4 build/lcdc_rgba8888_mxt_9x60_wvga/debug/_ext/1483321925/legato_color_convert.o
                0x248f0068                color_convert_table
 .data.color_lerp_table
                0x248f024c       0x2c build/lcdc_rgba8888_mxt_9x60_wvga/debug/_ext/1483321925/legato_color_lerp.o
                0x248f024c                color_lerp_table
 .data.NotoSans_Bold
                0x248f0278       0x20 build/lcdc_rgba8888_mxt_9x60_wvga/debug/_ext/528922783/le_gen_fonts.o
                0x248f0278                NotoSans_Bold
 .data.NotoSans_regular
                0x248f0298       0x20 build/lcdc_rgba8888_mxt_9x60_wvga/debug/_ext/528922783/le_gen_fonts.o
                0x248f0298                NotoSans_regular
 .data.NoyoSans_Medium
                0x248f02b8       0x20 build/lcdc_rgba8888_mxt_9x60_wvga/debug/_ext/528922783/le_gen_fonts.o
                0x248f02b8                NoyoSans_Medium
 .data.image5   0x248f02d8       0x3c build/lcdc_rgba8888_mxt_9x60_wvga/debug/_ext/780564725/image5.o
                0x248f02d8                image5
 .data.r3       0x248f0314       0x3c build/lcdc_rgba8888_mxt_9x60_wvga/debug/_ext/780564725/r3.o
                0x248f0314                r3
 .data.low_but_up
                0x248f0350       0x3c build/lcdc_rgba8888_mxt_9x60_wvga/debug/_ext/780564725/low_but_up.o
                0x248f0350                low_but_up
 .data.image6   0x248f038c       0x3c build/lcdc_rgba8888_mxt_9x60_wvga/debug/_ext/780564725/image6.o
                0x248f038c                image6
 .data.r2       0x248f03c8       0x3c build/lcdc_rgba8888_mxt_9x60_wvga/debug/_ext/780564725/r2.o
                0x248f03c8                r2
 .data.sports_but_down
                0x248f0404       0x3c build/lcdc_rgba8888_mxt_9x60_wvga/debug/_ext/780564725/sports_but_down.o
                0x248f0404                sports_but_down
 .data.warm_but_down
                0x248f0440       0x3c build/lcdc_rgba8888_mxt_9x60_wvga/debug/_ext/780564725/warm_but_down.o
                0x248f0440                warm_but_down
 .data.logoH    0x248f047c       0x3c build/lcdc_rgba8888_mxt_9x60_wvga/debug/_ext/780564725/logoH.o
                0x248f047c                logoH
 .data.image7   0x248f04b8       0x3c build/lcdc_rgba8888_mxt_9x60_wvga/debug/_ext/780564725/image7.o
                0x248f04b8                image7
 .data.hot_but_down
                0x248f04f4       0x3c build/lcdc_rgba8888_mxt_9x60_wvga/debug/_ext/780564725/hot_but_down.o
                0x248f04f4                hot_but_down
 .data.r1       0x248f0530       0x3c build/lcdc_rgba8888_mxt_9x60_wvga/debug/_ext/780564725/r1.o
                0x248f0530                r1
 .data.high_but_down
                0x248f056c       0x3c build/lcdc_rgba8888_mxt_9x60_wvga/debug/_ext/780564725/high_but_down.o
                0x248f056c                high_but_down
 .data.image8   0x248f05a8       0x3c build/lcdc_rgba8888_mxt_9x60_wvga/debug/_ext/780564725/image8.o
                0x248f05a8                image8
 .data.round_exit
                0x248f05e4       0x3c build/lcdc_rgba8888_mxt_9x60_wvga/debug/_ext/780564725/round_exit.o
                0x248f05e4                round_exit
 .data.image1   0x248f0620       0x3c build/lcdc_rgba8888_mxt_9x60_wvga/debug/_ext/780564725/image1.o
                0x248f0620                image1
 .data.start_but_up
                0x248f065c       0x3c build/lcdc_rgba8888_mxt_9x60_wvga/debug/_ext/780564725/start_but_up.o
                0x248f065c                start_but_up
 .data.round_button
                0x248f0698       0x3c build/lcdc_rgba8888_mxt_9x60_wvga/debug/_ext/780564725/round_button.o
                0x248f0698                round_button
 .data.r7       0x248f06d4       0x3c build/lcdc_rgba8888_mxt_9x60_wvga/debug/_ext/780564725/r7.o
                0x248f06d4                r7
 .data.image2   0x248f0710       0x3c build/lcdc_rgba8888_mxt_9x60_wvga/debug/_ext/780564725/image2.o
                0x248f0710                image2
 .data.r6       0x248f074c       0x3c build/lcdc_rgba8888_mxt_9x60_wvga/debug/_ext/780564725/r6.o
                0x248f074c                r6
 .data.image10  0x248f0788       0x3c build/lcdc_rgba8888_mxt_9x60_wvga/debug/_ext/780564725/image10.o
                0x248f0788                image10
 .data.close    0x248f07c4       0x3c build/lcdc_rgba8888_mxt_9x60_wvga/debug/_ext/780564725/close.o
                0x248f07c4                close
 .data.image3   0x248f0800       0x3c build/lcdc_rgba8888_mxt_9x60_wvga/debug/_ext/780564725/image3.o
                0x248f0800                image3
 .data.wool_but_down
                0x248f083c       0x3c build/lcdc_rgba8888_mxt_9x60_wvga/debug/_ext/780564725/wool_but_down.o
                0x248f083c                wool_but_down
 .data.r5       0x248f0878       0x3c build/lcdc_rgba8888_mxt_9x60_wvga/debug/_ext/780564725/r5.o
                0x248f0878                r5
 .data.image11  0x248f08b4       0x3c build/lcdc_rgba8888_mxt_9x60_wvga/debug/_ext/780564725/image11.o
                0x248f08b4                image11
 .data.start_but_down
                0x248f08f0       0x3c build/lcdc_rgba8888_mxt_9x60_wvga/debug/_ext/780564725/start_but_down.o
                0x248f08f0                start_but_down
 .data.image4   0x248f092c       0x3c build/lcdc_rgba8888_mxt_9x60_wvga/debug/_ext/780564725/image4.o
                0x248f092c                image4
 .data.r4       0x248f0968       0x3c build/lcdc_rgba8888_mxt_9x60_wvga/debug/_ext/780564725/r4.o
                0x248f0968                r4
 .data.image12  0x248f09a4       0x3c build/lcdc_rgba8888_mxt_9x60_wvga/debug/_ext/780564725/image12.o
                0x248f09a4                image12
 .data.bed_but_down
                0x248f09e0       0x3c build/lcdc_rgba8888_mxt_9x60_wvga/debug/_ext/780564725/bed_but_down.o
                0x248f09e0                bed_but_down
 .data.warm_but_up
                0x248f0a1c       0x3c build/lcdc_rgba8888_mxt_9x60_wvga/debug/_ext/780564725/warm_but_up.o
                0x248f0a1c                warm_but_up
 .data.r12      0x248f0a58       0x3c build/lcdc_rgba8888_mxt_9x60_wvga/debug/_ext/780564725/r12.o
                0x248f0a58                r12
 .data.hot_but_up
                0x248f0a94       0x3c build/lcdc_rgba8888_mxt_9x60_wvga/debug/_ext/780564725/hot_but_up.o
                0x248f0a94                hot_but_up
 .data.r11      0x248f0ad0       0x3c build/lcdc_rgba8888_mxt_9x60_wvga/debug/_ext/780564725/r11.o
                0x248f0ad0                r11
 .data.normal_but_up
                0x248f0b0c       0x3c build/lcdc_rgba8888_mxt_9x60_wvga/debug/_ext/780564725/normal_but_up.o
                0x248f0b0c                normal_but_up
 .data.options_but_down
                0x248f0b48       0x3c build/lcdc_rgba8888_mxt_9x60_wvga/debug/_ext/780564725/options_but_down.o
                0x248f0b48                options_but_down
 .data.r9       0x248f0b84       0x3c build/lcdc_rgba8888_mxt_9x60_wvga/debug/_ext/780564725/r9.o
                0x248f0b84                r9
 .data.template
                0x248f0bc0       0x3c build/lcdc_rgba8888_mxt_9x60_wvga/debug/_ext/780564725/template.o
                0x248f0bc0                template
 .data.r10      0x248f0bfc       0x3c build/lcdc_rgba8888_mxt_9x60_wvga/debug/_ext/780564725/r10.o
                0x248f0bfc                r10
 .data.prewash_but_off
                0x248f0c38       0x3c build/lcdc_rgba8888_mxt_9x60_wvga/debug/_ext/780564725/prewash_but_off.o
                0x248f0c38                prewash_but_off
 .data.xrinse_but_off
                0x248f0c74       0x3c build/lcdc_rgba8888_mxt_9x60_wvga/debug/_ext/780564725/xrinse_but_off.o
                0x248f0c74                xrinse_but_off
 .data.options_but_up
                0x248f0cb0       0x3c build/lcdc_rgba8888_mxt_9x60_wvga/debug/_ext/780564725/options_but_up.o
                0x248f0cb0                options_but_up
 .data.sound_but_on
                0x248f0cec       0x3c build/lcdc_rgba8888_mxt_9x60_wvga/debug/_ext/780564725/sound_but_on.o
                0x248f0cec                sound_but_on
 .data.r8       0x248f0d28       0x3c build/lcdc_rgba8888_mxt_9x60_wvga/debug/_ext/780564725/r8.o
                0x248f0d28                r8
 .data.high_but_up
                0x248f0d64       0x3c build/lcdc_rgba8888_mxt_9x60_wvga/debug/_ext/780564725/high_but_up.o
                0x248f0d64                high_but_up
 .data.cold_but_up
                0x248f0da0       0x3c build/lcdc_rgba8888_mxt_9x60_wvga/debug/_ext/780564725/cold_but_up.o
                0x248f0da0                cold_but_up
 .data.image9   0x248f0ddc       0x3c build/lcdc_rgba8888_mxt_9x60_wvga/debug/_ext/780564725/image9.o
                0x248f0ddc                image9
 .data.medium_but_up
                0x248f0e18       0x3c build/lcdc_rgba8888_mxt_9x60_wvga/debug/_ext/780564725/medium_but_up.o
                0x248f0e18                medium_but_up
 .data.sports_but_up
                0x248f0e54       0x3c build/lcdc_rgba8888_mxt_9x60_wvga/debug/_ext/780564725/sports_but_up.o
                0x248f0e54                sports_but_up
 .data.medium_but_down
                0x248f0e90       0x3c build/lcdc_rgba8888_mxt_9x60_wvga/debug/_ext/780564725/medium_but_down.o
                0x248f0e90                medium_but_down
 .data.wool_but_up
                0x248f0ecc       0x3c build/lcdc_rgba8888_mxt_9x60_wvga/debug/_ext/780564725/wool_but_up.o
                0x248f0ecc                wool_but_up
 .data.bed_but_up
                0x248f0f08       0x3c build/lcdc_rgba8888_mxt_9x60_wvga/debug/_ext/780564725/bed_but_up.o
                0x248f0f08                bed_but_up
 .data.low_but_down
                0x248f0f44       0x3c build/lcdc_rgba8888_mxt_9x60_wvga/debug/_ext/780564725/low_but_down.o
                0x248f0f44                low_but_down
 .data.normal_but_down
                0x248f0f80       0x3c build/lcdc_rgba8888_mxt_9x60_wvga/debug/_ext/780564725/normal_but_down.o
                0x248f0f80                normal_but_down
 .data.cold_but_down
                0x248f0fbc       0x3c build/lcdc_rgba8888_mxt_9x60_wvga/debug/_ext/780564725/cold_but_down.o
                0x248f0fbc                cold_but_down
 .data.fontList
                0x248f0ff8        0xc build/lcdc_rgba8888_mxt_9x60_wvga/debug/_ext/1247075393/le_gen_stringtable.o
                0x248f0ff8                fontList
 .data.leGlobalPalette_data
                0x248f1004      0x200 build/lcdc_rgba8888_mxt_9x60_wvga/debug/_ext/1247075393/le_gen_globalpalette.o
                0x248f1004                leGlobalPalette_data
 .data.fixedPoolDefs
                0x248f1204       0x54 build/lcdc_rgba8888_mxt_9x60_wvga/debug/_ext/1206263599/legato_memory.o
 .data.paintEvt
                0x248f1258        0x1 build/lcdc_rgba8888_mxt_9x60_wvga/debug/_ext/564048019/legato_renderer.o
 *fill*         0x248f1259        0x3 
 .data.decodeGlyph
                0x248f125c        0xc build/lcdc_rgba8888_mxt_9x60_wvga/debug/_ext/1020492831/legato_stringutils.o
                0x248f125c                decodeGlyph
 .data._moveEvent
                0x248f1268       0x14 build/lcdc_rgba8888_mxt_9x60_wvga/debug/_ext/916554220/legato_widget.o
 .data._resizeEvent
                0x248f127c       0x14 build/lcdc_rgba8888_mxt_9x60_wvga/debug/_ext/916554220/legato_widget.o
 .data.gSysTimeTokenCount
                0x248f1290        0x2 build/lcdc_rgba8888_mxt_9x60_wvga/debug/_ext/1359593799/sys_time.o
 .data.am_b     0x248f1292        0x1 build/lcdc_rgba8888_mxt_9x60_wvga/debug/_ext/1360937237/app.o
                0x248f1292                am_b
 .data.colon_visi
                0x248f1293        0x1 build/lcdc_rgba8888_mxt_9x60_wvga/debug/_ext/1360937237/app.o
                0x248f1293                colon_visi
 .data.hr       0x248f1294        0x1 build/lcdc_rgba8888_mxt_9x60_wvga/debug/_ext/1360937237/app.o
 *fill*         0x248f1295        0x3 
 .data          0x248f1298       0x60 c:/program files/microchip/xc32/v4.21/bin/bin/../../lib/gcc/pic32c/8.3.1/../../../../pic32c/lib/arm/v5te/nofp\libg-musl.a(__stdout.o)
                0x248f12f8                . = ALIGN (0x4)
                [!provide]                PROVIDE (_efixed = .)
                [!provide]                PROVIDE (__exidx_start = .)

.ARM.exidx      0x248f12f8        0x8
 *(.ARM.exidx* .gnu.linkonce.armexidx.*)
 .ARM.exidx     0x248f12f8        0x8 c:/program files/microchip/xc32/v4.21/bin/bin/../../lib/gcc/pic32c/8.3.1/arm/v5te/nofp\libgcc.a(_udivmoddi4.o)
                [!provide]                PROVIDE (__exidx_end = .)
                0x248f1300                . = ALIGN (0x4)
                0x248f1300                PROVIDE (_etext = .)

.relocate       0x00300000       0x3c load address 0x248f1300
                0x00300000                . = ALIGN (0x4)
                0x00300000                PROVIDE (_srelocate = .)
 *(.vectors .vectors.*)
 .vectors       0x00300000       0x3c build/lcdc_rgba8888_mxt_9x60_wvga/debug/_ext/1455094228/cstartup.o
 *(.ramfunc)
                0x0030003c                . = ALIGN (0x4)
                0x0030003c                PROVIDE (_erelocate = .)

.region_cache_aligned_const
                0x248f1300        0x0
                0x248f1300                . = ALIGN (0x20)
 *(.region_cache_aligned_const .region_cache_aligned_const.*)
                0x248f1300                . = ALIGN (0x20)

.region_sram    0x0030003c        0x0
                0x0030003c                . = ALIGN (0x4)
 *(.region_sram .region_sram.*)

.region_ram     0x248f1300        0x0
                0x248f1300                . = ALIGN (0x4)
 *(.region_ram .region_ram.*)

.region_nocache
                0x20000000   0x3c270c
                0x20000000                . = ALIGN (0x4)
 *(.region_nocache .region_nocache.*)
 .region_nocache.canvasfb0
                0x20000000   0x177000 build/lcdc_rgba8888_mxt_9x60_wvga/debug/_ext/51791817/gfx_canvas.o
                0x20000000                canvasfb0
 .region_nocache.canvasfb1
                0x20177000     0x8598 build/lcdc_rgba8888_mxt_9x60_wvga/debug/_ext/51791817/gfx_canvas.o
                0x20177000                canvasfb1
 *fill*         0x2017f598        0x8 
 .region_nocache.canvasfb2
                0x2017f5a0    0x8ca00 build/lcdc_rgba8888_mxt_9x60_wvga/debug/_ext/51791817/gfx_canvas.o
                0x2017f5a0                canvasfb2
 .region_nocache.canvasfb3
                0x2020bfa0   0x177000 build/lcdc_rgba8888_mxt_9x60_wvga/debug/_ext/51791817/gfx_canvas.o
                0x2020bfa0                canvasfb3
 .region_nocache.canvasfb4
                0x20382fa0    0x3f674 build/lcdc_rgba8888_mxt_9x60_wvga/debug/_ext/51791817/gfx_canvas.o
                0x20382fa0                canvasfb4
 *fill*         0x203c2614       0x2c 
 .region_nocache.channelDesc0
                0x203c2640        0xc build/lcdc_rgba8888_mxt_9x60_wvga/debug/_ext/1886796627/drv_gfx_lcdc.o
                0x203c2640                channelDesc0
 *fill*         0x203c264c       0x34 
 .region_nocache.channelDesc1
                0x203c2680        0xc build/lcdc_rgba8888_mxt_9x60_wvga/debug/_ext/1886796627/drv_gfx_lcdc.o
                0x203c2680                channelDesc1
 *fill*         0x203c268c       0x34 
 .region_nocache.channelDesc2
                0x203c26c0        0xc build/lcdc_rgba8888_mxt_9x60_wvga/debug/_ext/1886796627/drv_gfx_lcdc.o
                0x203c26c0                channelDesc2
 *fill*         0x203c26cc       0x34 
 .region_nocache.channelDesc3
                0x203c2700        0xc build/lcdc_rgba8888_mxt_9x60_wvga/debug/_ext/1886796627/drv_gfx_lcdc.o
                0x203c2700                channelDesc3

.bss            0x248f4000    0x90554
                0x248f4000                . = ALIGN (0x4)
                0x248f4000                PROVIDE (_szero = .)
 *(.bss .bss.*)
 .bss           0x248f4000       0x1c c:/program files/microchip/xc32/v4.21/bin/bin/../../lib/gcc/pic32c/8.3.1/arm/v5te/nofp/crtbegin.o
 .bss.gDrvI2CObj
                0x248f401c       0x3c build/lcdc_rgba8888_mxt_9x60_wvga/debug/_ext/205529507/drv_i2c.o
 .bss.buf       0x248f4058       0xff build/lcdc_rgba8888_mxt_9x60_wvga/debug/_ext/802015102/drv_maxtouch.o
 *fill*         0x248f4157        0x1 
 .bss.byte_offset.12685
                0x248f4158        0x4 build/lcdc_rgba8888_mxt_9x60_wvga/debug/_ext/802015102/drv_maxtouch.o
 .bss.index.12686
                0x248f415c        0x4 build/lcdc_rgba8888_mxt_9x60_wvga/debug/_ext/802015102/drv_maxtouch.o
 .bss.resetTimer
                0x248f4160        0x4 build/lcdc_rgba8888_mxt_9x60_wvga/debug/_ext/802015102/drv_maxtouch.o
 .bss.sMAXTOUCHDriverInstances
                0x248f4164     0x15c8 build/lcdc_rgba8888_mxt_9x60_wvga/debug/_ext/802015102/drv_maxtouch.o
                0x248f4164                sMAXTOUCHDriverInstances
 .bss.activeCanvasID
                0x248f572c        0x4 build/lcdc_rgba8888_mxt_9x60_wvga/debug/_ext/51791817/gfx_canvas.o
 .bss.baseCanvasID
                0x248f5730        0x4 build/lcdc_rgba8888_mxt_9x60_wvga/debug/_ext/51791817/gfx_canvas.o
 .bss.canvas    0x248f5734      0x1a0 build/lcdc_rgba8888_mxt_9x60_wvga/debug/_ext/51791817/gfx_canvas.o
                0x248f5734                canvas
 .bss.displayHeight
                0x248f58d4        0x4 build/lcdc_rgba8888_mxt_9x60_wvga/debug/_ext/51791817/gfx_canvas.o
 .bss.displayWidth
                0x248f58d8        0x4 build/lcdc_rgba8888_mxt_9x60_wvga/debug/_ext/51791817/gfx_canvas.o
 .bss.effectsTick
                0x248f58dc        0x4 build/lcdc_rgba8888_mxt_9x60_wvga/debug/_ext/51791817/gfx_canvas.o
 .bss.effectsTimer
                0x248f58e0        0x4 build/lcdc_rgba8888_mxt_9x60_wvga/debug/_ext/51791817/gfx_canvas.o
 .bss.gfxcState
                0x248f58e4        0x1 build/lcdc_rgba8888_mxt_9x60_wvga/debug/_ext/51791817/gfx_canvas.o
 *fill*         0x248f58e5        0x3 
 .bss.oldEffectsTick
                0x248f58e8        0x4 build/lcdc_rgba8888_mxt_9x60_wvga/debug/_ext/51791817/gfx_canvas.o
 .bss.activeLayer
                0x248f58ec        0x4 build/lcdc_rgba8888_mxt_9x60_wvga/debug/_ext/1886796627/drv_gfx_lcdc.o
 .bss.drvLayer  0x248f58f0      0x1e0 build/lcdc_rgba8888_mxt_9x60_wvga/debug/_ext/1886796627/drv_gfx_lcdc.o
 .bss.state     0x248f5ad0        0x4 build/lcdc_rgba8888_mxt_9x60_wvga/debug/_ext/1886796627/drv_gfx_lcdc.o
 .bss._initialized
                0x248f5ad4        0x4 build/lcdc_rgba8888_mxt_9x60_wvga/debug/_ext/1553762159/legato_state.o
                0x248f5ad4                _initialized
 .bss._state    0x248f5ad8      0x2ec build/lcdc_rgba8888_mxt_9x60_wvga/debug/_ext/1553762159/legato_state.o
 .bss._state    0x248f5dc4       0x10 build/lcdc_rgba8888_mxt_9x60_wvga/debug/_ext/1553762159/legato_event.o
 .bss._state    0x248f5dd4       0x24 build/lcdc_rgba8888_mxt_9x60_wvga/debug/_ext/1553762159/legato_input.o
 .bss.Screen0_BackgroundPanel
                0x248f5df8        0x4 build/lcdc_rgba8888_mxt_9x60_wvga/debug/_ext/1849858236/le_gen_screen_Screen0.o
                0x248f5df8                Screen0_BackgroundPanel
 .bss.Screen0_ButtonWidget_Opt_close
                0x248f5dfc        0x4 build/lcdc_rgba8888_mxt_9x60_wvga/debug/_ext/1849858236/le_gen_screen_Screen0.o
                0x248f5dfc                Screen0_ButtonWidget_Opt_close
 .bss.Screen0_ButtonWidget_Opt_preWash
                0x248f5e00        0x4 build/lcdc_rgba8888_mxt_9x60_wvga/debug/_ext/1849858236/le_gen_screen_Screen0.o
                0x248f5e00                Screen0_ButtonWidget_Opt_preWash
 .bss.Screen0_ButtonWidget_Opt_rinse
                0x248f5e04        0x4 build/lcdc_rgba8888_mxt_9x60_wvga/debug/_ext/1849858236/le_gen_screen_Screen0.o
                0x248f5e04                Screen0_ButtonWidget_Opt_rinse
 .bss.Screen0_ButtonWidget_Opt_sound
                0x248f5e08        0x4 build/lcdc_rgba8888_mxt_9x60_wvga/debug/_ext/1849858236/le_gen_screen_Screen0.o
                0x248f5e08                Screen0_ButtonWidget_Opt_sound
 .bss.Screen0_ButtonWidget_Options
                0x248f5e0c        0x4 build/lcdc_rgba8888_mxt_9x60_wvga/debug/_ext/1849858236/le_gen_screen_Screen0.o
                0x248f5e0c                Screen0_ButtonWidget_Options
 .bss.Screen0_ButtonWidget_Start
                0x248f5e10        0x4 build/lcdc_rgba8888_mxt_9x60_wvga/debug/_ext/1849858236/le_gen_screen_Screen0.o
                0x248f5e10                Screen0_ButtonWidget_Start
 .bss.Screen0_ButtonWidget_exit
                0x248f5e14        0x4 build/lcdc_rgba8888_mxt_9x60_wvga/debug/_ext/1849858236/le_gen_screen_Screen0.o
                0x248f5e14                Screen0_ButtonWidget_exit
 .bss.Screen0_ButtonWidget_p1
                0x248f5e18        0x4 build/lcdc_rgba8888_mxt_9x60_wvga/debug/_ext/1849858236/le_gen_screen_Screen0.o
                0x248f5e18                Screen0_ButtonWidget_p1
 .bss.Screen0_ButtonWidget_p2
                0x248f5e1c        0x4 build/lcdc_rgba8888_mxt_9x60_wvga/debug/_ext/1849858236/le_gen_screen_Screen0.o
                0x248f5e1c                Screen0_ButtonWidget_p2
 .bss.Screen0_ButtonWidget_p3
                0x248f5e20        0x4 build/lcdc_rgba8888_mxt_9x60_wvga/debug/_ext/1849858236/le_gen_screen_Screen0.o
                0x248f5e20                Screen0_ButtonWidget_p3
 .bss.Screen0_ButtonWidget_p4
                0x248f5e24        0x4 build/lcdc_rgba8888_mxt_9x60_wvga/debug/_ext/1849858236/le_gen_screen_Screen0.o
                0x248f5e24                Screen0_ButtonWidget_p4
 .bss.Screen0_ButtonWidget_pp
                0x248f5e28        0x4 build/lcdc_rgba8888_mxt_9x60_wvga/debug/_ext/1849858236/le_gen_screen_Screen0.o
                0x248f5e28                Screen0_ButtonWidget_pp
 .bss.Screen0_ButtonWidget_sl1
                0x248f5e2c        0x4 build/lcdc_rgba8888_mxt_9x60_wvga/debug/_ext/1849858236/le_gen_screen_Screen0.o
                0x248f5e2c                Screen0_ButtonWidget_sl1
 .bss.Screen0_ButtonWidget_sl2
                0x248f5e30        0x4 build/lcdc_rgba8888_mxt_9x60_wvga/debug/_ext/1849858236/le_gen_screen_Screen0.o
                0x248f5e30                Screen0_ButtonWidget_sl2
 .bss.Screen0_ButtonWidget_sl3
                0x248f5e34        0x4 build/lcdc_rgba8888_mxt_9x60_wvga/debug/_ext/1849858236/le_gen_screen_Screen0.o
                0x248f5e34                Screen0_ButtonWidget_sl3
 .bss.Screen0_ButtonWidget_t1
                0x248f5e38        0x4 build/lcdc_rgba8888_mxt_9x60_wvga/debug/_ext/1849858236/le_gen_screen_Screen0.o
                0x248f5e38                Screen0_ButtonWidget_t1
 .bss.Screen0_ButtonWidget_t2
                0x248f5e3c        0x4 build/lcdc_rgba8888_mxt_9x60_wvga/debug/_ext/1849858236/le_gen_screen_Screen0.o
                0x248f5e3c                Screen0_ButtonWidget_t2
 .bss.Screen0_ButtonWidget_t3
                0x248f5e40        0x4 build/lcdc_rgba8888_mxt_9x60_wvga/debug/_ext/1849858236/le_gen_screen_Screen0.o
                0x248f5e40                Screen0_ButtonWidget_t3
 .bss.Screen0_ImageWidget_0
                0x248f5e44        0x4 build/lcdc_rgba8888_mxt_9x60_wvga/debug/_ext/1849858236/le_gen_screen_Screen0.o
                0x248f5e44                Screen0_ImageWidget_0
 .bss.Screen0_ImageWidget_progress
                0x248f5e48        0x4 build/lcdc_rgba8888_mxt_9x60_wvga/debug/_ext/1849858236/le_gen_screen_Screen0.o
                0x248f5e48                Screen0_ImageWidget_progress
 .bss.Screen0_ImageWidget_s1_background
                0x248f5e4c        0x4 build/lcdc_rgba8888_mxt_9x60_wvga/debug/_ext/1849858236/le_gen_screen_Screen0.o
                0x248f5e4c                Screen0_ImageWidget_s1_background
 .bss.Screen0_LabelTime
                0x248f5e50        0x4 build/lcdc_rgba8888_mxt_9x60_wvga/debug/_ext/1849858236/le_gen_screen_Screen0.o
                0x248f5e50                Screen0_LabelTime
 .bss.Screen0_LabelWidget_0
                0x248f5e54        0x4 build/lcdc_rgba8888_mxt_9x60_wvga/debug/_ext/1849858236/le_gen_screen_Screen0.o
                0x248f5e54                Screen0_LabelWidget_0
 .bss.Screen0_LabelWidget_1
                0x248f5e58        0x4 build/lcdc_rgba8888_mxt_9x60_wvga/debug/_ext/1849858236/le_gen_screen_Screen0.o
                0x248f5e58                Screen0_LabelWidget_1
 .bss.Screen0_LabelWidget_2
                0x248f5e5c        0x4 build/lcdc_rgba8888_mxt_9x60_wvga/debug/_ext/1849858236/le_gen_screen_Screen0.o
                0x248f5e5c                Screen0_LabelWidget_2
 .bss.Screen0_LabelWidget_3
                0x248f5e60        0x4 build/lcdc_rgba8888_mxt_9x60_wvga/debug/_ext/1849858236/le_gen_screen_Screen0.o
                0x248f5e60                Screen0_LabelWidget_3
 .bss.Screen0_Label_colon
                0x248f5e64        0x4 build/lcdc_rgba8888_mxt_9x60_wvga/debug/_ext/1849858236/le_gen_screen_Screen0.o
                0x248f5e64                Screen0_Label_colon
 .bss.Screen0_RectangleWidget_0
                0x248f5e68        0x4 build/lcdc_rgba8888_mxt_9x60_wvga/debug/_ext/1849858236/le_gen_screen_Screen0.o
                0x248f5e68                Screen0_RectangleWidget_0
 .bss.Screen0_RectangleWidget_1
                0x248f5e6c        0x4 build/lcdc_rgba8888_mxt_9x60_wvga/debug/_ext/1849858236/le_gen_screen_Screen0.o
                0x248f5e6c                Screen0_RectangleWidget_1
 .bss.Screen0_RectangleWidget_2
                0x248f5e70        0x4 build/lcdc_rgba8888_mxt_9x60_wvga/debug/_ext/1849858236/le_gen_screen_Screen0.o
                0x248f5e70                Screen0_RectangleWidget_2
 .bss.Screen0_RectangleWidget_3
                0x248f5e74        0x4 build/lcdc_rgba8888_mxt_9x60_wvga/debug/_ext/1849858236/le_gen_screen_Screen0.o
                0x248f5e74                Screen0_RectangleWidget_3
 .bss.Screen0_RectangleWidget_backgroundOption
                0x248f5e78        0x4 build/lcdc_rgba8888_mxt_9x60_wvga/debug/_ext/1849858236/le_gen_screen_Screen0.o
                0x248f5e78                Screen0_RectangleWidget_backgroundOption
 .bss.Screen0_RectangleWidget_backgroundSLevel
                0x248f5e7c        0x4 build/lcdc_rgba8888_mxt_9x60_wvga/debug/_ext/1849858236/le_gen_screen_Screen0.o
                0x248f5e7c                Screen0_RectangleWidget_backgroundSLevel
 .bss.Screen0_RectangleWidget_backgroundTemp
                0x248f5e80        0x4 build/lcdc_rgba8888_mxt_9x60_wvga/debug/_ext/1849858236/le_gen_screen_Screen0.o
                0x248f5e80                Screen0_RectangleWidget_backgroundTemp
 .bss.Screen0_RectangleWidget_background_prog
                0x248f5e84        0x4 build/lcdc_rgba8888_mxt_9x60_wvga/debug/_ext/1849858236/le_gen_screen_Screen0.o
                0x248f5e84                Screen0_RectangleWidget_background_prog
 .bss.Screen0_mhgsLogo
                0x248f5e88        0x4 build/lcdc_rgba8888_mxt_9x60_wvga/debug/_ext/1849858236/le_gen_screen_Screen0.o
                0x248f5e88                Screen0_mhgsLogo
 .bss.initialized
                0x248f5e8c        0x1 build/lcdc_rgba8888_mxt_9x60_wvga/debug/_ext/1849858236/le_gen_screen_Screen0.o
 *fill*         0x248f5e8d        0x3 
 .bss.root0     0x248f5e90        0x4 build/lcdc_rgba8888_mxt_9x60_wvga/debug/_ext/1849858236/le_gen_screen_Screen0.o
 .bss.root1     0x248f5e94        0x4 build/lcdc_rgba8888_mxt_9x60_wvga/debug/_ext/1849858236/le_gen_screen_Screen0.o
 .bss.root2     0x248f5e98        0x4 build/lcdc_rgba8888_mxt_9x60_wvga/debug/_ext/1849858236/le_gen_screen_Screen0.o
 .bss.root3     0x248f5e9c        0x4 build/lcdc_rgba8888_mxt_9x60_wvga/debug/_ext/1849858236/le_gen_screen_Screen0.o
 .bss.showing   0x248f5ea0        0x1 build/lcdc_rgba8888_mxt_9x60_wvga/debug/_ext/1849858236/le_gen_screen_Screen0.o
 *fill*         0x248f5ea1        0x3 
 .bss.changingToScreen
                0x248f5ea4        0x4 build/lcdc_rgba8888_mxt_9x60_wvga/debug/_ext/1247075393/le_gen_init.o
 .bss.currentScreen
                0x248f5ea8        0x4 build/lcdc_rgba8888_mxt_9x60_wvga/debug/_ext/1247075393/le_gen_init.o
 .bss.string_option
                0x248f5eac       0x1c build/lcdc_rgba8888_mxt_9x60_wvga/debug/_ext/1247075393/le_gen_stringtable.o
                0x248f5eac                string_option
 .bss.string_program
                0x248f5ec8       0x1c build/lcdc_rgba8888_mxt_9x60_wvga/debug/_ext/1247075393/le_gen_stringtable.o
                0x248f5ec8                string_program
 .bss.string_soil
                0x248f5ee4       0x1c build/lcdc_rgba8888_mxt_9x60_wvga/debug/_ext/1247075393/le_gen_stringtable.o
                0x248f5ee4                string_soil
 .bss.string_temperature
                0x248f5f00       0x1c build/lcdc_rgba8888_mxt_9x60_wvga/debug/_ext/1247075393/le_gen_stringtable.o
                0x248f5f00                string_temperature
 .bss.gfxGPUInterface
                0x248f5f1c       0x1c build/lcdc_rgba8888_mxt_9x60_wvga/debug/_ext/1247075393/le_gen_harmony.o
 .bss.inputListener
                0x248f5f38       0x34 build/lcdc_rgba8888_mxt_9x60_wvga/debug/_ext/1247075393/le_gen_harmony.o
                0x248f5f38                inputListener
 .bss.legatoState
                0x248f5f6c        0x1 build/lcdc_rgba8888_mxt_9x60_wvga/debug/_ext/1247075393/le_gen_harmony.o
 *fill*         0x248f5f6d        0x3 
 .bss.JPEG_JpegDecoder.7408
                0x248f5f70      0xa10 build/lcdc_rgba8888_mxt_9x60_wvga/debug/_ext/1797725076/legato_imagedecoder_jpeg.o
 .bss.JPEG_JpegDecoder.7425
                0x248f6980      0xa10 build/lcdc_rgba8888_mxt_9x60_wvga/debug/_ext/1797725076/legato_imagedecoder_jpeg.o
 *fill*         0x248f7390       0x10 
 .bss.decoder   0x248f73a0       0x2c build/lcdc_rgba8888_mxt_9x60_wvga/debug/_ext/1797725076/legato_imagedecoder_jpeg.o
 .bss.whblocks.7404
                0x248f73cc        0x2 build/lcdc_rgba8888_mxt_9x60_wvga/debug/_ext/1797725076/legato_imagedecoder_jpeg.o
 .bss.whblocks.7421
                0x248f73ce        0x2 build/lcdc_rgba8888_mxt_9x60_wvga/debug/_ext/1797725076/legato_imagedecoder_jpeg.o
 .bss.wi.7406   0x248f73d0        0x2 build/lcdc_rgba8888_mxt_9x60_wvga/debug/_ext/1797725076/legato_imagedecoder_jpeg.o
 .bss.wi.7423   0x248f73d2        0x2 build/lcdc_rgba8888_mxt_9x60_wvga/debug/_ext/1797725076/legato_imagedecoder_jpeg.o
 .bss.wj.7407   0x248f73d4        0x2 build/lcdc_rgba8888_mxt_9x60_wvga/debug/_ext/1797725076/legato_imagedecoder_jpeg.o
 .bss.wj.7424   0x248f73d6        0x2 build/lcdc_rgba8888_mxt_9x60_wvga/debug/_ext/1797725076/legato_imagedecoder_jpeg.o
 .bss.wvblocks.7405
                0x248f73d8        0x2 build/lcdc_rgba8888_mxt_9x60_wvga/debug/_ext/1797725076/legato_imagedecoder_jpeg.o
 .bss.wvblocks.7422
                0x248f73da        0x2 build/lcdc_rgba8888_mxt_9x60_wvga/debug/_ext/1797725076/legato_imagedecoder_jpeg.o
 .bss.bBlock.5351
                0x248f73dc        0x1 build/lcdc_rgba8888_mxt_9x60_wvga/debug/_ext/1797725076/legato_imagedecoder_jpeg_common.o
 *fill*         0x248f73dd        0x3 
 .bss.psCb.5346
                0x248f73e0        0x4 build/lcdc_rgba8888_mxt_9x60_wvga/debug/_ext/1797725076/legato_imagedecoder_jpeg_common.o
 .bss.psCr.5347
                0x248f73e4        0x4 build/lcdc_rgba8888_mxt_9x60_wvga/debug/_ext/1797725076/legato_imagedecoder_jpeg_common.o
 .bss.psY.5345  0x248f73e8        0x4 build/lcdc_rgba8888_mxt_9x60_wvga/debug/_ext/1797725076/legato_imagedecoder_jpeg_common.o
 .bss.s2.5349   0x248f73ec        0x4 build/lcdc_rgba8888_mxt_9x60_wvga/debug/_ext/1797725076/legato_imagedecoder_jpeg_common.o
 .bss.s3.5350   0x248f73f0        0x4 build/lcdc_rgba8888_mxt_9x60_wvga/debug/_ext/1797725076/legato_imagedecoder_jpeg_common.o
 .bss.shiftX.5358
                0x248f73f4        0x1 build/lcdc_rgba8888_mxt_9x60_wvga/debug/_ext/1797725076/legato_imagedecoder_jpeg_common.o
 .bss.shiftY.5359
                0x248f73f5        0x1 build/lcdc_rgba8888_mxt_9x60_wvga/debug/_ext/1797725076/legato_imagedecoder_jpeg_common.o
 .bss.wX.5338   0x248f73f6        0x2 build/lcdc_rgba8888_mxt_9x60_wvga/debug/_ext/1797725076/legato_imagedecoder_jpeg_common.o
 .bss.wX2.5340  0x248f73f8        0x2 build/lcdc_rgba8888_mxt_9x60_wvga/debug/_ext/1797725076/legato_imagedecoder_jpeg_common.o
 .bss.wXPos.5355
                0x248f73fa        0x2 build/lcdc_rgba8888_mxt_9x60_wvga/debug/_ext/1797725076/legato_imagedecoder_jpeg_common.o
 .bss.wY.5339   0x248f73fc        0x2 build/lcdc_rgba8888_mxt_9x60_wvga/debug/_ext/1797725076/legato_imagedecoder_jpeg_common.o
 .bss.wYPos.5356
                0x248f73fe        0x2 build/lcdc_rgba8888_mxt_9x60_wvga/debug/_ext/1797725076/legato_imagedecoder_jpeg_common.o
 .bss.wYPos2.5357
                0x248f7400        0x2 build/lcdc_rgba8888_mxt_9x60_wvga/debug/_ext/1797725076/legato_imagedecoder_jpeg_common.o
 *fill*         0x248f7402       0x1e 
 .bss._decoder  0x248f7420       0x2c build/lcdc_rgba8888_mxt_9x60_wvga/debug/_ext/1797636377/legato_imagedecoder_mono.o
 *fill*         0x248f744c       0x14 
 .bss._state    0x248f7460       0xc8 build/lcdc_rgba8888_mxt_9x60_wvga/debug/_ext/1797636377/legato_imagedecoder_mono.o
 .bss.frameBufferWriteStage
                0x248f7528        0xc build/lcdc_rgba8888_mxt_9x60_wvga/debug/_ext/1797636377/legato_imagedecoder_mono.o
 .bss.imageWriteStage
                0x248f7534        0xc build/lcdc_rgba8888_mxt_9x60_wvga/debug/_ext/1797636377/legato_imagedecoder_mono.o
 .bss.setupStage
                0x248f7540        0xc build/lcdc_rgba8888_mxt_9x60_wvga/debug/_ext/1797636377/legato_imagedecoder_mono.o
 *fill*         0x248f754c       0x14 
 .bss.internalReadStage
                0x248f7560        0xc build/lcdc_rgba8888_mxt_9x60_wvga/debug/_ext/1797636377/legato_imagedecoder_mono_read_internal.o
 *fill*         0x248f756c       0x14 
 .bss.decodedImage
                0x248f7580       0x3c build/lcdc_rgba8888_mxt_9x60_wvga/debug/_ext/1881677221/legato_imagedecoder_png.o
 *fill*         0x248f75bc        0x4 
 .bss.decoder   0x248f75c0       0x2c build/lcdc_rgba8888_mxt_9x60_wvga/debug/_ext/1881677221/legato_imagedecoder_png.o
 .bss.setupStage
                0x248f75ec        0xc build/lcdc_rgba8888_mxt_9x60_wvga/debug/_ext/1881678756/legato_imagedecoder_raw_setup.o
 .bss.postReadStage
                0x248f75f8        0xc build/lcdc_rgba8888_mxt_9x60_wvga/debug/_ext/1881678756/legato_imagedecoder_raw_scale.o
 .bss.scaledBilinearPostReadStage
                0x248f7604        0xc build/lcdc_rgba8888_mxt_9x60_wvga/debug/_ext/1881678756/legato_imagedecoder_raw_scale.o
 .bss.scaledBilinearPreReadStage
                0x248f7610       0x1c build/lcdc_rgba8888_mxt_9x60_wvga/debug/_ext/1881678756/legato_imagedecoder_raw_scale.o
 .bss.scaledNearestNeighborPreReadStage
                0x248f762c       0x14 build/lcdc_rgba8888_mxt_9x60_wvga/debug/_ext/1881678756/legato_imagedecoder_raw_scale.o
 .bss.maskStage
                0x248f7640        0xc build/lcdc_rgba8888_mxt_9x60_wvga/debug/_ext/1881678756/legato_imagedecoder_raw_mask.o
                0x248f7640                maskStage
 *fill*         0x248f764c       0x14 
 .bss.convertStage
                0x248f7660       0x10 build/lcdc_rgba8888_mxt_9x60_wvga/debug/_ext/1881678756/legato_imagedecoder_raw_convert.o
 *fill*         0x248f7670       0x10 
 .bss.internalReadStage
                0x248f7680       0x20 build/lcdc_rgba8888_mxt_9x60_wvga/debug/_ext/1881678756/legato_imagedecoder_raw_read_internal.o
 .bss.frameBufferWriteStage
                0x248f76a0        0xc build/lcdc_rgba8888_mxt_9x60_wvga/debug/_ext/1881678756/legato_imagedecoder_raw_write.o
 .bss.imageWriteStage
                0x248f76ac        0xc build/lcdc_rgba8888_mxt_9x60_wvga/debug/_ext/1881678756/legato_imagedecoder_raw_write.o
 *fill*         0x248f76b8        0x8 
 .bss.blendStage
                0x248f76c0        0xc build/lcdc_rgba8888_mxt_9x60_wvga/debug/_ext/1881678756/legato_imagedecoder_raw_blend.o
 .bss.imageRenderPostLookupStage
                0x248f76cc        0xc build/lcdc_rgba8888_mxt_9x60_wvga/debug/_ext/1881678756/legato_imagedecoder_raw_palette_internal.o
 *fill*         0x248f76d8        0x8 
 .bss.paletteStage
                0x248f76e0       0x14 build/lcdc_rgba8888_mxt_9x60_wvga/debug/_ext/1881678756/legato_imagedecoder_raw_palette_internal.o
 *fill*         0x248f76f4        0xc 
 .bss._decoder  0x248f7700       0x2c build/lcdc_rgba8888_mxt_9x60_wvga/debug/_ext/1881678756/legato_imagedecoder_raw.o
 *fill*         0x248f772c       0x14 
 .bss._state    0x248f7740       0xf4 build/lcdc_rgba8888_mxt_9x60_wvga/debug/_ext/1881678756/legato_imagedecoder_raw.o
 .bss.lePoint_Zero
                0x248f7834        0x8 build/lcdc_rgba8888_mxt_9x60_wvga/debug/_ext/1881678756/legato_imagedecoder_raw_rotate.o
 .bss.rotateBilinearPostReadStage
                0x248f783c        0xc build/lcdc_rgba8888_mxt_9x60_wvga/debug/_ext/1881678756/legato_imagedecoder_raw_rotate.o
 .bss.rotateBilinearPreReadStage
                0x248f7848       0x14 build/lcdc_rgba8888_mxt_9x60_wvga/debug/_ext/1881678756/legato_imagedecoder_raw_rotate.o
 .bss.rotateNearestNeighborPreReadStage
                0x248f785c        0xc build/lcdc_rgba8888_mxt_9x60_wvga/debug/_ext/1881678756/legato_imagedecoder_raw_rotate.o
 .bss.decoders  0x248f7868       0x28 build/lcdc_rgba8888_mxt_9x60_wvga/debug/_ext/927452043/legato_image.o
 *fill*         0x248f7890       0x10 
 .bss.fixedHeap128
                0x248f78a0     0x1000 build/lcdc_rgba8888_mxt_9x60_wvga/debug/_ext/1206263599/legato_memory.o
 .bss.fixedHeap16
                0x248f88a0     0x12c0 build/lcdc_rgba8888_mxt_9x60_wvga/debug/_ext/1206263599/legato_memory.o
 .bss.fixedHeap196
                0x248f9b60     0x24c0 build/lcdc_rgba8888_mxt_9x60_wvga/debug/_ext/1206263599/legato_memory.o
 .bss.fixedHeap256
                0x248fc020     0x1800 build/lcdc_rgba8888_mxt_9x60_wvga/debug/_ext/1206263599/legato_memory.o
 .bss.fixedHeap32
                0x248fd820      0xc00 build/lcdc_rgba8888_mxt_9x60_wvga/debug/_ext/1206263599/legato_memory.o
 .bss.fixedHeap64
                0x248fe420     0x1800 build/lcdc_rgba8888_mxt_9x60_wvga/debug/_ext/1206263599/legato_memory.o
 .bss.fixedHeaps
                0x248ffc20       0xe0 build/lcdc_rgba8888_mxt_9x60_wvga/debug/_ext/1206263599/legato_memory.o
 .bss.variableHeap
                0x248ffd00       0x24 build/lcdc_rgba8888_mxt_9x60_wvga/debug/_ext/1206263599/legato_memory.o
 *fill*         0x248ffd24       0x1c 
 .bss.variableHeapData
                0x248ffd40    0x40000 build/lcdc_rgba8888_mxt_9x60_wvga/debug/_ext/1206263599/legato_memory.o
 .bss._alphaColorMode
                0x2493fd40        0x1 build/lcdc_rgba8888_mxt_9x60_wvga/debug/_ext/564048019/legato_draw.o
 .bss._currentMode
                0x2493fd41        0x1 build/lcdc_rgba8888_mxt_9x60_wvga/debug/_ext/564048019/legato_draw.o
 *fill*         0x2493fd42        0x2 
 .bss._drawFunction
                0x2493fd44       0x10 build/lcdc_rgba8888_mxt_9x60_wvga/debug/_ext/564048019/legato_draw.o
 *fill*         0x2493fd54       0x2c 
 .bss._dataBuffers
                0x2493fd80    0x40000 build/lcdc_rgba8888_mxt_9x60_wvga/debug/_ext/564048019/legato_renderer.o
 .bss._rendererState
                0x2497fd80       0x48 build/lcdc_rgba8888_mxt_9x60_wvga/debug/_ext/564048019/legato_renderer.o
                0x2497fd80                _rendererState
 *fill*         0x2497fdc8       0x18 
 .bss._scratchBuffers
                0x2497fde0       0x3c build/lcdc_rgba8888_mxt_9x60_wvga/debug/_ext/564048019/legato_renderer.o
 .bss._state    0x2497fe1c        0x4 build/lcdc_rgba8888_mxt_9x60_wvga/debug/_ext/564048019/legato_renderer.o
 .bss.maxScratchPixels
                0x2497fe20        0x4 build/lcdc_rgba8888_mxt_9x60_wvga/debug/_ext/564048019/legato_renderer.o
 .bss.paintState
                0x2497fe24        0x4 build/lcdc_rgba8888_mxt_9x60_wvga/debug/_ext/424260723/legato_widget_button_skin_classic.o
 .bss.leRect_Zero
                0x2497fe28        0x8 build/lcdc_rgba8888_mxt_9x60_wvga/debug/_ext/1808593504/legato_widget_image_skin_classic.o
 .bss.paintState
                0x2497fe30        0x4 build/lcdc_rgba8888_mxt_9x60_wvga/debug/_ext/1808593504/legato_widget_image_skin_classic.o
 .bss.leRect_Zero
                0x2497fe34        0x8 build/lcdc_rgba8888_mxt_9x60_wvga/debug/_ext/1806179527/legato_widget_label_skin_classic.o
 .bss.paintState
                0x2497fe3c        0x4 build/lcdc_rgba8888_mxt_9x60_wvga/debug/_ext/1806179527/legato_widget_label_skin_classic.o
 .bss.paintState
                0x2497fe40        0x4 build/lcdc_rgba8888_mxt_9x60_wvga/debug/_ext/2047371060/legato_widget_rectangle_skin_classic.o
 .bss.paintState
                0x2497fe44        0x4 build/lcdc_rgba8888_mxt_9x60_wvga/debug/_ext/916554220/legato_widget_skin_classic.o
 .bss.flexcom0TwiObj
                0x2497fe48       0x28 build/lcdc_rgba8888_mxt_9x60_wvga/debug/_ext/1221451702/plib_flexcom0_twi_master.o
 .bss.LCDC_IRQ_CallbackObj
                0x2497fe70        0x8 build/lcdc_rgba8888_mxt_9x60_wvga/debug/_ext/968098130/plib_lcdc.o
 *fill*         0x2497fe78      0x188 
 .bss.trns_tbl  0x24980000     0x4000 build/lcdc_rgba8888_mxt_9x60_wvga/debug/_ext/107319645/plib_mmu.o
 .bss.rtt       0x24984000        0x8 build/lcdc_rgba8888_mxt_9x60_wvga/debug/_ext/107324666/plib_rtt.o
 .bss.TC1_CH0_CallbackObj
                0x24984008        0x8 build/lcdc_rgba8888_mxt_9x60_wvga/debug/_ext/273632537/plib_tc1.o
 .bss.TC0_CH0_CallbackObj
                0x24984010        0x8 build/lcdc_rgba8888_mxt_9x60_wvga/debug/_ext/273632537/plib_tc0.o
 .bss.TC0_CH1_CallbackObj
                0x24984018        0x8 build/lcdc_rgba8888_mxt_9x60_wvga/debug/_ext/273632537/plib_tc0.o
 .bss.eventCount
                0x24984020        0x4 build/lcdc_rgba8888_mxt_9x60_wvga/debug/_ext/256753733/sys_input.o
                0x24984020                eventCount
 .bss.generalEvents
                0x24984024      0x200 build/lcdc_rgba8888_mxt_9x60_wvga/debug/_ext/256753733/sys_input.o
                0x24984024                generalEvents
 .bss.listenerFlags
                0x24984224        0x2 build/lcdc_rgba8888_mxt_9x60_wvga/debug/_ext/256753733/sys_input.o
                0x24984224                listenerFlags
 *fill*         0x24984226        0x2 
 .bss.listeners
                0x24984228       0x68 build/lcdc_rgba8888_mxt_9x60_wvga/debug/_ext/256753733/sys_input.o
                0x24984228                listeners
 .bss.gSystemCounterObj
                0x24984290       0x40 build/lcdc_rgba8888_mxt_9x60_wvga/debug/_ext/1359593799/sys_time.o
 .bss.timers    0x249842d0       0xa0 build/lcdc_rgba8888_mxt_9x60_wvga/debug/_ext/1359593799/sys_time.o
 .bss.spuriousEventCount.12132
                0x24984370        0x4 build/lcdc_rgba8888_mxt_9x60_wvga/debug/_ext/1455094228/interrupts.o
 .bss.drvI2C0ClientObjPool
                0x24984374       0x18 build/lcdc_rgba8888_mxt_9x60_wvga/debug/_ext/1455094228/initialization.o
 .bss.drvI2C0TransferObj
                0x2498438c       0x58 build/lcdc_rgba8888_mxt_9x60_wvga/debug/_ext/1455094228/initialization.o
 .bss.sysObj    0x249843e4        0xc build/lcdc_rgba8888_mxt_9x60_wvga/debug/_ext/1455094228/initialization.o
                0x249843e4                sysObj
 .bss.RoundImgAnim
                0x249843f0       0x30 build/lcdc_rgba8888_mxt_9x60_wvga/debug/_ext/1360937237/app.o
                0x249843f0                RoundImgAnim
 .bss.anim_cnt  0x24984420        0x1 build/lcdc_rgba8888_mxt_9x60_wvga/debug/_ext/1360937237/app.o
 *fill*         0x24984421        0x3 
 .bss.appData   0x24984424        0x1 build/lcdc_rgba8888_mxt_9x60_wvga/debug/_ext/1360937237/app.o
                0x24984424                appData
 *fill*         0x24984425        0x3 
 .bss.cCharBuffer
                0x24984428       0x12 build/lcdc_rgba8888_mxt_9x60_wvga/debug/_ext/1360937237/app.o
 *fill*         0x2498443a        0x2 
 .bss.colonString
                0x2498443c       0x24 build/lcdc_rgba8888_mxt_9x60_wvga/debug/_ext/1360937237/app.o
 .bss.currentButtonPressed
                0x24984460        0x1 build/lcdc_rgba8888_mxt_9x60_wvga/debug/_ext/1360937237/app.o
                0x24984460                currentButtonPressed
 *fill*         0x24984461        0x3 
 .bss.legatoColonCharBuffer
                0x24984464        0x4 build/lcdc_rgba8888_mxt_9x60_wvga/debug/_ext/1360937237/app.o
 .bss.legatoTimeCharBuffer
                0x24984468       0x24 build/lcdc_rgba8888_mxt_9x60_wvga/debug/_ext/1360937237/app.o
 .bss.menu_anime_on
                0x2498448c        0x1 build/lcdc_rgba8888_mxt_9x60_wvga/debug/_ext/1360937237/app.o
                0x2498448c                menu_anime_on
 .bss.menu_expand
                0x2498448d        0x1 build/lcdc_rgba8888_mxt_9x60_wvga/debug/_ext/1360937237/app.o
                0x2498448d                menu_expand
 .bss.min       0x2498448e        0x1 build/lcdc_rgba8888_mxt_9x60_wvga/debug/_ext/1360937237/app.o
 .bss.prev_min  0x2498448f        0x1 build/lcdc_rgba8888_mxt_9x60_wvga/debug/_ext/1360937237/app.o
 .bss.prev_sec  0x24984490        0x1 build/lcdc_rgba8888_mxt_9x60_wvga/debug/_ext/1360937237/app.o
 *fill*         0x24984491        0x3 
 .bss.prev_tick
                0x24984494        0x4 build/lcdc_rgba8888_mxt_9x60_wvga/debug/_ext/1360937237/app.o
 .bss.screen    0x24984498        0x1 build/lcdc_rgba8888_mxt_9x60_wvga/debug/_ext/1360937237/app.o
                0x24984498                screen
 .bss.sec       0x24984499        0x1 build/lcdc_rgba8888_mxt_9x60_wvga/debug/_ext/1360937237/app.o
 *fill*         0x2498449a        0x2 
 .bss.tick      0x2498449c        0x4 build/lcdc_rgba8888_mxt_9x60_wvga/debug/_ext/1360937237/app.o
 .bss.timeString
                0x249844a0       0x24 build/lcdc_rgba8888_mxt_9x60_wvga/debug/_ext/1360937237/app.o
 .bss.waveImgAnim
                0x249844c4       0x30 build/lcdc_rgba8888_mxt_9x60_wvga/debug/_ext/1360937237/app.o
                0x249844c4                waveImgAnim
 .bss           0x249844f4       0x50 c:/program files/microchip/xc32/v4.21/bin/bin/../../lib/gcc/pic32c/8.3.1/../../../../pic32c/lib/arm/v5te/nofp\libg-musl.a(libc.o)
                0x249844f4                __progname_full
                0x249844f4                program_invocation_name
                0x249844f8                program_invocation_short_name
                0x249844f8                __progname
                0x249844fc                __sysinfo
                0x24984500                __hwcap
                0x24984504                __libc
 .bss           0x24984544        0x8 c:/program files/microchip/xc32/v4.21/bin/bin/../../lib/gcc/pic32c/8.3.1/../../../../pic32c/lib/arm/v5te/nofp\libg-musl.a(stdout.o)
                0x24984548                __stdout_used
 .bss           0x2498454c        0x4 c:/program files/microchip/xc32/v4.21/bin/bin/../../lib/gcc/pic32c/8.3.1/../../../../pic32c/lib/arm/v5te/nofp\libg-musl.a(__environ.o)
                0x2498454c                __environ
                0x2498454c                environ
                0x2498454c                ___environ
                0x2498454c                _environ
 .bss           0x24984550        0x4 c:/program files/microchip/xc32/v4.21/bin/bin/../../lib/gcc/pic32c/8.3.1/../../../../pic32c/lib/arm/v5te/nofp\libg-musl.a(__errno_location.o)
                0x24984550                __errno_val
 *(COMMON)
                0x24984554                . = ALIGN (0x4)
                0x24984554                PROVIDE (_ezero = .)

.region_cache_aligned
                0x24984554        0xc
                0x24984560                . = ALIGN (0x20)
 *fill*         0x24984554        0xc 
 *(.region_cache_aligned .region_cache_aligned.*)
                0x24984560                . = ALIGN (0x20)

.stacks         0x24984560     0x2140
                0x249845c0                . = (. + IRQ_STACK_SIZE)
 *fill*         0x24984560       0x60 
                0x249845c0                . = ALIGN (0x8)
                0x249845c0                _irqstack = .
                0x24984620                . = (. + FIQ_STACK_SIZE)
 *fill*         0x249845c0       0x60 
                0x24984620                . = ALIGN (0x8)
                0x24984620                _fiqstack = .
                0x24984660                . = (. + ABT_STACK_SIZE)
 *fill*         0x24984620       0x40 
                0x24984660                . = ALIGN (0x8)
                0x24984660                _abtstack = .
                0x249846a0                . = (. + UND_STACK_SIZE)
 *fill*         0x24984660       0x40 
                0x249846a0                . = ALIGN (0x8)
                0x249846a0                _undstack = .
                0x249856a0                . = (. + SVC_STACK_SIZE)
 *fill*         0x249846a0     0x1000 
                0x249856a0                . = ALIGN (0x8)
                0x249856a0                _svcstack = .
                0x249866a0                . = (. + C_STACK_SIZE)
 *fill*         0x249856a0     0x1000 
                0x249866a0                . = ALIGN (0x8)
                0x249866a0                _cstack = .
                0x249866a0                _end = .
                0x249866a0                _ramcode_lma = _end

.ramcode        0x0030003c        0x0 load address 0x249866a0
                0x0030003c                _sramcode = .
 *(.ramcode_section .ramcode_section.*)
                0x0030003c                _eramcode = .
                0x249866a0                _ramdata_lma = ((_end + _eramcode) - _sramcode)

.ramdata        0x0030003c        0x0 load address 0x249866a0
                0x0030003c                _sramdata = .
 *(.ramdata_section .ramdata_section.*)
                0x0030003c                _eramdata = .
                0x00000001                __ICD2RAM = 0x1
                0x00000001                __MPLAB_DEBUG = 0x1
                0x00000001                __DEBUG = 0x1
                0x00000200                _min_heap_size = 0x200
START GROUP
LOAD c:/program files/microchip/xc32/v4.21/bin/bin/../../lib/gcc/pic32c/8.3.1/../../../../pic32c/lib/arm/v5te/nofp\libpic32c.a
LOAD c:/program files/microchip/xc32/v4.21/bin/bin/../../lib/gcc/pic32c/8.3.1/arm/v5te/nofp\libgcc.a
LOAD c:/program files/microchip/xc32/v4.21/bin/bin/../../lib/gcc/pic32c/8.3.1/../../../../pic32c/lib/arm/v5te/nofp\libm-musl.a
LOAD c:/program files/microchip/xc32/v4.21/bin/bin/../../lib/gcc/pic32c/8.3.1/../../../../pic32c/lib/arm/v5te/nofp\libg-musl.a
LOAD c:/program files/microchip/xc32/v4.21/bin/bin/../../lib/gcc/pic32c/8.3.1/../../../../pic32c/lib/arm/v5te/nofp\libc-musl.a
LOAD c:/program files/microchip/xc32/v4.21/bin/bin/../../lib/gcc/pic32c/8.3.1/../../../../pic32c/lib/arm/v5te/nofp\libm-musl.a
END GROUP
LOAD c:/program files/microchip/xc32/v4.21/bin/bin/../../lib/gcc/pic32c/8.3.1/arm/v5te/nofp/crtend.o
LOAD c:/program files/microchip/xc32/v4.21/bin/bin/../../lib/gcc/pic32c/8.3.1/arm/v5te/nofp/crtn.o
OUTPUT(dist/lcdc_rgba8888_mxt_9x60_wvga/debug/legato_wm_9x60_ek_tm5000.X.debug.elf elf32-littlearm)
LOAD stack

.ARM.attributes
                0x00000000       0x2a
 .ARM.attributes
                0x00000000       0x1d c:/program files/microchip/xc32/v4.21/bin/bin/../../lib/gcc/pic32c/8.3.1/arm/v5te/nofp/crti.o
 .ARM.attributes
                0x0000001d       0x2b c:/program files/microchip/xc32/v4.21/bin/bin/../../lib/gcc/pic32c/8.3.1/arm/v5te/nofp/crtbegin.o
 .ARM.attributes
                0x00000048       0x2c build/lcdc_rgba8888_mxt_9x60_wvga/debug/_ext/710462340/bsp.o
 .ARM.attributes
                0x00000074       0x2c build/lcdc_rgba8888_mxt_9x60_wvga/debug/_ext/205529507/drv_i2c.o
 .ARM.attributes
                0x000000a0       0x2c build/lcdc_rgba8888_mxt_9x60_wvga/debug/_ext/802015102/drv_maxtouch.o
 .ARM.attributes
                0x000000cc       0x2c build/lcdc_rgba8888_mxt_9x60_wvga/debug/_ext/51791817/gfx_canvas.o
 .ARM.attributes
                0x000000f8       0x2c build/lcdc_rgba8888_mxt_9x60_wvga/debug/_ext/51791817/gfx_canvas_api.o
 .ARM.attributes
                0x00000124       0x2c build/lcdc_rgba8888_mxt_9x60_wvga/debug/_ext/95971993/gfx_driver.o
 .ARM.attributes
                0x00000150       0x2c build/lcdc_rgba8888_mxt_9x60_wvga/debug/_ext/1886796627/drv_gfx_lcdc.o
 .ARM.attributes
                0x0000017c       0x2c build/lcdc_rgba8888_mxt_9x60_wvga/debug/_ext/1483321925/legato_rect.o
 .ARM.attributes
                0x000001a8       0x2c build/lcdc_rgba8888_mxt_9x60_wvga/debug/_ext/1483321925/legato_pixelbuffer.o
 .ARM.attributes
                0x000001d4       0x2c build/lcdc_rgba8888_mxt_9x60_wvga/debug/_ext/1483321925/legato_utils.o
 .ARM.attributes
                0x00000200       0x2c build/lcdc_rgba8888_mxt_9x60_wvga/debug/_ext/1483321925/legato_color_convert.o
 .ARM.attributes
                0x0000022c       0x2c build/lcdc_rgba8888_mxt_9x60_wvga/debug/_ext/1483321925/legato_color_blend.o
 .ARM.attributes
                0x00000258       0x2c build/lcdc_rgba8888_mxt_9x60_wvga/debug/_ext/1483321925/legato_math.o
 .ARM.attributes
                0x00000284       0x2c build/lcdc_rgba8888_mxt_9x60_wvga/debug/_ext/1483321925/legato_color.o
 .ARM.attributes
                0x000002b0       0x2c build/lcdc_rgba8888_mxt_9x60_wvga/debug/_ext/1483321925/legato_color_lerp.o
 .ARM.attributes
                0x000002dc       0x2c build/lcdc_rgba8888_mxt_9x60_wvga/debug/_ext/1553762159/legato_state.o
 .ARM.attributes
                0x00000308       0x2c build/lcdc_rgba8888_mxt_9x60_wvga/debug/_ext/1553762159/legato_event.o
 .ARM.attributes
                0x00000334       0x2c build/lcdc_rgba8888_mxt_9x60_wvga/debug/_ext/1553762159/legato_input.o
 .ARM.attributes
                0x00000360       0x2c build/lcdc_rgba8888_mxt_9x60_wvga/debug/_ext/1553762159/legato_scheme.o
 .ARM.attributes
                0x0000038c       0x2c build/lcdc_rgba8888_mxt_9x60_wvga/debug/_ext/1653592263/legato_array.o
 .ARM.attributes
                0x000003b8       0x2c build/lcdc_rgba8888_mxt_9x60_wvga/debug/_ext/1653592263/legato_list.o
 .ARM.attributes
                0x000003e4       0x2c build/lcdc_rgba8888_mxt_9x60_wvga/debug/_ext/1653592263/legato_rectarray.o
 .ARM.attributes
                0x00000410       0x2c build/lcdc_rgba8888_mxt_9x60_wvga/debug/_ext/1553851423/legato_font.o
 .ARM.attributes
                0x0000043c       0x32 build/lcdc_rgba8888_mxt_9x60_wvga/debug/_ext/528922783/le_gen_fonts.o
 .ARM.attributes
                0x0000046e       0x32 build/lcdc_rgba8888_mxt_9x60_wvga/debug/_ext/780564725/image5.o
 .ARM.attributes
                0x000004a0       0x32 build/lcdc_rgba8888_mxt_9x60_wvga/debug/_ext/780564725/r3.o
 .ARM.attributes
                0x000004d2       0x32 build/lcdc_rgba8888_mxt_9x60_wvga/debug/_ext/780564725/low_but_up.o
 .ARM.attributes
                0x00000504       0x32 build/lcdc_rgba8888_mxt_9x60_wvga/debug/_ext/780564725/image6.o
 .ARM.attributes
                0x00000536       0x32 build/lcdc_rgba8888_mxt_9x60_wvga/debug/_ext/780564725/r2.o
 .ARM.attributes
                0x00000568       0x32 build/lcdc_rgba8888_mxt_9x60_wvga/debug/_ext/780564725/sports_but_down.o
 .ARM.attributes
                0x0000059a       0x32 build/lcdc_rgba8888_mxt_9x60_wvga/debug/_ext/780564725/warm_but_down.o
 .ARM.attributes
                0x000005cc       0x32 build/lcdc_rgba8888_mxt_9x60_wvga/debug/_ext/780564725/logoH.o
 .ARM.attributes
                0x000005fe       0x32 build/lcdc_rgba8888_mxt_9x60_wvga/debug/_ext/780564725/image7.o
 .ARM.attributes
                0x00000630       0x32 build/lcdc_rgba8888_mxt_9x60_wvga/debug/_ext/780564725/hot_but_down.o
 .ARM.attributes
                0x00000662       0x32 build/lcdc_rgba8888_mxt_9x60_wvga/debug/_ext/780564725/r1.o
 .ARM.attributes
                0x00000694       0x32 build/lcdc_rgba8888_mxt_9x60_wvga/debug/_ext/780564725/high_but_down.o
 .ARM.attributes
                0x000006c6       0x32 build/lcdc_rgba8888_mxt_9x60_wvga/debug/_ext/780564725/image8.o
 .ARM.attributes
                0x000006f8       0x32 build/lcdc_rgba8888_mxt_9x60_wvga/debug/_ext/780564725/round_exit.o
 .ARM.attributes
                0x0000072a       0x32 build/lcdc_rgba8888_mxt_9x60_wvga/debug/_ext/780564725/image1.o
 .ARM.attributes
                0x0000075c       0x32 build/lcdc_rgba8888_mxt_9x60_wvga/debug/_ext/780564725/start_but_up.o
 .ARM.attributes
                0x0000078e       0x32 build/lcdc_rgba8888_mxt_9x60_wvga/debug/_ext/780564725/round_button.o
 .ARM.attributes
                0x000007c0       0x32 build/lcdc_rgba8888_mxt_9x60_wvga/debug/_ext/780564725/r7.o
 .ARM.attributes
                0x000007f2       0x32 build/lcdc_rgba8888_mxt_9x60_wvga/debug/_ext/780564725/image2.o
 .ARM.attributes
                0x00000824       0x32 build/lcdc_rgba8888_mxt_9x60_wvga/debug/_ext/780564725/r6.o
 .ARM.attributes
                0x00000856       0x32 build/lcdc_rgba8888_mxt_9x60_wvga/debug/_ext/780564725/image10.o
 .ARM.attributes
                0x00000888       0x32 build/lcdc_rgba8888_mxt_9x60_wvga/debug/_ext/780564725/close.o
 .ARM.attributes
                0x000008ba       0x32 build/lcdc_rgba8888_mxt_9x60_wvga/debug/_ext/780564725/image3.o
 .ARM.attributes
                0x000008ec       0x32 build/lcdc_rgba8888_mxt_9x60_wvga/debug/_ext/780564725/wool_but_down.o
 .ARM.attributes
                0x0000091e       0x32 build/lcdc_rgba8888_mxt_9x60_wvga/debug/_ext/780564725/r5.o
 .ARM.attributes
                0x00000950       0x32 build/lcdc_rgba8888_mxt_9x60_wvga/debug/_ext/780564725/image11.o
 .ARM.attributes
                0x00000982       0x32 build/lcdc_rgba8888_mxt_9x60_wvga/debug/_ext/780564725/start_but_down.o
 .ARM.attributes
                0x000009b4       0x32 build/lcdc_rgba8888_mxt_9x60_wvga/debug/_ext/780564725/image4.o
 .ARM.attributes
                0x000009e6       0x32 build/lcdc_rgba8888_mxt_9x60_wvga/debug/_ext/780564725/r4.o
 .ARM.attributes
                0x00000a18       0x32 build/lcdc_rgba8888_mxt_9x60_wvga/debug/_ext/780564725/image12.o
 .ARM.attributes
                0x00000a4a       0x32 build/lcdc_rgba8888_mxt_9x60_wvga/debug/_ext/780564725/bed_but_down.o
 .ARM.attributes
                0x00000a7c       0x32 build/lcdc_rgba8888_mxt_9x60_wvga/debug/_ext/780564725/warm_but_up.o
 .ARM.attributes
                0x00000aae       0x32 build/lcdc_rgba8888_mxt_9x60_wvga/debug/_ext/780564725/r12.o
 .ARM.attributes
                0x00000ae0       0x32 build/lcdc_rgba8888_mxt_9x60_wvga/debug/_ext/780564725/hot_but_up.o
 .ARM.attributes
                0x00000b12       0x32 build/lcdc_rgba8888_mxt_9x60_wvga/debug/_ext/780564725/r11.o
 .ARM.attributes
                0x00000b44       0x32 build/lcdc_rgba8888_mxt_9x60_wvga/debug/_ext/780564725/normal_but_up.o
 .ARM.attributes
                0x00000b76       0x32 build/lcdc_rgba8888_mxt_9x60_wvga/debug/_ext/780564725/options_but_down.o
 .ARM.attributes
                0x00000ba8       0x32 build/lcdc_rgba8888_mxt_9x60_wvga/debug/_ext/780564725/r9.o
 .ARM.attributes
                0x00000bda       0x32 build/lcdc_rgba8888_mxt_9x60_wvga/debug/_ext/780564725/template.o
 .ARM.attributes
                0x00000c0c       0x32 build/lcdc_rgba8888_mxt_9x60_wvga/debug/_ext/780564725/r10.o
 .ARM.attributes
                0x00000c3e       0x32 build/lcdc_rgba8888_mxt_9x60_wvga/debug/_ext/780564725/prewash_but_off.o
 .ARM.attributes
                0x00000c70       0x32 build/lcdc_rgba8888_mxt_9x60_wvga/debug/_ext/780564725/xrinse_but_off.o
 .ARM.attributes
                0x00000ca2       0x32 build/lcdc_rgba8888_mxt_9x60_wvga/debug/_ext/780564725/options_but_up.o
 .ARM.attributes
                0x00000cd4       0x32 build/lcdc_rgba8888_mxt_9x60_wvga/debug/_ext/780564725/sound_but_on.o
 .ARM.attributes
                0x00000d06       0x32 build/lcdc_rgba8888_mxt_9x60_wvga/debug/_ext/780564725/r8.o
 .ARM.attributes
                0x00000d38       0x32 build/lcdc_rgba8888_mxt_9x60_wvga/debug/_ext/780564725/high_but_up.o
 .ARM.attributes
                0x00000d6a       0x32 build/lcdc_rgba8888_mxt_9x60_wvga/debug/_ext/780564725/cold_but_up.o
 .ARM.attributes
                0x00000d9c       0x32 build/lcdc_rgba8888_mxt_9x60_wvga/debug/_ext/780564725/image9.o
 .ARM.attributes
                0x00000dce       0x32 build/lcdc_rgba8888_mxt_9x60_wvga/debug/_ext/780564725/medium_but_up.o
 .ARM.attributes
                0x00000e00       0x32 build/lcdc_rgba8888_mxt_9x60_wvga/debug/_ext/780564725/sports_but_up.o
 .ARM.attributes
                0x00000e32       0x32 build/lcdc_rgba8888_mxt_9x60_wvga/debug/_ext/780564725/medium_but_down.o
 .ARM.attributes
                0x00000e64       0x32 build/lcdc_rgba8888_mxt_9x60_wvga/debug/_ext/780564725/wool_but_up.o
 .ARM.attributes
                0x00000e96       0x32 build/lcdc_rgba8888_mxt_9x60_wvga/debug/_ext/780564725/bed_but_up.o
 .ARM.attributes
                0x00000ec8       0x32 build/lcdc_rgba8888_mxt_9x60_wvga/debug/_ext/780564725/low_but_down.o
 .ARM.attributes
                0x00000efa       0x32 build/lcdc_rgba8888_mxt_9x60_wvga/debug/_ext/780564725/normal_but_down.o
 .ARM.attributes
                0x00000f2c       0x32 build/lcdc_rgba8888_mxt_9x60_wvga/debug/_ext/780564725/cold_but_down.o
 .ARM.attributes
                0x00000f5e       0x2c build/lcdc_rgba8888_mxt_9x60_wvga/debug/_ext/1849858236/le_gen_screen_Screen0.o
 .ARM.attributes
                0x00000f8a       0x2c build/lcdc_rgba8888_mxt_9x60_wvga/debug/_ext/1247075393/le_gen_init.o
 .ARM.attributes
                0x00000fb6       0x2c build/lcdc_rgba8888_mxt_9x60_wvga/debug/_ext/1247075393/le_gen_stringtable.o
 .ARM.attributes
                0x00000fe2       0x32 build/lcdc_rgba8888_mxt_9x60_wvga/debug/_ext/1247075393/le_gen_scheme.o
 .ARM.attributes
                0x00001014       0x32 build/lcdc_rgba8888_mxt_9x60_wvga/debug/_ext/1247075393/le_gen_globalpalette.o
 .ARM.attributes
                0x00001046       0x2c build/lcdc_rgba8888_mxt_9x60_wvga/debug/_ext/1247075393/le_gen_harmony.o
 .ARM.attributes
                0x00001072       0x2c build/lcdc_rgba8888_mxt_9x60_wvga/debug/_ext/1797725076/legato_imagedecoder_jpeg.o
 .ARM.attributes
                0x0000109e       0x2c build/lcdc_rgba8888_mxt_9x60_wvga/debug/_ext/1797725076/legato_imagedecoder_jpeg_common.o
 .ARM.attributes
                0x000010ca       0x2c build/lcdc_rgba8888_mxt_9x60_wvga/debug/_ext/1797725076/jidctint.o
 .ARM.attributes
                0x000010f6       0x2c build/lcdc_rgba8888_mxt_9x60_wvga/debug/_ext/1797636377/legato_imagedecoder_mono.o
 .ARM.attributes
                0x00001122       0x2c build/lcdc_rgba8888_mxt_9x60_wvga/debug/_ext/1797636377/legato_imagedecoder_mono_read_internal.o
 .ARM.attributes
                0x0000114e       0x2c build/lcdc_rgba8888_mxt_9x60_wvga/debug/_ext/1881677221/legato_imagedecoder_png.o
 .ARM.attributes
                0x0000117a       0x2c build/lcdc_rgba8888_mxt_9x60_wvga/debug/_ext/1881677221/lodepng.o
 .ARM.attributes
                0x000011a6       0x2c build/lcdc_rgba8888_mxt_9x60_wvga/debug/_ext/1881678756/legato_imagedecoder_raw_setup.o
 .ARM.attributes
                0x000011d2       0x2c build/lcdc_rgba8888_mxt_9x60_wvga/debug/_ext/1881678756/legato_imagedecoder_raw_scale.o
 .ARM.attributes
                0x000011fe       0x2c build/lcdc_rgba8888_mxt_9x60_wvga/debug/_ext/1881678756/legato_imagedecoder_raw_mask.o
 .ARM.attributes
                0x0000122a       0x2c build/lcdc_rgba8888_mxt_9x60_wvga/debug/_ext/1881678756/legato_imagedecoder_raw_convert.o
 .ARM.attributes
                0x00001256       0x2c build/lcdc_rgba8888_mxt_9x60_wvga/debug/_ext/1881678756/legato_imagedecoder_raw_read_internal.o
 .ARM.attributes
                0x00001282       0x2c build/lcdc_rgba8888_mxt_9x60_wvga/debug/_ext/1881678756/legato_imagedecoder_raw_write.o
 .ARM.attributes
                0x000012ae       0x2c build/lcdc_rgba8888_mxt_9x60_wvga/debug/_ext/1881678756/legato_imagedecoder_raw_blend.o
 .ARM.attributes
                0x000012da       0x2c build/lcdc_rgba8888_mxt_9x60_wvga/debug/_ext/1881678756/legato_imagedecoder_raw_palette_internal.o
 .ARM.attributes
                0x00001306       0x2c build/lcdc_rgba8888_mxt_9x60_wvga/debug/_ext/1881678756/legato_imagedecoder_raw.o
 .ARM.attributes
                0x00001332       0x2c build/lcdc_rgba8888_mxt_9x60_wvga/debug/_ext/1881678756/legato_imagedecoder_raw_rotate.o
 .ARM.attributes
                0x0000135e       0x2c build/lcdc_rgba8888_mxt_9x60_wvga/debug/_ext/927452043/legato_image_utils.o
 .ARM.attributes
                0x0000138a       0x2c build/lcdc_rgba8888_mxt_9x60_wvga/debug/_ext/927452043/legato_image.o
 .ARM.attributes
                0x000013b6       0x2c build/lcdc_rgba8888_mxt_9x60_wvga/debug/_ext/1206263599/legato_memory.o
 .ARM.attributes
                0x000013e2       0x2c build/lcdc_rgba8888_mxt_9x60_wvga/debug/_ext/1206263599/legato_fixedheap.o
 .ARM.attributes
                0x0000140e       0x2c build/lcdc_rgba8888_mxt_9x60_wvga/debug/_ext/1206263599/legato_variableheap.o
 .ARM.attributes
                0x0000143a       0x2c build/lcdc_rgba8888_mxt_9x60_wvga/debug/_ext/564048019/legato_draw_rect.o
 .ARM.attributes
                0x00001466       0x2c build/lcdc_rgba8888_mxt_9x60_wvga/debug/_ext/564048019/legato_draw.o
 .ARM.attributes
                0x00001492       0x2c build/lcdc_rgba8888_mxt_9x60_wvga/debug/_ext/564048019/legato_draw_line.o
 .ARM.attributes
                0x000014be       0x2c build/lcdc_rgba8888_mxt_9x60_wvga/debug/_ext/564048019/legato_renderer.o
 .ARM.attributes
                0x000014ea       0x2c build/lcdc_rgba8888_mxt_9x60_wvga/debug/_ext/564048019/legato_draw_arc.o
 .ARM.attributes
                0x00001516       0x2c build/lcdc_rgba8888_mxt_9x60_wvga/debug/_ext/564048019/legato_gpu.o
 .ARM.attributes
                0x00001542       0x2c build/lcdc_rgba8888_mxt_9x60_wvga/debug/_ext/1020492831/legato_stringutils.o
 .ARM.attributes
                0x0000156e       0x2c build/lcdc_rgba8888_mxt_9x60_wvga/debug/_ext/1020492831/legato_tablestring.o
 .ARM.attributes
                0x0000159a       0x2c build/lcdc_rgba8888_mxt_9x60_wvga/debug/_ext/1020492831/legato_stringtable.o
 .ARM.attributes
                0x000015c6       0x2c build/lcdc_rgba8888_mxt_9x60_wvga/debug/_ext/1020492831/legato_fixedstring.o
 .ARM.attributes
                0x000015f2       0x2c build/lcdc_rgba8888_mxt_9x60_wvga/debug/_ext/1020492831/legato_string_renderer.o
 .ARM.attributes
                0x0000161e       0x2c build/lcdc_rgba8888_mxt_9x60_wvga/debug/_ext/1020492831/legato_string.o
 .ARM.attributes
                0x0000164a       0x2c build/lcdc_rgba8888_mxt_9x60_wvga/debug/_ext/424260723/legato_widget_button.o
 .ARM.attributes
                0x00001676       0x2c build/lcdc_rgba8888_mxt_9x60_wvga/debug/_ext/424260723/legato_widget_button_skin_classic.o
 .ARM.attributes
                0x000016a2       0x2c build/lcdc_rgba8888_mxt_9x60_wvga/debug/_ext/1808593504/legato_widget_image.o
 .ARM.attributes
                0x000016ce       0x2c build/lcdc_rgba8888_mxt_9x60_wvga/debug/_ext/1808593504/legato_widget_image_skin_classic.o
 .ARM.attributes
                0x000016fa       0x2c build/lcdc_rgba8888_mxt_9x60_wvga/debug/_ext/1806179527/legato_widget_label_skin_classic.o
 .ARM.attributes
                0x00001726       0x2c build/lcdc_rgba8888_mxt_9x60_wvga/debug/_ext/1806179527/legato_widget_label.o
 .ARM.attributes
                0x00001752       0x2c build/lcdc_rgba8888_mxt_9x60_wvga/debug/_ext/2047371060/legato_widget_rectangle_skin_classic.o
 .ARM.attributes
                0x0000177e       0x2c build/lcdc_rgba8888_mxt_9x60_wvga/debug/_ext/2047371060/legato_widget_rectangle.o
 .ARM.attributes
                0x000017aa       0x2c build/lcdc_rgba8888_mxt_9x60_wvga/debug/_ext/916554220/legato_widget_skin_classic.o
 .ARM.attributes
                0x000017d6       0x2c build/lcdc_rgba8888_mxt_9x60_wvga/debug/_ext/916554220/legato_widget_skin_classic_common.o
 .ARM.attributes
                0x00001802       0x2c build/lcdc_rgba8888_mxt_9x60_wvga/debug/_ext/916554220/legato_widget.o
 .ARM.attributes
                0x0000182e       0x2c build/lcdc_rgba8888_mxt_9x60_wvga/debug/_ext/107307971/plib_aic.o
 .ARM.attributes
                0x0000185a       0x2c build/lcdc_rgba8888_mxt_9x60_wvga/debug/_ext/107309994/plib_clk.o
 .ARM.attributes
                0x00001886       0x2c build/lcdc_rgba8888_mxt_9x60_wvga/debug/_ext/1221451702/plib_flexcom0_twi_master.o
 .ARM.attributes
                0x000018b2       0x2c build/lcdc_rgba8888_mxt_9x60_wvga/debug/_ext/968098130/plib_lcdc.o
 .ARM.attributes
                0x000018de       0x2c build/lcdc_rgba8888_mxt_9x60_wvga/debug/_ext/107319645/plib_mmu.o
 .ARM.attributes
                0x0000190a       0x2c build/lcdc_rgba8888_mxt_9x60_wvga/debug/_ext/107322398/plib_pio.o
 .ARM.attributes
                0x00001936       0x2c build/lcdc_rgba8888_mxt_9x60_wvga/debug/_ext/107324666/plib_rtt.o
 .ARM.attributes
                0x00001962       0x2c build/lcdc_rgba8888_mxt_9x60_wvga/debug/_ext/273632537/plib_tc1.o
 .ARM.attributes
                0x0000198e       0x2c build/lcdc_rgba8888_mxt_9x60_wvga/debug/_ext/273632537/plib_tc0.o
 .ARM.attributes
                0x000019ba       0x2c build/lcdc_rgba8888_mxt_9x60_wvga/debug/_ext/129769842/xc32_monitor.o
 .ARM.attributes
                0x000019e6       0x2c build/lcdc_rgba8888_mxt_9x60_wvga/debug/_ext/256753733/sys_input.o
 .ARM.attributes
                0x00001a12       0x2c build/lcdc_rgba8888_mxt_9x60_wvga/debug/_ext/1928812927/sys_int.o
 .ARM.attributes
                0x00001a3e       0x2c build/lcdc_rgba8888_mxt_9x60_wvga/debug/_ext/1359593799/sys_time.o
 .ARM.attributes
                0x00001a6a       0x2c build/lcdc_rgba8888_mxt_9x60_wvga/debug/_ext/1455094228/fault_handlers.o
 .ARM.attributes
                0x00001a96       0x1c build/lcdc_rgba8888_mxt_9x60_wvga/debug/_ext/1455094228/cstartup.o
 .ARM.attributes
                0x00001ab2       0x2c build/lcdc_rgba8888_mxt_9x60_wvga/debug/_ext/1455094228/interrupts.o
 .ARM.attributes
                0x00001ade       0x2c build/lcdc_rgba8888_mxt_9x60_wvga/debug/_ext/1455094228/initialization.o
 .ARM.attributes
                0x00001b0a       0x2c build/lcdc_rgba8888_mxt_9x60_wvga/debug/_ext/1455094228/tasks.o
 .ARM.attributes
                0x00001b36       0x2c build/lcdc_rgba8888_mxt_9x60_wvga/debug/_ext/1360937237/app.o
 .ARM.attributes
                0x00001b62       0x2c build/lcdc_rgba8888_mxt_9x60_wvga/debug/_ext/1360937237/main.o
 .ARM.attributes
                0x00001b8e       0x1d c:/program files/microchip/xc32/v4.21/bin/bin/../../lib/gcc/pic32c/8.3.1/arm/v5te/nofp\libgcc.a(_udivsi3.o)
 .ARM.attributes
                0x00001bab       0x1d c:/program files/microchip/xc32/v4.21/bin/bin/../../lib/gcc/pic32c/8.3.1/arm/v5te/nofp\libgcc.a(_divsi3.o)
 .ARM.attributes
                0x00001bc8       0x1d c:/program files/microchip/xc32/v4.21/bin/bin/../../lib/gcc/pic32c/8.3.1/arm/v5te/nofp\libgcc.a(_dvmd_tls.o)
 .ARM.attributes
                0x00001be5       0x1d c:/program files/microchip/xc32/v4.21/bin/bin/../../lib/gcc/pic32c/8.3.1/arm/v5te/nofp\libgcc.a(_arm_addsubsf3.o)
 .ARM.attributes
                0x00001c02       0x1d c:/program files/microchip/xc32/v4.21/bin/bin/../../lib/gcc/pic32c/8.3.1/arm/v5te/nofp\libgcc.a(_arm_muldivsf3.o)
 .ARM.attributes
                0x00001c1f       0x1d c:/program files/microchip/xc32/v4.21/bin/bin/../../lib/gcc/pic32c/8.3.1/arm/v5te/nofp\libgcc.a(_arm_cmpsf2.o)
 .ARM.attributes
                0x00001c3c       0x1d c:/program files/microchip/xc32/v4.21/bin/bin/../../lib/gcc/pic32c/8.3.1/arm/v5te/nofp\libgcc.a(_arm_fixsfsi.o)
 .ARM.attributes
                0x00001c59       0x1d c:/program files/microchip/xc32/v4.21/bin/bin/../../lib/gcc/pic32c/8.3.1/arm/v5te/nofp\libgcc.a(_arm_fixunssfsi.o)
 .ARM.attributes
                0x00001c76       0x1d c:/program files/microchip/xc32/v4.21/bin/bin/../../lib/gcc/pic32c/8.3.1/arm/v5te/nofp\libgcc.a(_aeabi_uldivmod.o)
 .ARM.attributes
                0x00001c93       0x2b c:/program files/microchip/xc32/v4.21/bin/bin/../../lib/gcc/pic32c/8.3.1/arm/v5te/nofp\libgcc.a(_udivmoddi4.o)
 .ARM.attributes
                0x00001cbe       0x2d c:/program files/microchip/xc32/v4.21/bin/bin/../../lib/gcc/pic32c/8.3.1/../../../../pic32c/lib/arm/v5te/nofp\libg-musl.a(__libc_start_main.o)
 .ARM.attributes
                0x00001ceb       0x2d c:/program files/microchip/xc32/v4.21/bin/bin/../../lib/gcc/pic32c/8.3.1/../../../../pic32c/lib/arm/v5te/nofp\libg-musl.a(libc.o)
 .ARM.attributes
                0x00001d18       0x2d c:/program files/microchip/xc32/v4.21/bin/bin/../../lib/gcc/pic32c/8.3.1/../../../../pic32c/lib/arm/v5te/nofp\libg-musl.a(__sio_sprintf_dosux.o)
 .ARM.attributes
                0x00001d45       0x2d c:/program files/microchip/xc32/v4.21/bin/bin/../../lib/gcc/pic32c/8.3.1/../../../../pic32c/lib/arm/v5te/nofp\libg-musl.a(__fmt_d.o)
 .ARM.attributes
                0x00001d72       0x2d c:/program files/microchip/xc32/v4.21/bin/bin/../../lib/gcc/pic32c/8.3.1/../../../../pic32c/lib/arm/v5te/nofp\libg-musl.a(__fmt_o.o)
 .ARM.attributes
                0x00001d9f       0x2d c:/program files/microchip/xc32/v4.21/bin/bin/../../lib/gcc/pic32c/8.3.1/../../../../pic32c/lib/arm/v5te/nofp\libg-musl.a(__fmt_s.o)
 .ARM.attributes
                0x00001dcc       0x2d c:/program files/microchip/xc32/v4.21/bin/bin/../../lib/gcc/pic32c/8.3.1/../../../../pic32c/lib/arm/v5te/nofp\libg-musl.a(__fmt_u.o)
 .ARM.attributes
                0x00001df9       0x2d c:/program files/microchip/xc32/v4.21/bin/bin/../../lib/gcc/pic32c/8.3.1/../../../../pic32c/lib/arm/v5te/nofp\libg-musl.a(__fmt_x.o)
 .ARM.attributes
                0x00001e26       0x2d c:/program files/microchip/xc32/v4.21/bin/bin/../../lib/gcc/pic32c/8.3.1/../../../../pic32c/lib/arm/v5te/nofp\libg-musl.a(__pop_int.o)
 .ARM.attributes
                0x00001e53       0x2d c:/program files/microchip/xc32/v4.21/bin/bin/../../lib/gcc/pic32c/8.3.1/../../../../pic32c/lib/arm/v5te/nofp\libg-musl.a(__pop_ptr.o)
 .ARM.attributes
                0x00001e80       0x2d c:/program files/microchip/xc32/v4.21/bin/bin/../../lib/gcc/pic32c/8.3.1/../../../../pic32c/lib/arm/v5te/nofp\libg-musl.a(__printf_core.o)
 .ARM.attributes
                0x00001ead       0x2d c:/program files/microchip/xc32/v4.21/bin/bin/../../lib/gcc/pic32c/8.3.1/../../../../pic32c/lib/arm/v5te/nofp\libg-musl.a(stdout.o)
 .ARM.attributes
                0x00001eda       0x2d c:/program files/microchip/xc32/v4.21/bin/bin/../../lib/gcc/pic32c/8.3.1/../../../../pic32c/lib/arm/v5te/nofp\libg-musl.a(atoi.o)
 .ARM.attributes
                0x00001f07       0x2d c:/program files/microchip/xc32/v4.21/bin/bin/../../lib/gcc/pic32c/8.3.1/../../../../pic32c/lib/arm/v5te/nofp\libg-musl.a(memcpy.o)
 .ARM.attributes
                0x00001f34       0x2d c:/program files/microchip/xc32/v4.21/bin/bin/../../lib/gcc/pic32c/8.3.1/../../../../pic32c/lib/arm/v5te/nofp\libg-musl.a(memset.o)
 .ARM.attributes
                0x00001f61       0x2d c:/program files/microchip/xc32/v4.21/bin/bin/../../lib/gcc/pic32c/8.3.1/../../../../pic32c/lib/arm/v5te/nofp\libg-musl.a(strlen.o)
 .ARM.attributes
                0x00001f8e       0x2d c:/program files/microchip/xc32/v4.21/bin/bin/../../lib/gcc/pic32c/8.3.1/../../../../pic32c/lib/arm/v5te/nofp\libg-musl.a(tolower.o)
 .ARM.attributes
                0x00001fbb       0x2d c:/program files/microchip/xc32/v4.21/bin/bin/../../lib/gcc/pic32c/8.3.1/../../../../pic32c/lib/arm/v5te/nofp\libg-musl.a(toupper.o)
 .ARM.attributes
                0x00001fe8       0x2d c:/program files/microchip/xc32/v4.21/bin/bin/../../lib/gcc/pic32c/8.3.1/../../../../pic32c/lib/arm/v5te/nofp\libg-musl.a(__environ.o)
 .ARM.attributes
                0x00002015       0x2d c:/program files/microchip/xc32/v4.21/bin/bin/../../lib/gcc/pic32c/8.3.1/../../../../pic32c/lib/arm/v5te/nofp\libg-musl.a(__errno_location.o)
 .ARM.attributes
                0x00002042       0x2d c:/program files/microchip/xc32/v4.21/bin/bin/../../lib/gcc/pic32c/8.3.1/../../../../pic32c/lib/arm/v5te/nofp\libg-musl.a(__int_vfprintf.o)
 .ARM.attributes
                0x0000206f       0x2d c:/program files/microchip/xc32/v4.21/bin/bin/../../lib/gcc/pic32c/8.3.1/../../../../pic32c/lib/arm/v5te/nofp\libg-musl.a(__int_vsprintf.o)
 .ARM.attributes
                0x0000209c       0x2d c:/program files/microchip/xc32/v4.21/bin/bin/../../lib/gcc/pic32c/8.3.1/../../../../pic32c/lib/arm/v5te/nofp\libg-musl.a(__pop_float.o)
 .ARM.attributes
                0x000020c9       0x2d c:/program files/microchip/xc32/v4.21/bin/bin/../../lib/gcc/pic32c/8.3.1/../../../../pic32c/lib/arm/v5te/nofp\libg-musl.a(__int_vsnprintf.o)
 .ARM.attributes
                0x000020f6       0x2d c:/program files/microchip/xc32/v4.21/bin/bin/../../lib/gcc/pic32c/8.3.1/../../../../pic32c/lib/arm/v5te/nofp\libg-musl.a(__init_stdio.o)
 .ARM.attributes
                0x00002123       0x2d c:/program files/microchip/xc32/v4.21/bin/bin/../../lib/gcc/pic32c/8.3.1/../../../../pic32c/lib/arm/v5te/nofp\libg-musl.a(__out.o)
 .ARM.attributes
                0x00002150       0x2d c:/program files/microchip/xc32/v4.21/bin/bin/../../lib/gcc/pic32c/8.3.1/../../../../pic32c/lib/arm/v5te/nofp\libg-musl.a(__stdio_close.o)
 .ARM.attributes
                0x0000217d       0x2d c:/program files/microchip/xc32/v4.21/bin/bin/../../lib/gcc/pic32c/8.3.1/../../../../pic32c/lib/arm/v5te/nofp\libg-musl.a(__stdio_seek.o)
 .ARM.attributes
                0x000021aa       0x2d c:/program files/microchip/xc32/v4.21/bin/bin/../../lib/gcc/pic32c/8.3.1/../../../../pic32c/lib/arm/v5te/nofp\libg-musl.a(__stdout.o)
 .ARM.attributes
                0x000021d7       0x2d c:/program files/microchip/xc32/v4.21/bin/bin/../../lib/gcc/pic32c/8.3.1/../../../../pic32c/lib/arm/v5te/nofp\libg-musl.a(__fwrite.o)
 .ARM.attributes
                0x00002204       0x2b c:/program files/microchip/xc32/v4.21/bin/bin/../../lib/gcc/pic32c/8.3.1/../../../../pic32c/lib/arm/v5te/nofp\libpic32c.a(lseek.o)
 .ARM.attributes
                0x0000222f       0x1d c:/program files/microchip/xc32/v4.21/bin/bin/../../lib/gcc/pic32c/8.3.1/arm/v5te/nofp/crtn.o

.comment        0x00000000       0x2b
 .comment       0x00000000       0x2b c:/program files/microchip/xc32/v4.21/bin/bin/../../lib/gcc/pic32c/8.3.1/arm/v5te/nofp/crtbegin.o
                                 0x2c (size before relaxing)
 .comment       0x0000002b       0x2c build/lcdc_rgba8888_mxt_9x60_wvga/debug/_ext/710462340/bsp.o
 .comment       0x0000002b       0x2c build/lcdc_rgba8888_mxt_9x60_wvga/debug/_ext/205529507/drv_i2c.o
 .comment       0x0000002b       0x2c build/lcdc_rgba8888_mxt_9x60_wvga/debug/_ext/802015102/drv_maxtouch.o
 .comment       0x0000002b       0x2c build/lcdc_rgba8888_mxt_9x60_wvga/debug/_ext/51791817/gfx_canvas.o
 .comment       0x0000002b       0x2c build/lcdc_rgba8888_mxt_9x60_wvga/debug/_ext/51791817/gfx_canvas_api.o
 .comment       0x0000002b       0x2c build/lcdc_rgba8888_mxt_9x60_wvga/debug/_ext/95971993/gfx_driver.o
 .comment       0x0000002b       0x2c build/lcdc_rgba8888_mxt_9x60_wvga/debug/_ext/1886796627/drv_gfx_lcdc.o
 .comment       0x0000002b       0x2c build/lcdc_rgba8888_mxt_9x60_wvga/debug/_ext/1483321925/legato_rect.o
 .comment       0x0000002b       0x2c build/lcdc_rgba8888_mxt_9x60_wvga/debug/_ext/1483321925/legato_pixelbuffer.o
 .comment       0x0000002b       0x2c build/lcdc_rgba8888_mxt_9x60_wvga/debug/_ext/1483321925/legato_utils.o
 .comment       0x0000002b       0x2c build/lcdc_rgba8888_mxt_9x60_wvga/debug/_ext/1483321925/legato_color_convert.o
 .comment       0x0000002b       0x2c build/lcdc_rgba8888_mxt_9x60_wvga/debug/_ext/1483321925/legato_color_blend.o
 .comment       0x0000002b       0x2c build/lcdc_rgba8888_mxt_9x60_wvga/debug/_ext/1483321925/legato_math.o
 .comment       0x0000002b       0x2c build/lcdc_rgba8888_mxt_9x60_wvga/debug/_ext/1483321925/legato_color.o
 .comment       0x0000002b       0x2c build/lcdc_rgba8888_mxt_9x60_wvga/debug/_ext/1483321925/legato_color_lerp.o
 .comment       0x0000002b       0x2c build/lcdc_rgba8888_mxt_9x60_wvga/debug/_ext/1553762159/legato_state.o
 .comment       0x0000002b       0x2c build/lcdc_rgba8888_mxt_9x60_wvga/debug/_ext/1553762159/legato_event.o
 .comment       0x0000002b       0x2c build/lcdc_rgba8888_mxt_9x60_wvga/debug/_ext/1553762159/legato_input.o
 .comment       0x0000002b       0x2c build/lcdc_rgba8888_mxt_9x60_wvga/debug/_ext/1553762159/legato_scheme.o
 .comment       0x0000002b       0x2c build/lcdc_rgba8888_mxt_9x60_wvga/debug/_ext/1653592263/legato_array.o
 .comment       0x0000002b       0x2c build/lcdc_rgba8888_mxt_9x60_wvga/debug/_ext/1653592263/legato_list.o
 .comment       0x0000002b       0x2c build/lcdc_rgba8888_mxt_9x60_wvga/debug/_ext/1653592263/legato_rectarray.o
 .comment       0x0000002b       0x2c build/lcdc_rgba8888_mxt_9x60_wvga/debug/_ext/1553851423/legato_font.o
 .comment       0x0000002b       0x2c build/lcdc_rgba8888_mxt_9x60_wvga/debug/_ext/528922783/le_gen_fonts.o
 .comment       0x0000002b       0x2c build/lcdc_rgba8888_mxt_9x60_wvga/debug/_ext/780564725/image5.o
 .comment       0x0000002b       0x2c build/lcdc_rgba8888_mxt_9x60_wvga/debug/_ext/780564725/r3.o
 .comment       0x0000002b       0x2c build/lcdc_rgba8888_mxt_9x60_wvga/debug/_ext/780564725/low_but_up.o
 .comment       0x0000002b       0x2c build/lcdc_rgba8888_mxt_9x60_wvga/debug/_ext/780564725/image6.o
 .comment       0x0000002b       0x2c build/lcdc_rgba8888_mxt_9x60_wvga/debug/_ext/780564725/r2.o
 .comment       0x0000002b       0x2c build/lcdc_rgba8888_mxt_9x60_wvga/debug/_ext/780564725/sports_but_down.o
 .comment       0x0000002b       0x2c build/lcdc_rgba8888_mxt_9x60_wvga/debug/_ext/780564725/warm_but_down.o
 .comment       0x0000002b       0x2c build/lcdc_rgba8888_mxt_9x60_wvga/debug/_ext/780564725/logoH.o
 .comment       0x0000002b       0x2c build/lcdc_rgba8888_mxt_9x60_wvga/debug/_ext/780564725/image7.o
 .comment       0x0000002b       0x2c build/lcdc_rgba8888_mxt_9x60_wvga/debug/_ext/780564725/hot_but_down.o
 .comment       0x0000002b       0x2c build/lcdc_rgba8888_mxt_9x60_wvga/debug/_ext/780564725/r1.o
 .comment       0x0000002b       0x2c build/lcdc_rgba8888_mxt_9x60_wvga/debug/_ext/780564725/high_but_down.o
 .comment       0x0000002b       0x2c build/lcdc_rgba8888_mxt_9x60_wvga/debug/_ext/780564725/image8.o
 .comment       0x0000002b       0x2c build/lcdc_rgba8888_mxt_9x60_wvga/debug/_ext/780564725/round_exit.o
 .comment       0x0000002b       0x2c build/lcdc_rgba8888_mxt_9x60_wvga/debug/_ext/780564725/image1.o
 .comment       0x0000002b       0x2c build/lcdc_rgba8888_mxt_9x60_wvga/debug/_ext/780564725/start_but_up.o
 .comment       0x0000002b       0x2c build/lcdc_rgba8888_mxt_9x60_wvga/debug/_ext/780564725/round_button.o
 .comment       0x0000002b       0x2c build/lcdc_rgba8888_mxt_9x60_wvga/debug/_ext/780564725/r7.o
 .comment       0x0000002b       0x2c build/lcdc_rgba8888_mxt_9x60_wvga/debug/_ext/780564725/image2.o
 .comment       0x0000002b       0x2c build/lcdc_rgba8888_mxt_9x60_wvga/debug/_ext/780564725/r6.o
 .comment       0x0000002b       0x2c build/lcdc_rgba8888_mxt_9x60_wvga/debug/_ext/780564725/image10.o
 .comment       0x0000002b       0x2c build/lcdc_rgba8888_mxt_9x60_wvga/debug/_ext/780564725/close.o
 .comment       0x0000002b       0x2c build/lcdc_rgba8888_mxt_9x60_wvga/debug/_ext/780564725/image3.o
 .comment       0x0000002b       0x2c build/lcdc_rgba8888_mxt_9x60_wvga/debug/_ext/780564725/wool_but_down.o
 .comment       0x0000002b       0x2c build/lcdc_rgba8888_mxt_9x60_wvga/debug/_ext/780564725/r5.o
 .comment       0x0000002b       0x2c build/lcdc_rgba8888_mxt_9x60_wvga/debug/_ext/780564725/image11.o
 .comment       0x0000002b       0x2c build/lcdc_rgba8888_mxt_9x60_wvga/debug/_ext/780564725/start_but_down.o
 .comment       0x0000002b       0x2c build/lcdc_rgba8888_mxt_9x60_wvga/debug/_ext/780564725/image4.o
 .comment       0x0000002b       0x2c build/lcdc_rgba8888_mxt_9x60_wvga/debug/_ext/780564725/r4.o
 .comment       0x0000002b       0x2c build/lcdc_rgba8888_mxt_9x60_wvga/debug/_ext/780564725/image12.o
 .comment       0x0000002b       0x2c build/lcdc_rgba8888_mxt_9x60_wvga/debug/_ext/780564725/bed_but_down.o
 .comment       0x0000002b       0x2c build/lcdc_rgba8888_mxt_9x60_wvga/debug/_ext/780564725/warm_but_up.o
 .comment       0x0000002b       0x2c build/lcdc_rgba8888_mxt_9x60_wvga/debug/_ext/780564725/r12.o
 .comment       0x0000002b       0x2c build/lcdc_rgba8888_mxt_9x60_wvga/debug/_ext/780564725/hot_but_up.o
 .comment       0x0000002b       0x2c build/lcdc_rgba8888_mxt_9x60_wvga/debug/_ext/780564725/r11.o
 .comment       0x0000002b       0x2c build/lcdc_rgba8888_mxt_9x60_wvga/debug/_ext/780564725/normal_but_up.o
 .comment       0x0000002b       0x2c build/lcdc_rgba8888_mxt_9x60_wvga/debug/_ext/780564725/options_but_down.o
 .comment       0x0000002b       0x2c build/lcdc_rgba8888_mxt_9x60_wvga/debug/_ext/780564725/r9.o
 .comment       0x0000002b       0x2c build/lcdc_rgba8888_mxt_9x60_wvga/debug/_ext/780564725/template.o
 .comment       0x0000002b       0x2c build/lcdc_rgba8888_mxt_9x60_wvga/debug/_ext/780564725/r10.o
 .comment       0x0000002b       0x2c build/lcdc_rgba8888_mxt_9x60_wvga/debug/_ext/780564725/prewash_but_off.o
 .comment       0x0000002b       0x2c build/lcdc_rgba8888_mxt_9x60_wvga/debug/_ext/780564725/xrinse_but_off.o
 .comment       0x0000002b       0x2c build/lcdc_rgba8888_mxt_9x60_wvga/debug/_ext/780564725/options_but_up.o
 .comment       0x0000002b       0x2c build/lcdc_rgba8888_mxt_9x60_wvga/debug/_ext/780564725/sound_but_on.o
 .comment       0x0000002b       0x2c build/lcdc_rgba8888_mxt_9x60_wvga/debug/_ext/780564725/r8.o
 .comment       0x0000002b       0x2c build/lcdc_rgba8888_mxt_9x60_wvga/debug/_ext/780564725/high_but_up.o
 .comment       0x0000002b       0x2c build/lcdc_rgba8888_mxt_9x60_wvga/debug/_ext/780564725/cold_but_up.o
 .comment       0x0000002b       0x2c build/lcdc_rgba8888_mxt_9x60_wvga/debug/_ext/780564725/image9.o
 .comment       0x0000002b       0x2c build/lcdc_rgba8888_mxt_9x60_wvga/debug/_ext/780564725/medium_but_up.o
 .comment       0x0000002b       0x2c build/lcdc_rgba8888_mxt_9x60_wvga/debug/_ext/780564725/sports_but_up.o
 .comment       0x0000002b       0x2c build/lcdc_rgba8888_mxt_9x60_wvga/debug/_ext/780564725/medium_but_down.o
 .comment       0x0000002b       0x2c build/lcdc_rgba8888_mxt_9x60_wvga/debug/_ext/780564725/wool_but_up.o
 .comment       0x0000002b       0x2c build/lcdc_rgba8888_mxt_9x60_wvga/debug/_ext/780564725/bed_but_up.o
 .comment       0x0000002b       0x2c build/lcdc_rgba8888_mxt_9x60_wvga/debug/_ext/780564725/low_but_down.o
 .comment       0x0000002b       0x2c build/lcdc_rgba8888_mxt_9x60_wvga/debug/_ext/780564725/normal_but_down.o
 .comment       0x0000002b       0x2c build/lcdc_rgba8888_mxt_9x60_wvga/debug/_ext/780564725/cold_but_down.o
 .comment       0x0000002b       0x2c build/lcdc_rgba8888_mxt_9x60_wvga/debug/_ext/1849858236/le_gen_screen_Screen0.o
 .comment       0x0000002b       0x2c build/lcdc_rgba8888_mxt_9x60_wvga/debug/_ext/1247075393/le_gen_init.o
 .comment       0x0000002b       0x2c build/lcdc_rgba8888_mxt_9x60_wvga/debug/_ext/1247075393/le_gen_stringtable.o
 .comment       0x0000002b       0x2c build/lcdc_rgba8888_mxt_9x60_wvga/debug/_ext/1247075393/le_gen_scheme.o
 .comment       0x0000002b       0x2c build/lcdc_rgba8888_mxt_9x60_wvga/debug/_ext/1247075393/le_gen_globalpalette.o
 .comment       0x0000002b       0x2c build/lcdc_rgba8888_mxt_9x60_wvga/debug/_ext/1247075393/le_gen_harmony.o
 .comment       0x0000002b       0x2c build/lcdc_rgba8888_mxt_9x60_wvga/debug/_ext/1797725076/legato_imagedecoder_jpeg.o
 .comment       0x0000002b       0x2c build/lcdc_rgba8888_mxt_9x60_wvga/debug/_ext/1797725076/legato_imagedecoder_jpeg_common.o
 .comment       0x0000002b       0x2c build/lcdc_rgba8888_mxt_9x60_wvga/debug/_ext/1797725076/jidctint.o
 .comment       0x0000002b       0x2c build/lcdc_rgba8888_mxt_9x60_wvga/debug/_ext/1797636377/legato_imagedecoder_mono.o
 .comment       0x0000002b       0x2c build/lcdc_rgba8888_mxt_9x60_wvga/debug/_ext/1797636377/legato_imagedecoder_mono_read_internal.o
 .comment       0x0000002b       0x2c build/lcdc_rgba8888_mxt_9x60_wvga/debug/_ext/1881677221/legato_imagedecoder_png.o
 .comment       0x0000002b       0x2c build/lcdc_rgba8888_mxt_9x60_wvga/debug/_ext/1881677221/lodepng.o
 .comment       0x0000002b       0x2c build/lcdc_rgba8888_mxt_9x60_wvga/debug/_ext/1881678756/legato_imagedecoder_raw_setup.o
 .comment       0x0000002b       0x2c build/lcdc_rgba8888_mxt_9x60_wvga/debug/_ext/1881678756/legato_imagedecoder_raw_scale.o
 .comment       0x0000002b       0x2c build/lcdc_rgba8888_mxt_9x60_wvga/debug/_ext/1881678756/legato_imagedecoder_raw_mask.o
 .comment       0x0000002b       0x2c build/lcdc_rgba8888_mxt_9x60_wvga/debug/_ext/1881678756/legato_imagedecoder_raw_convert.o
 .comment       0x0000002b       0x2c build/lcdc_rgba8888_mxt_9x60_wvga/debug/_ext/1881678756/legato_imagedecoder_raw_read_internal.o
 .comment       0x0000002b       0x2c build/lcdc_rgba8888_mxt_9x60_wvga/debug/_ext/1881678756/legato_imagedecoder_raw_write.o
 .comment       0x0000002b       0x2c build/lcdc_rgba8888_mxt_9x60_wvga/debug/_ext/1881678756/legato_imagedecoder_raw_blend.o
 .comment       0x0000002b       0x2c build/lcdc_rgba8888_mxt_9x60_wvga/debug/_ext/1881678756/legato_imagedecoder_raw_palette_internal.o
 .comment       0x0000002b       0x2c build/lcdc_rgba8888_mxt_9x60_wvga/debug/_ext/1881678756/legato_imagedecoder_raw.o
 .comment       0x0000002b       0x2c build/lcdc_rgba8888_mxt_9x60_wvga/debug/_ext/1881678756/legato_imagedecoder_raw_rotate.o
 .comment       0x0000002b       0x2c build/lcdc_rgba8888_mxt_9x60_wvga/debug/_ext/927452043/legato_image_utils.o
 .comment       0x0000002b       0x2c build/lcdc_rgba8888_mxt_9x60_wvga/debug/_ext/927452043/legato_image.o
 .comment       0x0000002b       0x2c build/lcdc_rgba8888_mxt_9x60_wvga/debug/_ext/1206263599/legato_memory.o
 .comment       0x0000002b       0x2c build/lcdc_rgba8888_mxt_9x60_wvga/debug/_ext/1206263599/legato_fixedheap.o
 .comment       0x0000002b       0x2c build/lcdc_rgba8888_mxt_9x60_wvga/debug/_ext/1206263599/legato_variableheap.o
 .comment       0x0000002b       0x2c build/lcdc_rgba8888_mxt_9x60_wvga/debug/_ext/564048019/legato_draw_rect.o
 .comment       0x0000002b       0x2c build/lcdc_rgba8888_mxt_9x60_wvga/debug/_ext/564048019/legato_draw.o
 .comment       0x0000002b       0x2c build/lcdc_rgba8888_mxt_9x60_wvga/debug/_ext/564048019/legato_draw_line.o
 .comment       0x0000002b       0x2c build/lcdc_rgba8888_mxt_9x60_wvga/debug/_ext/564048019/legato_renderer.o
 .comment       0x0000002b       0x2c build/lcdc_rgba8888_mxt_9x60_wvga/debug/_ext/564048019/legato_draw_arc.o
 .comment       0x0000002b       0x2c build/lcdc_rgba8888_mxt_9x60_wvga/debug/_ext/564048019/legato_gpu.o
 .comment       0x0000002b       0x2c build/lcdc_rgba8888_mxt_9x60_wvga/debug/_ext/1020492831/legato_stringutils.o
 .comment       0x0000002b       0x2c build/lcdc_rgba8888_mxt_9x60_wvga/debug/_ext/1020492831/legato_tablestring.o
 .comment       0x0000002b       0x2c build/lcdc_rgba8888_mxt_9x60_wvga/debug/_ext/1020492831/legato_stringtable.o
 .comment       0x0000002b       0x2c build/lcdc_rgba8888_mxt_9x60_wvga/debug/_ext/1020492831/legato_fixedstring.o
 .comment       0x0000002b       0x2c build/lcdc_rgba8888_mxt_9x60_wvga/debug/_ext/1020492831/legato_string_renderer.o
 .comment       0x0000002b       0x2c build/lcdc_rgba8888_mxt_9x60_wvga/debug/_ext/1020492831/legato_string.o
 .comment       0x0000002b       0x2c build/lcdc_rgba8888_mxt_9x60_wvga/debug/_ext/424260723/legato_widget_button.o
 .comment       0x0000002b       0x2c build/lcdc_rgba8888_mxt_9x60_wvga/debug/_ext/424260723/legato_widget_button_skin_classic.o
 .comment       0x0000002b       0x2c build/lcdc_rgba8888_mxt_9x60_wvga/debug/_ext/1808593504/legato_widget_image.o
 .comment       0x0000002b       0x2c build/lcdc_rgba8888_mxt_9x60_wvga/debug/_ext/1808593504/legato_widget_image_skin_classic.o
 .comment       0x0000002b       0x2c build/lcdc_rgba8888_mxt_9x60_wvga/debug/_ext/1806179527/legato_widget_label_skin_classic.o
 .comment       0x0000002b       0x2c build/lcdc_rgba8888_mxt_9x60_wvga/debug/_ext/1806179527/legato_widget_label.o
 .comment       0x0000002b       0x2c build/lcdc_rgba8888_mxt_9x60_wvga/debug/_ext/2047371060/legato_widget_rectangle_skin_classic.o
 .comment       0x0000002b       0x2c build/lcdc_rgba8888_mxt_9x60_wvga/debug/_ext/2047371060/legato_widget_rectangle.o
 .comment       0x0000002b       0x2c build/lcdc_rgba8888_mxt_9x60_wvga/debug/_ext/916554220/legato_widget_skin_classic.o
 .comment       0x0000002b       0x2c build/lcdc_rgba8888_mxt_9x60_wvga/debug/_ext/916554220/legato_widget_skin_classic_common.o
 .comment       0x0000002b       0x2c build/lcdc_rgba8888_mxt_9x60_wvga/debug/_ext/916554220/legato_widget.o
 .comment       0x0000002b       0x2c build/lcdc_rgba8888_mxt_9x60_wvga/debug/_ext/107307971/plib_aic.o
 .comment       0x0000002b       0x2c build/lcdc_rgba8888_mxt_9x60_wvga/debug/_ext/107309994/plib_clk.o
 .comment       0x0000002b       0x2c build/lcdc_rgba8888_mxt_9x60_wvga/debug/_ext/1221451702/plib_flexcom0_twi_master.o
 .comment       0x0000002b       0x2c build/lcdc_rgba8888_mxt_9x60_wvga/debug/_ext/968098130/plib_lcdc.o
 .comment       0x0000002b       0x2c build/lcdc_rgba8888_mxt_9x60_wvga/debug/_ext/107319645/plib_mmu.o
 .comment       0x0000002b       0x2c build/lcdc_rgba8888_mxt_9x60_wvga/debug/_ext/107322398/plib_pio.o
 .comment       0x0000002b       0x2c build/lcdc_rgba8888_mxt_9x60_wvga/debug/_ext/107324666/plib_rtt.o
 .comment       0x0000002b       0x2c build/lcdc_rgba8888_mxt_9x60_wvga/debug/_ext/273632537/plib_tc1.o
 .comment       0x0000002b       0x2c build/lcdc_rgba8888_mxt_9x60_wvga/debug/_ext/273632537/plib_tc0.o
 .comment       0x0000002b       0x2c build/lcdc_rgba8888_mxt_9x60_wvga/debug/_ext/129769842/xc32_monitor.o
 .comment       0x0000002b       0x2c build/lcdc_rgba8888_mxt_9x60_wvga/debug/_ext/256753733/sys_input.o
 .comment       0x0000002b       0x2c build/lcdc_rgba8888_mxt_9x60_wvga/debug/_ext/1928812927/sys_int.o
 .comment       0x0000002b       0x2c build/lcdc_rgba8888_mxt_9x60_wvga/debug/_ext/1359593799/sys_time.o
 .comment       0x0000002b       0x2c build/lcdc_rgba8888_mxt_9x60_wvga/debug/_ext/1455094228/fault_handlers.o
 .comment       0x0000002b       0x2c build/lcdc_rgba8888_mxt_9x60_wvga/debug/_ext/1455094228/interrupts.o
 .comment       0x0000002b       0x2c build/lcdc_rgba8888_mxt_9x60_wvga/debug/_ext/1455094228/initialization.o
 .comment       0x0000002b       0x2c build/lcdc_rgba8888_mxt_9x60_wvga/debug/_ext/1455094228/tasks.o
 .comment       0x0000002b       0x2c build/lcdc_rgba8888_mxt_9x60_wvga/debug/_ext/1360937237/app.o
 .comment       0x0000002b       0x2c build/lcdc_rgba8888_mxt_9x60_wvga/debug/_ext/1360937237/main.o
 .comment       0x0000002b       0x2c c:/program files/microchip/xc32/v4.21/bin/bin/../../lib/gcc/pic32c/8.3.1/arm/v5te/nofp\libgcc.a(_udivmoddi4.o)
 .comment       0x0000002b       0x2c c:/program files/microchip/xc32/v4.21/bin/bin/../../lib/gcc/pic32c/8.3.1/../../../../pic32c/lib/arm/v5te/nofp\libg-musl.a(__libc_start_main.o)
 .comment       0x0000002b       0x2c c:/program files/microchip/xc32/v4.21/bin/bin/../../lib/gcc/pic32c/8.3.1/../../../../pic32c/lib/arm/v5te/nofp\libg-musl.a(libc.o)
 .comment       0x0000002b       0x2c c:/program files/microchip/xc32/v4.21/bin/bin/../../lib/gcc/pic32c/8.3.1/../../../../pic32c/lib/arm/v5te/nofp\libg-musl.a(__sio_sprintf_dosux.o)
 .comment       0x0000002b       0x2c c:/program files/microchip/xc32/v4.21/bin/bin/../../lib/gcc/pic32c/8.3.1/../../../../pic32c/lib/arm/v5te/nofp\libg-musl.a(__fmt_d.o)
 .comment       0x0000002b       0x2c c:/program files/microchip/xc32/v4.21/bin/bin/../../lib/gcc/pic32c/8.3.1/../../../../pic32c/lib/arm/v5te/nofp\libg-musl.a(__fmt_o.o)
 .comment       0x0000002b       0x2c c:/program files/microchip/xc32/v4.21/bin/bin/../../lib/gcc/pic32c/8.3.1/../../../../pic32c/lib/arm/v5te/nofp\libg-musl.a(__fmt_s.o)
 .comment       0x0000002b       0x2c c:/program files/microchip/xc32/v4.21/bin/bin/../../lib/gcc/pic32c/8.3.1/../../../../pic32c/lib/arm/v5te/nofp\libg-musl.a(__fmt_u.o)
 .comment       0x0000002b       0x2c c:/program files/microchip/xc32/v4.21/bin/bin/../../lib/gcc/pic32c/8.3.1/../../../../pic32c/lib/arm/v5te/nofp\libg-musl.a(__fmt_x.o)
 .comment       0x0000002b       0x2c c:/program files/microchip/xc32/v4.21/bin/bin/../../lib/gcc/pic32c/8.3.1/../../../../pic32c/lib/arm/v5te/nofp\libg-musl.a(__pop_int.o)
 .comment       0x0000002b       0x2c c:/program files/microchip/xc32/v4.21/bin/bin/../../lib/gcc/pic32c/8.3.1/../../../../pic32c/lib/arm/v5te/nofp\libg-musl.a(__pop_ptr.o)
 .comment       0x0000002b       0x2c c:/program files/microchip/xc32/v4.21/bin/bin/../../lib/gcc/pic32c/8.3.1/../../../../pic32c/lib/arm/v5te/nofp\libg-musl.a(__printf_core.o)
 .comment       0x0000002b       0x2c c:/program files/microchip/xc32/v4.21/bin/bin/../../lib/gcc/pic32c/8.3.1/../../../../pic32c/lib/arm/v5te/nofp\libg-musl.a(stdout.o)
 .comment       0x0000002b       0x2c c:/program files/microchip/xc32/v4.21/bin/bin/../../lib/gcc/pic32c/8.3.1/../../../../pic32c/lib/arm/v5te/nofp\libg-musl.a(atoi.o)
 .comment       0x0000002b       0x2c c:/program files/microchip/xc32/v4.21/bin/bin/../../lib/gcc/pic32c/8.3.1/../../../../pic32c/lib/arm/v5te/nofp\libg-musl.a(memcpy.o)
 .comment       0x0000002b       0x2c c:/program files/microchip/xc32/v4.21/bin/bin/../../lib/gcc/pic32c/8.3.1/../../../../pic32c/lib/arm/v5te/nofp\libg-musl.a(memset.o)
 .comment       0x0000002b       0x2c c:/program files/microchip/xc32/v4.21/bin/bin/../../lib/gcc/pic32c/8.3.1/../../../../pic32c/lib/arm/v5te/nofp\libg-musl.a(strlen.o)
 .comment       0x0000002b       0x2c c:/program files/microchip/xc32/v4.21/bin/bin/../../lib/gcc/pic32c/8.3.1/../../../../pic32c/lib/arm/v5te/nofp\libg-musl.a(tolower.o)
 .comment       0x0000002b       0x2c c:/program files/microchip/xc32/v4.21/bin/bin/../../lib/gcc/pic32c/8.3.1/../../../../pic32c/lib/arm/v5te/nofp\libg-musl.a(toupper.o)
 .comment       0x0000002b       0x2c c:/program files/microchip/xc32/v4.21/bin/bin/../../lib/gcc/pic32c/8.3.1/../../../../pic32c/lib/arm/v5te/nofp\libg-musl.a(__environ.o)
 .comment       0x0000002b       0x2c c:/program files/microchip/xc32/v4.21/bin/bin/../../lib/gcc/pic32c/8.3.1/../../../../pic32c/lib/arm/v5te/nofp\libg-musl.a(__errno_location.o)
 .comment       0x0000002b       0x2c c:/program files/microchip/xc32/v4.21/bin/bin/../../lib/gcc/pic32c/8.3.1/../../../../pic32c/lib/arm/v5te/nofp\libg-musl.a(__int_vfprintf.o)
 .comment       0x0000002b       0x2c c:/program files/microchip/xc32/v4.21/bin/bin/../../lib/gcc/pic32c/8.3.1/../../../../pic32c/lib/arm/v5te/nofp\libg-musl.a(__int_vsprintf.o)
 .comment       0x0000002b       0x2c c:/program files/microchip/xc32/v4.21/bin/bin/../../lib/gcc/pic32c/8.3.1/../../../../pic32c/lib/arm/v5te/nofp\libg-musl.a(__pop_float.o)
 .comment       0x0000002b       0x2c c:/program files/microchip/xc32/v4.21/bin/bin/../../lib/gcc/pic32c/8.3.1/../../../../pic32c/lib/arm/v5te/nofp\libg-musl.a(__int_vsnprintf.o)
 .comment       0x0000002b       0x2c c:/program files/microchip/xc32/v4.21/bin/bin/../../lib/gcc/pic32c/8.3.1/../../../../pic32c/lib/arm/v5te/nofp\libg-musl.a(__init_stdio.o)
 .comment       0x0000002b       0x2c c:/program files/microchip/xc32/v4.21/bin/bin/../../lib/gcc/pic32c/8.3.1/../../../../pic32c/lib/arm/v5te/nofp\libg-musl.a(__out.o)
 .comment       0x0000002b       0x2c c:/program files/microchip/xc32/v4.21/bin/bin/../../lib/gcc/pic32c/8.3.1/../../../../pic32c/lib/arm/v5te/nofp\libg-musl.a(__stdio_close.o)
 .comment       0x0000002b       0x2c c:/program files/microchip/xc32/v4.21/bin/bin/../../lib/gcc/pic32c/8.3.1/../../../../pic32c/lib/arm/v5te/nofp\libg-musl.a(__stdio_seek.o)
 .comment       0x0000002b       0x2c c:/program files/microchip/xc32/v4.21/bin/bin/../../lib/gcc/pic32c/8.3.1/../../../../pic32c/lib/arm/v5te/nofp\libg-musl.a(__stdout.o)
 .comment       0x0000002b       0x2c c:/program files/microchip/xc32/v4.21/bin/bin/../../lib/gcc/pic32c/8.3.1/../../../../pic32c/lib/arm/v5te/nofp\libg-musl.a(__fwrite.o)
 .comment       0x0000002b       0x2c c:/program files/microchip/xc32/v4.21/bin/bin/../../lib/gcc/pic32c/8.3.1/../../../../pic32c/lib/arm/v5te/nofp\libpic32c.a(lseek.o)

.debug_info     0x00000000   0x10d5d2
 .debug_info    0x00000000      0x968 build/lcdc_rgba8888_mxt_9x60_wvga/debug/_ext/710462340/bsp.o
 .debug_info    0x00000968     0x2c50 build/lcdc_rgba8888_mxt_9x60_wvga/debug/_ext/205529507/drv_i2c.o
 .debug_info    0x000035b8     0x61ad build/lcdc_rgba8888_mxt_9x60_wvga/debug/_ext/802015102/drv_maxtouch.o
 .debug_info    0x00009765     0x2c93 build/lcdc_rgba8888_mxt_9x60_wvga/debug/_ext/51791817/gfx_canvas.o
 .debug_info    0x0000c3f8     0x18a0 build/lcdc_rgba8888_mxt_9x60_wvga/debug/_ext/51791817/gfx_canvas_api.o
 .debug_info    0x0000dc98     0x2cda build/lcdc_rgba8888_mxt_9x60_wvga/debug/_ext/95971993/gfx_driver.o
 .debug_info    0x00010972     0x34bd build/lcdc_rgba8888_mxt_9x60_wvga/debug/_ext/1886796627/drv_gfx_lcdc.o
 .debug_info    0x00013e2f      0xa87 build/lcdc_rgba8888_mxt_9x60_wvga/debug/_ext/1483321925/legato_rect.o
 .debug_info    0x000148b6     0x1978 build/lcdc_rgba8888_mxt_9x60_wvga/debug/_ext/1483321925/legato_pixelbuffer.o
 .debug_info    0x0001622e     0x318b build/lcdc_rgba8888_mxt_9x60_wvga/debug/_ext/1483321925/legato_utils.o
 .debug_info    0x000193b9     0x2077 build/lcdc_rgba8888_mxt_9x60_wvga/debug/_ext/1483321925/legato_color_convert.o
 .debug_info    0x0001b430      0x8e5 build/lcdc_rgba8888_mxt_9x60_wvga/debug/_ext/1483321925/legato_color_blend.o
 .debug_info    0x0001bd15     0x19e3 build/lcdc_rgba8888_mxt_9x60_wvga/debug/_ext/1483321925/legato_math.o
 .debug_info    0x0001d6f8      0xa80 build/lcdc_rgba8888_mxt_9x60_wvga/debug/_ext/1483321925/legato_color.o
 .debug_info    0x0001e178      0xfe8 build/lcdc_rgba8888_mxt_9x60_wvga/debug/_ext/1483321925/legato_color_lerp.o
 .debug_info    0x0001f160     0x521f build/lcdc_rgba8888_mxt_9x60_wvga/debug/_ext/1553762159/legato_state.o
 .debug_info    0x0002437f     0x2392 build/lcdc_rgba8888_mxt_9x60_wvga/debug/_ext/1553762159/legato_event.o
 .debug_info    0x00026711     0x44ba build/lcdc_rgba8888_mxt_9x60_wvga/debug/_ext/1553762159/legato_input.o
 .debug_info    0x0002abcb     0x143d build/lcdc_rgba8888_mxt_9x60_wvga/debug/_ext/1553762159/legato_scheme.o
 .debug_info    0x0002c008      0xbb5 build/lcdc_rgba8888_mxt_9x60_wvga/debug/_ext/1653592263/legato_array.o
 .debug_info    0x0002cbbd      0xc71 build/lcdc_rgba8888_mxt_9x60_wvga/debug/_ext/1653592263/legato_list.o
 .debug_info    0x0002d82e     0x14b0 build/lcdc_rgba8888_mxt_9x60_wvga/debug/_ext/1653592263/legato_rectarray.o
 .debug_info    0x0002ecde     0x215e build/lcdc_rgba8888_mxt_9x60_wvga/debug/_ext/1553851423/legato_font.o
 .debug_info    0x00030e3c     0x105b build/lcdc_rgba8888_mxt_9x60_wvga/debug/_ext/528922783/le_gen_fonts.o
 .debug_info    0x00031e97     0x1126 build/lcdc_rgba8888_mxt_9x60_wvga/debug/_ext/780564725/image5.o
 .debug_info    0x00032fbd     0x111a build/lcdc_rgba8888_mxt_9x60_wvga/debug/_ext/780564725/r3.o
 .debug_info    0x000340d7     0x112f build/lcdc_rgba8888_mxt_9x60_wvga/debug/_ext/780564725/low_but_up.o
 .debug_info    0x00035206     0x1126 build/lcdc_rgba8888_mxt_9x60_wvga/debug/_ext/780564725/image6.o
 .debug_info    0x0003632c     0x111a build/lcdc_rgba8888_mxt_9x60_wvga/debug/_ext/780564725/r2.o
 .debug_info    0x00037446     0x113e build/lcdc_rgba8888_mxt_9x60_wvga/debug/_ext/780564725/sports_but_down.o
 .debug_info    0x00038584     0x1139 build/lcdc_rgba8888_mxt_9x60_wvga/debug/_ext/780564725/warm_but_down.o
 .debug_info    0x000396bd     0x1121 build/lcdc_rgba8888_mxt_9x60_wvga/debug/_ext/780564725/logoH.o
 .debug_info    0x0003a7de     0x1126 build/lcdc_rgba8888_mxt_9x60_wvga/debug/_ext/780564725/image7.o
 .debug_info    0x0003b904     0x1135 build/lcdc_rgba8888_mxt_9x60_wvga/debug/_ext/780564725/hot_but_down.o
 .debug_info    0x0003ca39     0x111a build/lcdc_rgba8888_mxt_9x60_wvga/debug/_ext/780564725/r1.o
 .debug_info    0x0003db53     0x1138 build/lcdc_rgba8888_mxt_9x60_wvga/debug/_ext/780564725/high_but_down.o
 .debug_info    0x0003ec8b     0x1126 build/lcdc_rgba8888_mxt_9x60_wvga/debug/_ext/780564725/image8.o
 .debug_info    0x0003fdb1     0x112f build/lcdc_rgba8888_mxt_9x60_wvga/debug/_ext/780564725/round_exit.o
 .debug_info    0x00040ee0     0x1126 build/lcdc_rgba8888_mxt_9x60_wvga/debug/_ext/780564725/image1.o
 .debug_info    0x00042006     0x1136 build/lcdc_rgba8888_mxt_9x60_wvga/debug/_ext/780564725/start_but_up.o
 .debug_info    0x0004313c     0x1136 build/lcdc_rgba8888_mxt_9x60_wvga/debug/_ext/780564725/round_button.o
 .debug_info    0x00044272     0x111a build/lcdc_rgba8888_mxt_9x60_wvga/debug/_ext/780564725/r7.o
 .debug_info    0x0004538c     0x1126 build/lcdc_rgba8888_mxt_9x60_wvga/debug/_ext/780564725/image2.o
 .debug_info    0x000464b2     0x111a build/lcdc_rgba8888_mxt_9x60_wvga/debug/_ext/780564725/r6.o
 .debug_info    0x000475cc     0x1129 build/lcdc_rgba8888_mxt_9x60_wvga/debug/_ext/780564725/image10.o
 .debug_info    0x000486f5     0x1120 build/lcdc_rgba8888_mxt_9x60_wvga/debug/_ext/780564725/close.o
 .debug_info    0x00049815     0x1126 build/lcdc_rgba8888_mxt_9x60_wvga/debug/_ext/780564725/image3.o
 .debug_info    0x0004a93b     0x1138 build/lcdc_rgba8888_mxt_9x60_wvga/debug/_ext/780564725/wool_but_down.o
 .debug_info    0x0004ba73     0x111a build/lcdc_rgba8888_mxt_9x60_wvga/debug/_ext/780564725/r5.o
 .debug_info    0x0004cb8d     0x1129 build/lcdc_rgba8888_mxt_9x60_wvga/debug/_ext/780564725/image11.o
 .debug_info    0x0004dcb6     0x113c build/lcdc_rgba8888_mxt_9x60_wvga/debug/_ext/780564725/start_but_down.o
 .debug_info    0x0004edf2     0x1126 build/lcdc_rgba8888_mxt_9x60_wvga/debug/_ext/780564725/image4.o
 .debug_info    0x0004ff18     0x111a build/lcdc_rgba8888_mxt_9x60_wvga/debug/_ext/780564725/r4.o
 .debug_info    0x00051032     0x1129 build/lcdc_rgba8888_mxt_9x60_wvga/debug/_ext/780564725/image12.o
 .debug_info    0x0005215b     0x1135 build/lcdc_rgba8888_mxt_9x60_wvga/debug/_ext/780564725/bed_but_down.o
 .debug_info    0x00053290     0x1133 build/lcdc_rgba8888_mxt_9x60_wvga/debug/_ext/780564725/warm_but_up.o
 .debug_info    0x000543c3     0x111d build/lcdc_rgba8888_mxt_9x60_wvga/debug/_ext/780564725/r12.o
 .debug_info    0x000554e0     0x112f build/lcdc_rgba8888_mxt_9x60_wvga/debug/_ext/780564725/hot_but_up.o
 .debug_info    0x0005660f     0x111d build/lcdc_rgba8888_mxt_9x60_wvga/debug/_ext/780564725/r11.o
 .debug_info    0x0005772c     0x1138 build/lcdc_rgba8888_mxt_9x60_wvga/debug/_ext/780564725/normal_but_up.o
 .debug_info    0x00058864     0x1142 build/lcdc_rgba8888_mxt_9x60_wvga/debug/_ext/780564725/options_but_down.o
 .debug_info    0x000599a6     0x111a build/lcdc_rgba8888_mxt_9x60_wvga/debug/_ext/780564725/r9.o
 .debug_info    0x0005aac0     0x1129 build/lcdc_rgba8888_mxt_9x60_wvga/debug/_ext/780564725/template.o
 .debug_info    0x0005bbe9     0x111d build/lcdc_rgba8888_mxt_9x60_wvga/debug/_ext/780564725/r10.o
 .debug_info    0x0005cd06     0x113e build/lcdc_rgba8888_mxt_9x60_wvga/debug/_ext/780564725/prewash_but_off.o
 .debug_info    0x0005de44     0x113c build/lcdc_rgba8888_mxt_9x60_wvga/debug/_ext/780564725/xrinse_but_off.o
 .debug_info    0x0005ef80     0x113c build/lcdc_rgba8888_mxt_9x60_wvga/debug/_ext/780564725/options_but_up.o
 .debug_info    0x000600bc     0x1136 build/lcdc_rgba8888_mxt_9x60_wvga/debug/_ext/780564725/sound_but_on.o
 .debug_info    0x000611f2     0x111a build/lcdc_rgba8888_mxt_9x60_wvga/debug/_ext/780564725/r8.o
 .debug_info    0x0006230c     0x1132 build/lcdc_rgba8888_mxt_9x60_wvga/debug/_ext/780564725/high_but_up.o
 .debug_info    0x0006343e     0x1132 build/lcdc_rgba8888_mxt_9x60_wvga/debug/_ext/780564725/cold_but_up.o
 .debug_info    0x00064570     0x1126 build/lcdc_rgba8888_mxt_9x60_wvga/debug/_ext/780564725/image9.o
 .debug_info    0x00065696     0x1138 build/lcdc_rgba8888_mxt_9x60_wvga/debug/_ext/780564725/medium_but_up.o
 .debug_info    0x000667ce     0x1138 build/lcdc_rgba8888_mxt_9x60_wvga/debug/_ext/780564725/sports_but_up.o
 .debug_info    0x00067906     0x113e build/lcdc_rgba8888_mxt_9x60_wvga/debug/_ext/780564725/medium_but_down.o
 .debug_info    0x00068a44     0x1132 build/lcdc_rgba8888_mxt_9x60_wvga/debug/_ext/780564725/wool_but_up.o
 .debug_info    0x00069b76     0x112f build/lcdc_rgba8888_mxt_9x60_wvga/debug/_ext/780564725/bed_but_up.o
 .debug_info    0x0006aca5     0x1135 build/lcdc_rgba8888_mxt_9x60_wvga/debug/_ext/780564725/low_but_down.o
 .debug_info    0x0006bdda     0x113e build/lcdc_rgba8888_mxt_9x60_wvga/debug/_ext/780564725/normal_but_down.o
 .debug_info    0x0006cf18     0x1138 build/lcdc_rgba8888_mxt_9x60_wvga/debug/_ext/780564725/cold_but_down.o
 .debug_info    0x0006e050     0x79f3 build/lcdc_rgba8888_mxt_9x60_wvga/debug/_ext/1849858236/le_gen_screen_Screen0.o
 .debug_info    0x00075a43     0x113c build/lcdc_rgba8888_mxt_9x60_wvga/debug/_ext/1247075393/le_gen_init.o
 .debug_info    0x00076b7f     0x1c7b build/lcdc_rgba8888_mxt_9x60_wvga/debug/_ext/1247075393/le_gen_stringtable.o
 .debug_info    0x000787fa     0x11ef build/lcdc_rgba8888_mxt_9x60_wvga/debug/_ext/1247075393/le_gen_scheme.o
 .debug_info    0x000799e9      0xf65 build/lcdc_rgba8888_mxt_9x60_wvga/debug/_ext/1247075393/le_gen_globalpalette.o
 .debug_info    0x0007a94e     0x28cd build/lcdc_rgba8888_mxt_9x60_wvga/debug/_ext/1247075393/le_gen_harmony.o
 .debug_info    0x0007d21b     0x240e build/lcdc_rgba8888_mxt_9x60_wvga/debug/_ext/1797725076/legato_imagedecoder_jpeg.o
 .debug_info    0x0007f629     0x22df build/lcdc_rgba8888_mxt_9x60_wvga/debug/_ext/1797725076/legato_imagedecoder_jpeg_common.o
 .debug_info    0x00081908      0x673 build/lcdc_rgba8888_mxt_9x60_wvga/debug/_ext/1797725076/jidctint.o
 .debug_info    0x00081f7b     0x2116 build/lcdc_rgba8888_mxt_9x60_wvga/debug/_ext/1797636377/legato_imagedecoder_mono.o
 .debug_info    0x00084091      0xd90 build/lcdc_rgba8888_mxt_9x60_wvga/debug/_ext/1797636377/legato_imagedecoder_mono_read_internal.o
 .debug_info    0x00084e21     0x1a4e build/lcdc_rgba8888_mxt_9x60_wvga/debug/_ext/1881677221/legato_imagedecoder_png.o
 .debug_info    0x0008686f     0x8dc6 build/lcdc_rgba8888_mxt_9x60_wvga/debug/_ext/1881677221/lodepng.o
 .debug_info    0x0008f635     0x1062 build/lcdc_rgba8888_mxt_9x60_wvga/debug/_ext/1881678756/legato_imagedecoder_raw_setup.o
 .debug_info    0x00090697     0x13f8 build/lcdc_rgba8888_mxt_9x60_wvga/debug/_ext/1881678756/legato_imagedecoder_raw_scale.o
 .debug_info    0x00091a8f      0xf7b build/lcdc_rgba8888_mxt_9x60_wvga/debug/_ext/1881678756/legato_imagedecoder_raw_mask.o
 .debug_info    0x00092a0a     0x1789 build/lcdc_rgba8888_mxt_9x60_wvga/debug/_ext/1881678756/legato_imagedecoder_raw_convert.o
 .debug_info    0x00094193     0x1c30 build/lcdc_rgba8888_mxt_9x60_wvga/debug/_ext/1881678756/legato_imagedecoder_raw_read_internal.o
 .debug_info    0x00095dc3     0x18a0 build/lcdc_rgba8888_mxt_9x60_wvga/debug/_ext/1881678756/legato_imagedecoder_raw_write.o
 .debug_info    0x00097663     0x1930 build/lcdc_rgba8888_mxt_9x60_wvga/debug/_ext/1881678756/legato_imagedecoder_raw_blend.o
 .debug_info    0x00098f93     0x1a7c build/lcdc_rgba8888_mxt_9x60_wvga/debug/_ext/1881678756/legato_imagedecoder_raw_palette_internal.o
 .debug_info    0x0009aa0f     0x31db build/lcdc_rgba8888_mxt_9x60_wvga/debug/_ext/1881678756/legato_imagedecoder_raw.o
 .debug_info    0x0009dbea     0x12d4 build/lcdc_rgba8888_mxt_9x60_wvga/debug/_ext/1881678756/legato_imagedecoder_raw_rotate.o
 .debug_info    0x0009eebe      0xb9d build/lcdc_rgba8888_mxt_9x60_wvga/debug/_ext/927452043/legato_image_utils.o
 .debug_info    0x0009fa5b     0x20cb build/lcdc_rgba8888_mxt_9x60_wvga/debug/_ext/927452043/legato_image.o
 .debug_info    0x000a1b26     0x134d build/lcdc_rgba8888_mxt_9x60_wvga/debug/_ext/1206263599/legato_memory.o
 .debug_info    0x000a2e73      0x90e build/lcdc_rgba8888_mxt_9x60_wvga/debug/_ext/1206263599/legato_fixedheap.o
 .debug_info    0x000a3781     0x1ff6 build/lcdc_rgba8888_mxt_9x60_wvga/debug/_ext/1206263599/legato_variableheap.o
 .debug_info    0x000a5777     0x1213 build/lcdc_rgba8888_mxt_9x60_wvga/debug/_ext/564048019/legato_draw_rect.o
 .debug_info    0x000a698a     0x1d8a build/lcdc_rgba8888_mxt_9x60_wvga/debug/_ext/564048019/legato_draw.o
 .debug_info    0x000a8714     0x144b build/lcdc_rgba8888_mxt_9x60_wvga/debug/_ext/564048019/legato_draw_line.o
 .debug_info    0x000a9b5f     0x5ba6 build/lcdc_rgba8888_mxt_9x60_wvga/debug/_ext/564048019/legato_renderer.o
 .debug_info    0x000af705     0x1f1e build/lcdc_rgba8888_mxt_9x60_wvga/debug/_ext/564048019/legato_draw_arc.o
 .debug_info    0x000b1623     0x1907 build/lcdc_rgba8888_mxt_9x60_wvga/debug/_ext/564048019/legato_gpu.o
 .debug_info    0x000b2f2a     0x1967 build/lcdc_rgba8888_mxt_9x60_wvga/debug/_ext/1020492831/legato_stringutils.o
 .debug_info    0x000b4891     0x260e build/lcdc_rgba8888_mxt_9x60_wvga/debug/_ext/1020492831/legato_tablestring.o
 .debug_info    0x000b6e9f     0x14c7 build/lcdc_rgba8888_mxt_9x60_wvga/debug/_ext/1020492831/legato_stringtable.o
 .debug_info    0x000b8366     0x1ab3 build/lcdc_rgba8888_mxt_9x60_wvga/debug/_ext/1020492831/legato_fixedstring.o
 .debug_info    0x000b9e19     0x1a3c build/lcdc_rgba8888_mxt_9x60_wvga/debug/_ext/1020492831/legato_string_renderer.o
 .debug_info    0x000bb855     0x22ad build/lcdc_rgba8888_mxt_9x60_wvga/debug/_ext/1020492831/legato_string.o
 .debug_info    0x000bdb02     0x47d2 build/lcdc_rgba8888_mxt_9x60_wvga/debug/_ext/424260723/legato_widget_button.o
 .debug_info    0x000c22d4     0x4700 build/lcdc_rgba8888_mxt_9x60_wvga/debug/_ext/424260723/legato_widget_button_skin_classic.o
 .debug_info    0x000c69d4     0x337c build/lcdc_rgba8888_mxt_9x60_wvga/debug/_ext/1808593504/legato_widget_image.o
 .debug_info    0x000c9d50     0x33f0 build/lcdc_rgba8888_mxt_9x60_wvga/debug/_ext/1808593504/legato_widget_image_skin_classic.o
 .debug_info    0x000cd140     0x3c0f build/lcdc_rgba8888_mxt_9x60_wvga/debug/_ext/1806179527/legato_widget_label_skin_classic.o
 .debug_info    0x000d0d4f     0x3840 build/lcdc_rgba8888_mxt_9x60_wvga/debug/_ext/1806179527/legato_widget_label.o
 .debug_info    0x000d458f     0x3385 build/lcdc_rgba8888_mxt_9x60_wvga/debug/_ext/2047371060/legato_widget_rectangle_skin_classic.o
 .debug_info    0x000d7914     0x27b3 build/lcdc_rgba8888_mxt_9x60_wvga/debug/_ext/2047371060/legato_widget_rectangle.o
 .debug_info    0x000da0c7     0x2a83 build/lcdc_rgba8888_mxt_9x60_wvga/debug/_ext/916554220/legato_widget_skin_classic.o
 .debug_info    0x000dcb4a     0x3cda build/lcdc_rgba8888_mxt_9x60_wvga/debug/_ext/916554220/legato_widget_skin_classic_common.o
 .debug_info    0x000e0824     0x4fd9 build/lcdc_rgba8888_mxt_9x60_wvga/debug/_ext/916554220/legato_widget.o
 .debug_info    0x000e57fd     0x185a build/lcdc_rgba8888_mxt_9x60_wvga/debug/_ext/107307971/plib_aic.o
 .debug_info    0x000e7057      0x8c7 build/lcdc_rgba8888_mxt_9x60_wvga/debug/_ext/107309994/plib_clk.o
 .debug_info    0x000e791e     0x1749 build/lcdc_rgba8888_mxt_9x60_wvga/debug/_ext/1221451702/plib_flexcom0_twi_master.o
 .debug_info    0x000e9067     0x3fa9 build/lcdc_rgba8888_mxt_9x60_wvga/debug/_ext/968098130/plib_lcdc.o
 .debug_info    0x000ed010      0xedd build/lcdc_rgba8888_mxt_9x60_wvga/debug/_ext/107319645/plib_mmu.o
 .debug_info    0x000edeed      0xbc9 build/lcdc_rgba8888_mxt_9x60_wvga/debug/_ext/107322398/plib_pio.o
 .debug_info    0x000eeab6      0x7c0 build/lcdc_rgba8888_mxt_9x60_wvga/debug/_ext/107324666/plib_rtt.o
 .debug_info    0x000ef276      0x8be build/lcdc_rgba8888_mxt_9x60_wvga/debug/_ext/273632537/plib_tc1.o
 .debug_info    0x000efb34      0xb02 build/lcdc_rgba8888_mxt_9x60_wvga/debug/_ext/273632537/plib_tc0.o
 .debug_info    0x000f0636      0x336 build/lcdc_rgba8888_mxt_9x60_wvga/debug/_ext/129769842/xc32_monitor.o
 .debug_info    0x000f096c     0x1ef2 build/lcdc_rgba8888_mxt_9x60_wvga/debug/_ext/256753733/sys_input.o
 .debug_info    0x000f285e     0x1154 build/lcdc_rgba8888_mxt_9x60_wvga/debug/_ext/1928812927/sys_int.o
 .debug_info    0x000f39b2     0x2a41 build/lcdc_rgba8888_mxt_9x60_wvga/debug/_ext/1359593799/sys_time.o
 .debug_info    0x000f63f3      0x3a4 build/lcdc_rgba8888_mxt_9x60_wvga/debug/_ext/1455094228/fault_handlers.o
 .debug_info    0x000f6797       0x22 build/lcdc_rgba8888_mxt_9x60_wvga/debug/_ext/1455094228/cstartup.o
 .debug_info    0x000f67b9     0x11fc build/lcdc_rgba8888_mxt_9x60_wvga/debug/_ext/1455094228/interrupts.o
 .debug_info    0x000f79b5     0x2c53 build/lcdc_rgba8888_mxt_9x60_wvga/debug/_ext/1455094228/initialization.o
 .debug_info    0x000fa608     0x12a8 build/lcdc_rgba8888_mxt_9x60_wvga/debug/_ext/1455094228/tasks.o
 .debug_info    0x000fb8b0     0x7523 build/lcdc_rgba8888_mxt_9x60_wvga/debug/_ext/1360937237/app.o
 .debug_info    0x00102dd3     0x1197 build/lcdc_rgba8888_mxt_9x60_wvga/debug/_ext/1360937237/main.o
 .debug_info    0x00103f6a       0x26 c:/program files/microchip/xc32/v4.21/bin/bin/../../lib/gcc/pic32c/8.3.1/arm/v5te/nofp\libgcc.a(_udivsi3.o)
 .debug_info    0x00103f90       0x26 c:/program files/microchip/xc32/v4.21/bin/bin/../../lib/gcc/pic32c/8.3.1/arm/v5te/nofp\libgcc.a(_divsi3.o)
 .debug_info    0x00103fb6       0x26 c:/program files/microchip/xc32/v4.21/bin/bin/../../lib/gcc/pic32c/8.3.1/arm/v5te/nofp\libgcc.a(_dvmd_tls.o)
 .debug_info    0x00103fdc       0x26 c:/program files/microchip/xc32/v4.21/bin/bin/../../lib/gcc/pic32c/8.3.1/arm/v5te/nofp\libgcc.a(_arm_addsubsf3.o)
 .debug_info    0x00104002       0x26 c:/program files/microchip/xc32/v4.21/bin/bin/../../lib/gcc/pic32c/8.3.1/arm/v5te/nofp\libgcc.a(_arm_muldivsf3.o)
 .debug_info    0x00104028       0x26 c:/program files/microchip/xc32/v4.21/bin/bin/../../lib/gcc/pic32c/8.3.1/arm/v5te/nofp\libgcc.a(_arm_cmpsf2.o)
 .debug_info    0x0010404e       0x26 c:/program files/microchip/xc32/v4.21/bin/bin/../../lib/gcc/pic32c/8.3.1/arm/v5te/nofp\libgcc.a(_arm_fixsfsi.o)
 .debug_info    0x00104074       0x26 c:/program files/microchip/xc32/v4.21/bin/bin/../../lib/gcc/pic32c/8.3.1/arm/v5te/nofp\libgcc.a(_arm_fixunssfsi.o)
 .debug_info    0x0010409a       0x26 c:/program files/microchip/xc32/v4.21/bin/bin/../../lib/gcc/pic32c/8.3.1/arm/v5te/nofp\libgcc.a(_aeabi_uldivmod.o)
 .debug_info    0x001040c0      0x3f0 c:/program files/microchip/xc32/v4.21/bin/bin/../../lib/gcc/pic32c/8.3.1/arm/v5te/nofp\libgcc.a(_udivmoddi4.o)
 .debug_info    0x001044b0      0x611 c:/program files/microchip/xc32/v4.21/bin/bin/../../lib/gcc/pic32c/8.3.1/../../../../pic32c/lib/arm/v5te/nofp\libg-musl.a(__libc_start_main.o)
 .debug_info    0x00104ac1      0x523 c:/program files/microchip/xc32/v4.21/bin/bin/../../lib/gcc/pic32c/8.3.1/../../../../pic32c/lib/arm/v5te/nofp\libg-musl.a(libc.o)
 .debug_info    0x00104fe4      0x470 c:/program files/microchip/xc32/v4.21/bin/bin/../../lib/gcc/pic32c/8.3.1/../../../../pic32c/lib/arm/v5te/nofp\libg-musl.a(__sio_sprintf_dosux.o)
 .debug_info    0x00105454      0x5b0 c:/program files/microchip/xc32/v4.21/bin/bin/../../lib/gcc/pic32c/8.3.1/../../../../pic32c/lib/arm/v5te/nofp\libg-musl.a(__fmt_d.o)
 .debug_info    0x00105a04      0x581 c:/program files/microchip/xc32/v4.21/bin/bin/../../lib/gcc/pic32c/8.3.1/../../../../pic32c/lib/arm/v5te/nofp\libg-musl.a(__fmt_o.o)
 .debug_info    0x00105f85      0x5c2 c:/program files/microchip/xc32/v4.21/bin/bin/../../lib/gcc/pic32c/8.3.1/../../../../pic32c/lib/arm/v5te/nofp\libg-musl.a(__fmt_s.o)
 .debug_info    0x00106547      0x644 c:/program files/microchip/xc32/v4.21/bin/bin/../../lib/gcc/pic32c/8.3.1/../../../../pic32c/lib/arm/v5te/nofp\libg-musl.a(__fmt_u.o)
 .debug_info    0x00106b8b      0x5ed c:/program files/microchip/xc32/v4.21/bin/bin/../../lib/gcc/pic32c/8.3.1/../../../../pic32c/lib/arm/v5te/nofp\libg-musl.a(__fmt_x.o)
 .debug_info    0x00107178      0x3ee c:/program files/microchip/xc32/v4.21/bin/bin/../../lib/gcc/pic32c/8.3.1/../../../../pic32c/lib/arm/v5te/nofp\libg-musl.a(__pop_int.o)
 .debug_info    0x00107566      0x3f4 c:/program files/microchip/xc32/v4.21/bin/bin/../../lib/gcc/pic32c/8.3.1/../../../../pic32c/lib/arm/v5te/nofp\libg-musl.a(__pop_ptr.o)
 .debug_info    0x0010795a      0xcfc c:/program files/microchip/xc32/v4.21/bin/bin/../../lib/gcc/pic32c/8.3.1/../../../../pic32c/lib/arm/v5te/nofp\libg-musl.a(__printf_core.o)
 .debug_info    0x00108656      0x471 c:/program files/microchip/xc32/v4.21/bin/bin/../../lib/gcc/pic32c/8.3.1/../../../../pic32c/lib/arm/v5te/nofp\libg-musl.a(stdout.o)
 .debug_info    0x00108ac7      0x2e9 c:/program files/microchip/xc32/v4.21/bin/bin/../../lib/gcc/pic32c/8.3.1/../../../../pic32c/lib/arm/v5te/nofp\libg-musl.a(atoi.o)
 .debug_info    0x00108db0      0x2de c:/program files/microchip/xc32/v4.21/bin/bin/../../lib/gcc/pic32c/8.3.1/../../../../pic32c/lib/arm/v5te/nofp\libg-musl.a(memcpy.o)
 .debug_info    0x0010908e      0x2a3 c:/program files/microchip/xc32/v4.21/bin/bin/../../lib/gcc/pic32c/8.3.1/../../../../pic32c/lib/arm/v5te/nofp\libg-musl.a(memset.o)
 .debug_info    0x00109331      0x294 c:/program files/microchip/xc32/v4.21/bin/bin/../../lib/gcc/pic32c/8.3.1/../../../../pic32c/lib/arm/v5te/nofp\libg-musl.a(strlen.o)
 .debug_info    0x001095c5      0x341 c:/program files/microchip/xc32/v4.21/bin/bin/../../lib/gcc/pic32c/8.3.1/../../../../pic32c/lib/arm/v5te/nofp\libg-musl.a(tolower.o)
 .debug_info    0x00109906      0x341 c:/program files/microchip/xc32/v4.21/bin/bin/../../lib/gcc/pic32c/8.3.1/../../../../pic32c/lib/arm/v5te/nofp\libg-musl.a(toupper.o)
 .debug_info    0x00109c47      0x29d c:/program files/microchip/xc32/v4.21/bin/bin/../../lib/gcc/pic32c/8.3.1/../../../../pic32c/lib/arm/v5te/nofp\libg-musl.a(__environ.o)
 .debug_info    0x00109ee4      0x261 c:/program files/microchip/xc32/v4.21/bin/bin/../../lib/gcc/pic32c/8.3.1/../../../../pic32c/lib/arm/v5te/nofp\libg-musl.a(__errno_location.o)
 .debug_info    0x0010a145      0x467 c:/program files/microchip/xc32/v4.21/bin/bin/../../lib/gcc/pic32c/8.3.1/../../../../pic32c/lib/arm/v5te/nofp\libg-musl.a(__int_vfprintf.o)
 .debug_info    0x0010a5ac      0x392 c:/program files/microchip/xc32/v4.21/bin/bin/../../lib/gcc/pic32c/8.3.1/../../../../pic32c/lib/arm/v5te/nofp\libg-musl.a(__int_vsprintf.o)
 .debug_info    0x0010a93e      0x3cb c:/program files/microchip/xc32/v4.21/bin/bin/../../lib/gcc/pic32c/8.3.1/../../../../pic32c/lib/arm/v5te/nofp\libg-musl.a(__pop_float.o)
 .debug_info    0x0010ad09      0x495 c:/program files/microchip/xc32/v4.21/bin/bin/../../lib/gcc/pic32c/8.3.1/../../../../pic32c/lib/arm/v5te/nofp\libg-musl.a(__int_vsnprintf.o)
 .debug_info    0x0010b19e      0x31a c:/program files/microchip/xc32/v4.21/bin/bin/../../lib/gcc/pic32c/8.3.1/../../../../pic32c/lib/arm/v5te/nofp\libg-musl.a(__init_stdio.o)
 .debug_info    0x0010b4b8      0x51e c:/program files/microchip/xc32/v4.21/bin/bin/../../lib/gcc/pic32c/8.3.1/../../../../pic32c/lib/arm/v5te/nofp\libg-musl.a(__out.o)
 .debug_info    0x0010b9d6      0x6a6 c:/program files/microchip/xc32/v4.21/bin/bin/../../lib/gcc/pic32c/8.3.1/../../../../pic32c/lib/arm/v5te/nofp\libg-musl.a(__stdio_close.o)
 .debug_info    0x0010c07c      0x762 c:/program files/microchip/xc32/v4.21/bin/bin/../../lib/gcc/pic32c/8.3.1/../../../../pic32c/lib/arm/v5te/nofp\libg-musl.a(__stdio_seek.o)
 .debug_info    0x0010c7de      0x652 c:/program files/microchip/xc32/v4.21/bin/bin/../../lib/gcc/pic32c/8.3.1/../../../../pic32c/lib/arm/v5te/nofp\libg-musl.a(__stdout.o)
 .debug_info    0x0010ce30      0x534 c:/program files/microchip/xc32/v4.21/bin/bin/../../lib/gcc/pic32c/8.3.1/../../../../pic32c/lib/arm/v5te/nofp\libg-musl.a(__fwrite.o)
 .debug_info    0x0010d364      0x26e c:/program files/microchip/xc32/v4.21/bin/bin/../../lib/gcc/pic32c/8.3.1/../../../../pic32c/lib/arm/v5te/nofp\libpic32c.a(lseek.o)

.debug_abbrev   0x00000000    0x1a7ee
 .debug_abbrev  0x00000000       0x99 build/lcdc_rgba8888_mxt_9x60_wvga/debug/_ext/710462340/bsp.o
 .debug_abbrev  0x00000099      0x53e build/lcdc_rgba8888_mxt_9x60_wvga/debug/_ext/205529507/drv_i2c.o
 .debug_abbrev  0x000005d7      0x634 build/lcdc_rgba8888_mxt_9x60_wvga/debug/_ext/802015102/drv_maxtouch.o
 .debug_abbrev  0x00000c0b      0x5e0 build/lcdc_rgba8888_mxt_9x60_wvga/debug/_ext/51791817/gfx_canvas.o
 .debug_abbrev  0x000011eb      0x3a7 build/lcdc_rgba8888_mxt_9x60_wvga/debug/_ext/51791817/gfx_canvas_api.o
 .debug_abbrev  0x00001592      0x491 build/lcdc_rgba8888_mxt_9x60_wvga/debug/_ext/95971993/gfx_driver.o
 .debug_abbrev  0x00001a23      0x4ea build/lcdc_rgba8888_mxt_9x60_wvga/debug/_ext/1886796627/drv_gfx_lcdc.o
 .debug_abbrev  0x00001f0d      0x25d build/lcdc_rgba8888_mxt_9x60_wvga/debug/_ext/1483321925/legato_rect.o
 .debug_abbrev  0x0000216a      0x385 build/lcdc_rgba8888_mxt_9x60_wvga/debug/_ext/1483321925/legato_pixelbuffer.o
 .debug_abbrev  0x000024ef      0x400 build/lcdc_rgba8888_mxt_9x60_wvga/debug/_ext/1483321925/legato_utils.o
 .debug_abbrev  0x000028ef      0x2f3 build/lcdc_rgba8888_mxt_9x60_wvga/debug/_ext/1483321925/legato_color_convert.o
 .debug_abbrev  0x00002be2      0x184 build/lcdc_rgba8888_mxt_9x60_wvga/debug/_ext/1483321925/legato_color_blend.o
 .debug_abbrev  0x00002d66      0x3c2 build/lcdc_rgba8888_mxt_9x60_wvga/debug/_ext/1483321925/legato_math.o
 .debug_abbrev  0x00003128      0x1dc build/lcdc_rgba8888_mxt_9x60_wvga/debug/_ext/1483321925/legato_color.o
 .debug_abbrev  0x00003304      0x231 build/lcdc_rgba8888_mxt_9x60_wvga/debug/_ext/1483321925/legato_color_lerp.o
 .debug_abbrev  0x00003535      0x510 build/lcdc_rgba8888_mxt_9x60_wvga/debug/_ext/1553762159/legato_state.o
 .debug_abbrev  0x00003a45      0x38a build/lcdc_rgba8888_mxt_9x60_wvga/debug/_ext/1553762159/legato_event.o
 .debug_abbrev  0x00003dcf      0x3cd build/lcdc_rgba8888_mxt_9x60_wvga/debug/_ext/1553762159/legato_input.o
 .debug_abbrev  0x0000419c      0x2bf build/lcdc_rgba8888_mxt_9x60_wvga/debug/_ext/1553762159/legato_scheme.o
 .debug_abbrev  0x0000445b      0x247 build/lcdc_rgba8888_mxt_9x60_wvga/debug/_ext/1653592263/legato_array.o
 .debug_abbrev  0x000046a2      0x275 build/lcdc_rgba8888_mxt_9x60_wvga/debug/_ext/1653592263/legato_list.o
 .debug_abbrev  0x00004917      0x2cc build/lcdc_rgba8888_mxt_9x60_wvga/debug/_ext/1653592263/legato_rectarray.o
 .debug_abbrev  0x00004be3      0x397 build/lcdc_rgba8888_mxt_9x60_wvga/debug/_ext/1553851423/legato_font.o
 .debug_abbrev  0x00004f7a      0x1d5 build/lcdc_rgba8888_mxt_9x60_wvga/debug/_ext/528922783/le_gen_fonts.o
 .debug_abbrev  0x0000514f      0x1e0 build/lcdc_rgba8888_mxt_9x60_wvga/debug/_ext/780564725/image5.o
 .debug_abbrev  0x0000532f      0x1e0 build/lcdc_rgba8888_mxt_9x60_wvga/debug/_ext/780564725/r3.o
 .debug_abbrev  0x0000550f      0x1e0 build/lcdc_rgba8888_mxt_9x60_wvga/debug/_ext/780564725/low_but_up.o
 .debug_abbrev  0x000056ef      0x1e0 build/lcdc_rgba8888_mxt_9x60_wvga/debug/_ext/780564725/image6.o
 .debug_abbrev  0x000058cf      0x1e0 build/lcdc_rgba8888_mxt_9x60_wvga/debug/_ext/780564725/r2.o
 .debug_abbrev  0x00005aaf      0x1e0 build/lcdc_rgba8888_mxt_9x60_wvga/debug/_ext/780564725/sports_but_down.o
 .debug_abbrev  0x00005c8f      0x1e0 build/lcdc_rgba8888_mxt_9x60_wvga/debug/_ext/780564725/warm_but_down.o
 .debug_abbrev  0x00005e6f      0x1e0 build/lcdc_rgba8888_mxt_9x60_wvga/debug/_ext/780564725/logoH.o
 .debug_abbrev  0x0000604f      0x1e0 build/lcdc_rgba8888_mxt_9x60_wvga/debug/_ext/780564725/image7.o
 .debug_abbrev  0x0000622f      0x1e0 build/lcdc_rgba8888_mxt_9x60_wvga/debug/_ext/780564725/hot_but_down.o
 .debug_abbrev  0x0000640f      0x1e0 build/lcdc_rgba8888_mxt_9x60_wvga/debug/_ext/780564725/r1.o
 .debug_abbrev  0x000065ef      0x1e0 build/lcdc_rgba8888_mxt_9x60_wvga/debug/_ext/780564725/high_but_down.o
 .debug_abbrev  0x000067cf      0x1e0 build/lcdc_rgba8888_mxt_9x60_wvga/debug/_ext/780564725/image8.o
 .debug_abbrev  0x000069af      0x1e0 build/lcdc_rgba8888_mxt_9x60_wvga/debug/_ext/780564725/round_exit.o
 .debug_abbrev  0x00006b8f      0x1e0 build/lcdc_rgba8888_mxt_9x60_wvga/debug/_ext/780564725/image1.o
 .debug_abbrev  0x00006d6f      0x1e0 build/lcdc_rgba8888_mxt_9x60_wvga/debug/_ext/780564725/start_but_up.o
 .debug_abbrev  0x00006f4f      0x1e0 build/lcdc_rgba8888_mxt_9x60_wvga/debug/_ext/780564725/round_button.o
 .debug_abbrev  0x0000712f      0x1e0 build/lcdc_rgba8888_mxt_9x60_wvga/debug/_ext/780564725/r7.o
 .debug_abbrev  0x0000730f      0x1e0 build/lcdc_rgba8888_mxt_9x60_wvga/debug/_ext/780564725/image2.o
 .debug_abbrev  0x000074ef      0x1e0 build/lcdc_rgba8888_mxt_9x60_wvga/debug/_ext/780564725/r6.o
 .debug_abbrev  0x000076cf      0x1e0 build/lcdc_rgba8888_mxt_9x60_wvga/debug/_ext/780564725/image10.o
 .debug_abbrev  0x000078af      0x1e0 build/lcdc_rgba8888_mxt_9x60_wvga/debug/_ext/780564725/close.o
 .debug_abbrev  0x00007a8f      0x1e0 build/lcdc_rgba8888_mxt_9x60_wvga/debug/_ext/780564725/image3.o
 .debug_abbrev  0x00007c6f      0x1e0 build/lcdc_rgba8888_mxt_9x60_wvga/debug/_ext/780564725/wool_but_down.o
 .debug_abbrev  0x00007e4f      0x1e0 build/lcdc_rgba8888_mxt_9x60_wvga/debug/_ext/780564725/r5.o
 .debug_abbrev  0x0000802f      0x1e0 build/lcdc_rgba8888_mxt_9x60_wvga/debug/_ext/780564725/image11.o
 .debug_abbrev  0x0000820f      0x1e0 build/lcdc_rgba8888_mxt_9x60_wvga/debug/_ext/780564725/start_but_down.o
 .debug_abbrev  0x000083ef      0x1e0 build/lcdc_rgba8888_mxt_9x60_wvga/debug/_ext/780564725/image4.o
 .debug_abbrev  0x000085cf      0x1e0 build/lcdc_rgba8888_mxt_9x60_wvga/debug/_ext/780564725/r4.o
 .debug_abbrev  0x000087af      0x1e0 build/lcdc_rgba8888_mxt_9x60_wvga/debug/_ext/780564725/image12.o
 .debug_abbrev  0x0000898f      0x1e0 build/lcdc_rgba8888_mxt_9x60_wvga/debug/_ext/780564725/bed_but_down.o
 .debug_abbrev  0x00008b6f      0x1e0 build/lcdc_rgba8888_mxt_9x60_wvga/debug/_ext/780564725/warm_but_up.o
 .debug_abbrev  0x00008d4f      0x1e0 build/lcdc_rgba8888_mxt_9x60_wvga/debug/_ext/780564725/r12.o
 .debug_abbrev  0x00008f2f      0x1e0 build/lcdc_rgba8888_mxt_9x60_wvga/debug/_ext/780564725/hot_but_up.o
 .debug_abbrev  0x0000910f      0x1e0 build/lcdc_rgba8888_mxt_9x60_wvga/debug/_ext/780564725/r11.o
 .debug_abbrev  0x000092ef      0x1e0 build/lcdc_rgba8888_mxt_9x60_wvga/debug/_ext/780564725/normal_but_up.o
 .debug_abbrev  0x000094cf      0x1e0 build/lcdc_rgba8888_mxt_9x60_wvga/debug/_ext/780564725/options_but_down.o
 .debug_abbrev  0x000096af      0x1e0 build/lcdc_rgba8888_mxt_9x60_wvga/debug/_ext/780564725/r9.o
 .debug_abbrev  0x0000988f      0x1e0 build/lcdc_rgba8888_mxt_9x60_wvga/debug/_ext/780564725/template.o
 .debug_abbrev  0x00009a6f      0x1e0 build/lcdc_rgba8888_mxt_9x60_wvga/debug/_ext/780564725/r10.o
 .debug_abbrev  0x00009c4f      0x1e0 build/lcdc_rgba8888_mxt_9x60_wvga/debug/_ext/780564725/prewash_but_off.o
 .debug_abbrev  0x00009e2f      0x1e0 build/lcdc_rgba8888_mxt_9x60_wvga/debug/_ext/780564725/xrinse_but_off.o
 .debug_abbrev  0x0000a00f      0x1e0 build/lcdc_rgba8888_mxt_9x60_wvga/debug/_ext/780564725/options_but_up.o
 .debug_abbrev  0x0000a1ef      0x1e0 build/lcdc_rgba8888_mxt_9x60_wvga/debug/_ext/780564725/sound_but_on.o
 .debug_abbrev  0x0000a3cf      0x1e0 build/lcdc_rgba8888_mxt_9x60_wvga/debug/_ext/780564725/r8.o
 .debug_abbrev  0x0000a5af      0x1e0 build/lcdc_rgba8888_mxt_9x60_wvga/debug/_ext/780564725/high_but_up.o
 .debug_abbrev  0x0000a78f      0x1e0 build/lcdc_rgba8888_mxt_9x60_wvga/debug/_ext/780564725/cold_but_up.o
 .debug_abbrev  0x0000a96f      0x1e0 build/lcdc_rgba8888_mxt_9x60_wvga/debug/_ext/780564725/image9.o
 .debug_abbrev  0x0000ab4f      0x1e0 build/lcdc_rgba8888_mxt_9x60_wvga/debug/_ext/780564725/medium_but_up.o
 .debug_abbrev  0x0000ad2f      0x1e0 build/lcdc_rgba8888_mxt_9x60_wvga/debug/_ext/780564725/sports_but_up.o
 .debug_abbrev  0x0000af0f      0x1e0 build/lcdc_rgba8888_mxt_9x60_wvga/debug/_ext/780564725/medium_but_down.o
 .debug_abbrev  0x0000b0ef      0x1e0 build/lcdc_rgba8888_mxt_9x60_wvga/debug/_ext/780564725/wool_but_up.o
 .debug_abbrev  0x0000b2cf      0x1e0 build/lcdc_rgba8888_mxt_9x60_wvga/debug/_ext/780564725/bed_but_up.o
 .debug_abbrev  0x0000b4af      0x1e0 build/lcdc_rgba8888_mxt_9x60_wvga/debug/_ext/780564725/low_but_down.o
 .debug_abbrev  0x0000b68f      0x1e0 build/lcdc_rgba8888_mxt_9x60_wvga/debug/_ext/780564725/normal_but_down.o
 .debug_abbrev  0x0000b86f      0x1e0 build/lcdc_rgba8888_mxt_9x60_wvga/debug/_ext/780564725/cold_but_down.o
 .debug_abbrev  0x0000ba4f      0x39f build/lcdc_rgba8888_mxt_9x60_wvga/debug/_ext/1849858236/le_gen_screen_Screen0.o
 .debug_abbrev  0x0000bdee      0x27b build/lcdc_rgba8888_mxt_9x60_wvga/debug/_ext/1247075393/le_gen_init.o
 .debug_abbrev  0x0000c069      0x238 build/lcdc_rgba8888_mxt_9x60_wvga/debug/_ext/1247075393/le_gen_stringtable.o
 .debug_abbrev  0x0000c2a1      0x1f4 build/lcdc_rgba8888_mxt_9x60_wvga/debug/_ext/1247075393/le_gen_scheme.o
 .debug_abbrev  0x0000c495      0x1c2 build/lcdc_rgba8888_mxt_9x60_wvga/debug/_ext/1247075393/le_gen_globalpalette.o
 .debug_abbrev  0x0000c657      0x2aa build/lcdc_rgba8888_mxt_9x60_wvga/debug/_ext/1247075393/le_gen_harmony.o
 .debug_abbrev  0x0000c901      0x3cc build/lcdc_rgba8888_mxt_9x60_wvga/debug/_ext/1797725076/legato_imagedecoder_jpeg.o
 .debug_abbrev  0x0000cccd      0x494 build/lcdc_rgba8888_mxt_9x60_wvga/debug/_ext/1797725076/legato_imagedecoder_jpeg_common.o
 .debug_abbrev  0x0000d161      0x132 build/lcdc_rgba8888_mxt_9x60_wvga/debug/_ext/1797725076/jidctint.o
 .debug_abbrev  0x0000d293      0x426 build/lcdc_rgba8888_mxt_9x60_wvga/debug/_ext/1797636377/legato_imagedecoder_mono.o
 .debug_abbrev  0x0000d6b9      0x223 build/lcdc_rgba8888_mxt_9x60_wvga/debug/_ext/1797636377/legato_imagedecoder_mono_read_internal.o
 .debug_abbrev  0x0000d8dc      0x335 build/lcdc_rgba8888_mxt_9x60_wvga/debug/_ext/1881677221/legato_imagedecoder_png.o
 .debug_abbrev  0x0000dc11      0x64e build/lcdc_rgba8888_mxt_9x60_wvga/debug/_ext/1881677221/lodepng.o
 .debug_abbrev  0x0000e25f      0x242 build/lcdc_rgba8888_mxt_9x60_wvga/debug/_ext/1881678756/legato_imagedecoder_raw_setup.o
 .debug_abbrev  0x0000e4a1      0x261 build/lcdc_rgba8888_mxt_9x60_wvga/debug/_ext/1881678756/legato_imagedecoder_raw_scale.o
 .debug_abbrev  0x0000e702      0x1ed build/lcdc_rgba8888_mxt_9x60_wvga/debug/_ext/1881678756/legato_imagedecoder_raw_mask.o
 .debug_abbrev  0x0000e8ef      0x266 build/lcdc_rgba8888_mxt_9x60_wvga/debug/_ext/1881678756/legato_imagedecoder_raw_convert.o
 .debug_abbrev  0x0000eb55      0x2e1 build/lcdc_rgba8888_mxt_9x60_wvga/debug/_ext/1881678756/legato_imagedecoder_raw_read_internal.o
 .debug_abbrev  0x0000ee36      0x263 build/lcdc_rgba8888_mxt_9x60_wvga/debug/_ext/1881678756/legato_imagedecoder_raw_write.o
 .debug_abbrev  0x0000f099      0x2a1 build/lcdc_rgba8888_mxt_9x60_wvga/debug/_ext/1881678756/legato_imagedecoder_raw_blend.o
 .debug_abbrev  0x0000f33a      0x2d4 build/lcdc_rgba8888_mxt_9x60_wvga/debug/_ext/1881678756/legato_imagedecoder_raw_palette_internal.o
 .debug_abbrev  0x0000f60e      0x498 build/lcdc_rgba8888_mxt_9x60_wvga/debug/_ext/1881678756/legato_imagedecoder_raw.o
 .debug_abbrev  0x0000faa6      0x25f build/lcdc_rgba8888_mxt_9x60_wvga/debug/_ext/1881678756/legato_imagedecoder_raw_rotate.o
 .debug_abbrev  0x0000fd05      0x1c4 build/lcdc_rgba8888_mxt_9x60_wvga/debug/_ext/927452043/legato_image_utils.o
 .debug_abbrev  0x0000fec9      0x3d7 build/lcdc_rgba8888_mxt_9x60_wvga/debug/_ext/927452043/legato_image.o
 .debug_abbrev  0x000102a0      0x384 build/lcdc_rgba8888_mxt_9x60_wvga/debug/_ext/1206263599/legato_memory.o
 .debug_abbrev  0x00010624      0x220 build/lcdc_rgba8888_mxt_9x60_wvga/debug/_ext/1206263599/legato_fixedheap.o
 .debug_abbrev  0x00010844      0x42d build/lcdc_rgba8888_mxt_9x60_wvga/debug/_ext/1206263599/legato_variableheap.o
 .debug_abbrev  0x00010c71      0x243 build/lcdc_rgba8888_mxt_9x60_wvga/debug/_ext/564048019/legato_draw_rect.o
 .debug_abbrev  0x00010eb4      0x323 build/lcdc_rgba8888_mxt_9x60_wvga/debug/_ext/564048019/legato_draw.o
 .debug_abbrev  0x000111d7      0x246 build/lcdc_rgba8888_mxt_9x60_wvga/debug/_ext/564048019/legato_draw_line.o
 .debug_abbrev  0x0001141d      0x68d build/lcdc_rgba8888_mxt_9x60_wvga/debug/_ext/564048019/legato_renderer.o
 .debug_abbrev  0x00011aaa      0x397 build/lcdc_rgba8888_mxt_9x60_wvga/debug/_ext/564048019/legato_draw_arc.o
 .debug_abbrev  0x00011e41      0x334 build/lcdc_rgba8888_mxt_9x60_wvga/debug/_ext/564048019/legato_gpu.o
 .debug_abbrev  0x00012175      0x393 build/lcdc_rgba8888_mxt_9x60_wvga/debug/_ext/1020492831/legato_stringutils.o
 .debug_abbrev  0x00012508      0x385 build/lcdc_rgba8888_mxt_9x60_wvga/debug/_ext/1020492831/legato_tablestring.o
 .debug_abbrev  0x0001288d      0x288 build/lcdc_rgba8888_mxt_9x60_wvga/debug/_ext/1020492831/legato_stringtable.o
 .debug_abbrev  0x00012b15      0x2e4 build/lcdc_rgba8888_mxt_9x60_wvga/debug/_ext/1020492831/legato_fixedstring.o
 .debug_abbrev  0x00012df9      0x386 build/lcdc_rgba8888_mxt_9x60_wvga/debug/_ext/1020492831/legato_string_renderer.o
 .debug_abbrev  0x0001317f      0x38e build/lcdc_rgba8888_mxt_9x60_wvga/debug/_ext/1020492831/legato_string.o
 .debug_abbrev  0x0001350d      0x479 build/lcdc_rgba8888_mxt_9x60_wvga/debug/_ext/424260723/legato_widget_button.o
 .debug_abbrev  0x00013986      0x3f9 build/lcdc_rgba8888_mxt_9x60_wvga/debug/_ext/424260723/legato_widget_button_skin_classic.o
 .debug_abbrev  0x00013d7f      0x35c build/lcdc_rgba8888_mxt_9x60_wvga/debug/_ext/1808593504/legato_widget_image.o
 .debug_abbrev  0x000140db      0x30f build/lcdc_rgba8888_mxt_9x60_wvga/debug/_ext/1808593504/legato_widget_image_skin_classic.o
 .debug_abbrev  0x000143ea      0x36d build/lcdc_rgba8888_mxt_9x60_wvga/debug/_ext/1806179527/legato_widget_label_skin_classic.o
 .debug_abbrev  0x00014757      0x367 build/lcdc_rgba8888_mxt_9x60_wvga/debug/_ext/1806179527/legato_widget_label.o
 .debug_abbrev  0x00014abe      0x2ef build/lcdc_rgba8888_mxt_9x60_wvga/debug/_ext/2047371060/legato_widget_rectangle_skin_classic.o
 .debug_abbrev  0x00014dad      0x324 build/lcdc_rgba8888_mxt_9x60_wvga/debug/_ext/2047371060/legato_widget_rectangle.o
 .debug_abbrev  0x000150d1      0x2db build/lcdc_rgba8888_mxt_9x60_wvga/debug/_ext/916554220/legato_widget_skin_classic.o
 .debug_abbrev  0x000153ac      0x39b build/lcdc_rgba8888_mxt_9x60_wvga/debug/_ext/916554220/legato_widget_skin_classic_common.o
 .debug_abbrev  0x00015747      0x4cf build/lcdc_rgba8888_mxt_9x60_wvga/debug/_ext/916554220/legato_widget.o
 .debug_abbrev  0x00015c16      0x2e8 build/lcdc_rgba8888_mxt_9x60_wvga/debug/_ext/107307971/plib_aic.o
 .debug_abbrev  0x00015efe      0x151 build/lcdc_rgba8888_mxt_9x60_wvga/debug/_ext/107309994/plib_clk.o
 .debug_abbrev  0x0001604f      0x355 build/lcdc_rgba8888_mxt_9x60_wvga/debug/_ext/1221451702/plib_flexcom0_twi_master.o
 .debug_abbrev  0x000163a4      0x3a6 build/lcdc_rgba8888_mxt_9x60_wvga/debug/_ext/968098130/plib_lcdc.o
 .debug_abbrev  0x0001674a      0x25d build/lcdc_rgba8888_mxt_9x60_wvga/debug/_ext/107319645/plib_mmu.o
 .debug_abbrev  0x000169a7      0x139 build/lcdc_rgba8888_mxt_9x60_wvga/debug/_ext/107322398/plib_pio.o
 .debug_abbrev  0x00016ae0      0x1d0 build/lcdc_rgba8888_mxt_9x60_wvga/debug/_ext/107324666/plib_rtt.o
 .debug_abbrev  0x00016cb0      0x1c8 build/lcdc_rgba8888_mxt_9x60_wvga/debug/_ext/273632537/plib_tc1.o
 .debug_abbrev  0x00016e78      0x1b4 build/lcdc_rgba8888_mxt_9x60_wvga/debug/_ext/273632537/plib_tc0.o
 .debug_abbrev  0x0001702c       0x96 build/lcdc_rgba8888_mxt_9x60_wvga/debug/_ext/129769842/xc32_monitor.o
 .debug_abbrev  0x000170c2      0x235 build/lcdc_rgba8888_mxt_9x60_wvga/debug/_ext/256753733/sys_input.o
 .debug_abbrev  0x000172f7      0x290 build/lcdc_rgba8888_mxt_9x60_wvga/debug/_ext/1928812927/sys_int.o
 .debug_abbrev  0x00017587      0x58b build/lcdc_rgba8888_mxt_9x60_wvga/debug/_ext/1359593799/sys_time.o
 .debug_abbrev  0x00017b12       0x3e build/lcdc_rgba8888_mxt_9x60_wvga/debug/_ext/1455094228/fault_handlers.o
 .debug_abbrev  0x00017b50       0x12 build/lcdc_rgba8888_mxt_9x60_wvga/debug/_ext/1455094228/cstartup.o
 .debug_abbrev  0x00017b62      0x1ff build/lcdc_rgba8888_mxt_9x60_wvga/debug/_ext/1455094228/interrupts.o
 .debug_abbrev  0x00017d61      0x32a build/lcdc_rgba8888_mxt_9x60_wvga/debug/_ext/1455094228/initialization.o
 .debug_abbrev  0x0001808b      0x208 build/lcdc_rgba8888_mxt_9x60_wvga/debug/_ext/1455094228/tasks.o
 .debug_abbrev  0x00018293      0x453 build/lcdc_rgba8888_mxt_9x60_wvga/debug/_ext/1360937237/app.o
 .debug_abbrev  0x000186e6      0x1ed build/lcdc_rgba8888_mxt_9x60_wvga/debug/_ext/1360937237/main.o
 .debug_abbrev  0x000188d3       0x14 c:/program files/microchip/xc32/v4.21/bin/bin/../../lib/gcc/pic32c/8.3.1/arm/v5te/nofp\libgcc.a(_udivsi3.o)
 .debug_abbrev  0x000188e7       0x14 c:/program files/microchip/xc32/v4.21/bin/bin/../../lib/gcc/pic32c/8.3.1/arm/v5te/nofp\libgcc.a(_divsi3.o)
 .debug_abbrev  0x000188fb       0x14 c:/program files/microchip/xc32/v4.21/bin/bin/../../lib/gcc/pic32c/8.3.1/arm/v5te/nofp\libgcc.a(_dvmd_tls.o)
 .debug_abbrev  0x0001890f       0x14 c:/program files/microchip/xc32/v4.21/bin/bin/../../lib/gcc/pic32c/8.3.1/arm/v5te/nofp\libgcc.a(_arm_addsubsf3.o)
 .debug_abbrev  0x00018923       0x14 c:/program files/microchip/xc32/v4.21/bin/bin/../../lib/gcc/pic32c/8.3.1/arm/v5te/nofp\libgcc.a(_arm_muldivsf3.o)
 .debug_abbrev  0x00018937       0x14 c:/program files/microchip/xc32/v4.21/bin/bin/../../lib/gcc/pic32c/8.3.1/arm/v5te/nofp\libgcc.a(_arm_cmpsf2.o)
 .debug_abbrev  0x0001894b       0x14 c:/program files/microchip/xc32/v4.21/bin/bin/../../lib/gcc/pic32c/8.3.1/arm/v5te/nofp\libgcc.a(_arm_fixsfsi.o)
 .debug_abbrev  0x0001895f       0x14 c:/program files/microchip/xc32/v4.21/bin/bin/../../lib/gcc/pic32c/8.3.1/arm/v5te/nofp\libgcc.a(_arm_fixunssfsi.o)
 .debug_abbrev  0x00018973       0x14 c:/program files/microchip/xc32/v4.21/bin/bin/../../lib/gcc/pic32c/8.3.1/arm/v5te/nofp\libgcc.a(_aeabi_uldivmod.o)
 .debug_abbrev  0x00018987       0x8e c:/program files/microchip/xc32/v4.21/bin/bin/../../lib/gcc/pic32c/8.3.1/arm/v5te/nofp\libgcc.a(_udivmoddi4.o)
 .debug_abbrev  0x00018a15      0x117 c:/program files/microchip/xc32/v4.21/bin/bin/../../lib/gcc/pic32c/8.3.1/../../../../pic32c/lib/arm/v5te/nofp\libg-musl.a(__libc_start_main.o)
 .debug_abbrev  0x00018b2c       0xb8 c:/program files/microchip/xc32/v4.21/bin/bin/../../lib/gcc/pic32c/8.3.1/../../../../pic32c/lib/arm/v5te/nofp\libg-musl.a(libc.o)
 .debug_abbrev  0x00018be4      0x12e c:/program files/microchip/xc32/v4.21/bin/bin/../../lib/gcc/pic32c/8.3.1/../../../../pic32c/lib/arm/v5te/nofp\libg-musl.a(__sio_sprintf_dosux.o)
 .debug_abbrev  0x00018d12      0x120 c:/program files/microchip/xc32/v4.21/bin/bin/../../lib/gcc/pic32c/8.3.1/../../../../pic32c/lib/arm/v5te/nofp\libg-musl.a(__fmt_d.o)
 .debug_abbrev  0x00018e32      0x120 c:/program files/microchip/xc32/v4.21/bin/bin/../../lib/gcc/pic32c/8.3.1/../../../../pic32c/lib/arm/v5te/nofp\libg-musl.a(__fmt_o.o)
 .debug_abbrev  0x00018f52      0x11d c:/program files/microchip/xc32/v4.21/bin/bin/../../lib/gcc/pic32c/8.3.1/../../../../pic32c/lib/arm/v5te/nofp\libg-musl.a(__fmt_s.o)
 .debug_abbrev  0x0001906f      0x174 c:/program files/microchip/xc32/v4.21/bin/bin/../../lib/gcc/pic32c/8.3.1/../../../../pic32c/lib/arm/v5te/nofp\libg-musl.a(__fmt_u.o)
 .debug_abbrev  0x000191e3      0x10f c:/program files/microchip/xc32/v4.21/bin/bin/../../lib/gcc/pic32c/8.3.1/../../../../pic32c/lib/arm/v5te/nofp\libg-musl.a(__fmt_x.o)
 .debug_abbrev  0x000192f2       0xbd c:/program files/microchip/xc32/v4.21/bin/bin/../../lib/gcc/pic32c/8.3.1/../../../../pic32c/lib/arm/v5te/nofp\libg-musl.a(__pop_int.o)
 .debug_abbrev  0x000193af       0xce c:/program files/microchip/xc32/v4.21/bin/bin/../../lib/gcc/pic32c/8.3.1/../../../../pic32c/lib/arm/v5te/nofp\libg-musl.a(__pop_ptr.o)
 .debug_abbrev  0x0001947d      0x2c5 c:/program files/microchip/xc32/v4.21/bin/bin/../../lib/gcc/pic32c/8.3.1/../../../../pic32c/lib/arm/v5te/nofp\libg-musl.a(__printf_core.o)
 .debug_abbrev  0x00019742      0x135 c:/program files/microchip/xc32/v4.21/bin/bin/../../lib/gcc/pic32c/8.3.1/../../../../pic32c/lib/arm/v5te/nofp\libg-musl.a(stdout.o)
 .debug_abbrev  0x00019877       0xbb c:/program files/microchip/xc32/v4.21/bin/bin/../../lib/gcc/pic32c/8.3.1/../../../../pic32c/lib/arm/v5te/nofp\libg-musl.a(atoi.o)
 .debug_abbrev  0x00019932       0x9c c:/program files/microchip/xc32/v4.21/bin/bin/../../lib/gcc/pic32c/8.3.1/../../../../pic32c/lib/arm/v5te/nofp\libg-musl.a(memcpy.o)
 .debug_abbrev  0x000199ce       0x97 c:/program files/microchip/xc32/v4.21/bin/bin/../../lib/gcc/pic32c/8.3.1/../../../../pic32c/lib/arm/v5te/nofp\libg-musl.a(memset.o)
 .debug_abbrev  0x00019a65       0x86 c:/program files/microchip/xc32/v4.21/bin/bin/../../lib/gcc/pic32c/8.3.1/../../../../pic32c/lib/arm/v5te/nofp\libg-musl.a(strlen.o)
 .debug_abbrev  0x00019aeb       0xfd c:/program files/microchip/xc32/v4.21/bin/bin/../../lib/gcc/pic32c/8.3.1/../../../../pic32c/lib/arm/v5te/nofp\libg-musl.a(tolower.o)
 .debug_abbrev  0x00019be8       0xfd c:/program files/microchip/xc32/v4.21/bin/bin/../../lib/gcc/pic32c/8.3.1/../../../../pic32c/lib/arm/v5te/nofp\libg-musl.a(toupper.o)
 .debug_abbrev  0x00019ce5       0x57 c:/program files/microchip/xc32/v4.21/bin/bin/../../lib/gcc/pic32c/8.3.1/../../../../pic32c/lib/arm/v5te/nofp\libg-musl.a(__environ.o)
 .debug_abbrev  0x00019d3c       0x2e c:/program files/microchip/xc32/v4.21/bin/bin/../../lib/gcc/pic32c/8.3.1/../../../../pic32c/lib/arm/v5te/nofp\libg-musl.a(__errno_location.o)
 .debug_abbrev  0x00019d6a      0x111 c:/program files/microchip/xc32/v4.21/bin/bin/../../lib/gcc/pic32c/8.3.1/../../../../pic32c/lib/arm/v5te/nofp\libg-musl.a(__int_vfprintf.o)
 .debug_abbrev  0x00019e7b       0xc3 c:/program files/microchip/xc32/v4.21/bin/bin/../../lib/gcc/pic32c/8.3.1/../../../../pic32c/lib/arm/v5te/nofp\libg-musl.a(__int_vsprintf.o)
 .debug_abbrev  0x00019f3e       0xbd c:/program files/microchip/xc32/v4.21/bin/bin/../../lib/gcc/pic32c/8.3.1/../../../../pic32c/lib/arm/v5te/nofp\libg-musl.a(__pop_float.o)
 .debug_abbrev  0x00019ffb      0x127 c:/program files/microchip/xc32/v4.21/bin/bin/../../lib/gcc/pic32c/8.3.1/../../../../pic32c/lib/arm/v5te/nofp\libg-musl.a(__int_vsnprintf.o)
 .debug_abbrev  0x0001a122       0x5a c:/program files/microchip/xc32/v4.21/bin/bin/../../lib/gcc/pic32c/8.3.1/../../../../pic32c/lib/arm/v5te/nofp\libg-musl.a(__init_stdio.o)
 .debug_abbrev  0x0001a17c      0x16c c:/program files/microchip/xc32/v4.21/bin/bin/../../lib/gcc/pic32c/8.3.1/../../../../pic32c/lib/arm/v5te/nofp\libg-musl.a(__out.o)
 .debug_abbrev  0x0001a2e8      0x122 c:/program files/microchip/xc32/v4.21/bin/bin/../../lib/gcc/pic32c/8.3.1/../../../../pic32c/lib/arm/v5te/nofp\libg-musl.a(__stdio_close.o)
 .debug_abbrev  0x0001a40a      0x143 c:/program files/microchip/xc32/v4.21/bin/bin/../../lib/gcc/pic32c/8.3.1/../../../../pic32c/lib/arm/v5te/nofp\libg-musl.a(__stdio_seek.o)
 .debug_abbrev  0x0001a54d      0x154 c:/program files/microchip/xc32/v4.21/bin/bin/../../lib/gcc/pic32c/8.3.1/../../../../pic32c/lib/arm/v5te/nofp\libg-musl.a(__stdout.o)
 .debug_abbrev  0x0001a6a1      0x11f c:/program files/microchip/xc32/v4.21/bin/bin/../../lib/gcc/pic32c/8.3.1/../../../../pic32c/lib/arm/v5te/nofp\libg-musl.a(__fwrite.o)
 .debug_abbrev  0x0001a7c0       0x2e c:/program files/microchip/xc32/v4.21/bin/bin/../../lib/gcc/pic32c/8.3.1/../../../../pic32c/lib/arm/v5te/nofp\libpic32c.a(lseek.o)

.debug_aranges  0x00000000     0x3bf0
 .debug_aranges
                0x00000000       0x20 build/lcdc_rgba8888_mxt_9x60_wvga/debug/_ext/710462340/bsp.o
 .debug_aranges
                0x00000020       0xc0 build/lcdc_rgba8888_mxt_9x60_wvga/debug/_ext/205529507/drv_i2c.o
 .debug_aranges
                0x000000e0       0xe0 build/lcdc_rgba8888_mxt_9x60_wvga/debug/_ext/802015102/drv_maxtouch.o
 .debug_aranges
                0x000001c0       0xa8 build/lcdc_rgba8888_mxt_9x60_wvga/debug/_ext/51791817/gfx_canvas.o
 .debug_aranges
                0x00000268       0xc8 build/lcdc_rgba8888_mxt_9x60_wvga/debug/_ext/51791817/gfx_canvas_api.o
 .debug_aranges
                0x00000330      0x230 build/lcdc_rgba8888_mxt_9x60_wvga/debug/_ext/95971993/gfx_driver.o
 .debug_aranges
                0x00000560       0x58 build/lcdc_rgba8888_mxt_9x60_wvga/debug/_ext/1886796627/drv_gfx_lcdc.o
 .debug_aranges
                0x000005b8       0x70 build/lcdc_rgba8888_mxt_9x60_wvga/debug/_ext/1483321925/legato_rect.o
 .debug_aranges
                0x00000628       0xd8 build/lcdc_rgba8888_mxt_9x60_wvga/debug/_ext/1483321925/legato_pixelbuffer.o
 .debug_aranges
                0x00000700       0x90 build/lcdc_rgba8888_mxt_9x60_wvga/debug/_ext/1483321925/legato_utils.o
 .debug_aranges
                0x00000790      0x168 build/lcdc_rgba8888_mxt_9x60_wvga/debug/_ext/1483321925/legato_color_convert.o
 .debug_aranges
                0x000008f8       0x28 build/lcdc_rgba8888_mxt_9x60_wvga/debug/_ext/1483321925/legato_color_blend.o
 .debug_aranges
                0x00000920      0x138 build/lcdc_rgba8888_mxt_9x60_wvga/debug/_ext/1483321925/legato_math.o
 .debug_aranges
                0x00000a58       0x40 build/lcdc_rgba8888_mxt_9x60_wvga/debug/_ext/1483321925/legato_color.o
 .debug_aranges
                0x00000a98       0x60 build/lcdc_rgba8888_mxt_9x60_wvga/debug/_ext/1483321925/legato_color_lerp.o
 .debug_aranges
                0x00000af8      0x148 build/lcdc_rgba8888_mxt_9x60_wvga/debug/_ext/1553762159/legato_state.o
 .debug_aranges
                0x00000c40       0x60 build/lcdc_rgba8888_mxt_9x60_wvga/debug/_ext/1553762159/legato_event.o
 .debug_aranges
                0x00000ca0       0x78 build/lcdc_rgba8888_mxt_9x60_wvga/debug/_ext/1553762159/legato_input.o
 .debug_aranges
                0x00000d18       0x30 build/lcdc_rgba8888_mxt_9x60_wvga/debug/_ext/1553762159/legato_scheme.o
 .debug_aranges
                0x00000d48       0x98 build/lcdc_rgba8888_mxt_9x60_wvga/debug/_ext/1653592263/legato_array.o
 .debug_aranges
                0x00000de0       0x80 build/lcdc_rgba8888_mxt_9x60_wvga/debug/_ext/1653592263/legato_list.o
 .debug_aranges
                0x00000e60       0xe0 build/lcdc_rgba8888_mxt_9x60_wvga/debug/_ext/1653592263/legato_rectarray.o
 .debug_aranges
                0x00000f40       0x70 build/lcdc_rgba8888_mxt_9x60_wvga/debug/_ext/1553851423/legato_font.o
 .debug_aranges
                0x00000fb0       0x18 build/lcdc_rgba8888_mxt_9x60_wvga/debug/_ext/528922783/le_gen_fonts.o
 .debug_aranges
                0x00000fc8       0x18 build/lcdc_rgba8888_mxt_9x60_wvga/debug/_ext/780564725/image5.o
 .debug_aranges
                0x00000fe0       0x18 build/lcdc_rgba8888_mxt_9x60_wvga/debug/_ext/780564725/r3.o
 .debug_aranges
                0x00000ff8       0x18 build/lcdc_rgba8888_mxt_9x60_wvga/debug/_ext/780564725/low_but_up.o
 .debug_aranges
                0x00001010       0x18 build/lcdc_rgba8888_mxt_9x60_wvga/debug/_ext/780564725/image6.o
 .debug_aranges
                0x00001028       0x18 build/lcdc_rgba8888_mxt_9x60_wvga/debug/_ext/780564725/r2.o
 .debug_aranges
                0x00001040       0x18 build/lcdc_rgba8888_mxt_9x60_wvga/debug/_ext/780564725/sports_but_down.o
 .debug_aranges
                0x00001058       0x18 build/lcdc_rgba8888_mxt_9x60_wvga/debug/_ext/780564725/warm_but_down.o
 .debug_aranges
                0x00001070       0x18 build/lcdc_rgba8888_mxt_9x60_wvga/debug/_ext/780564725/logoH.o
 .debug_aranges
                0x00001088       0x18 build/lcdc_rgba8888_mxt_9x60_wvga/debug/_ext/780564725/image7.o
 .debug_aranges
                0x000010a0       0x18 build/lcdc_rgba8888_mxt_9x60_wvga/debug/_ext/780564725/hot_but_down.o
 .debug_aranges
                0x000010b8       0x18 build/lcdc_rgba8888_mxt_9x60_wvga/debug/_ext/780564725/r1.o
 .debug_aranges
                0x000010d0       0x18 build/lcdc_rgba8888_mxt_9x60_wvga/debug/_ext/780564725/high_but_down.o
 .debug_aranges
                0x000010e8       0x18 build/lcdc_rgba8888_mxt_9x60_wvga/debug/_ext/780564725/image8.o
 .debug_aranges
                0x00001100       0x18 build/lcdc_rgba8888_mxt_9x60_wvga/debug/_ext/780564725/round_exit.o
 .debug_aranges
                0x00001118       0x18 build/lcdc_rgba8888_mxt_9x60_wvga/debug/_ext/780564725/image1.o
 .debug_aranges
                0x00001130       0x18 build/lcdc_rgba8888_mxt_9x60_wvga/debug/_ext/780564725/start_but_up.o
 .debug_aranges
                0x00001148       0x18 build/lcdc_rgba8888_mxt_9x60_wvga/debug/_ext/780564725/round_button.o
 .debug_aranges
                0x00001160       0x18 build/lcdc_rgba8888_mxt_9x60_wvga/debug/_ext/780564725/r7.o
 .debug_aranges
                0x00001178       0x18 build/lcdc_rgba8888_mxt_9x60_wvga/debug/_ext/780564725/image2.o
 .debug_aranges
                0x00001190       0x18 build/lcdc_rgba8888_mxt_9x60_wvga/debug/_ext/780564725/r6.o
 .debug_aranges
                0x000011a8       0x18 build/lcdc_rgba8888_mxt_9x60_wvga/debug/_ext/780564725/image10.o
 .debug_aranges
                0x000011c0       0x18 build/lcdc_rgba8888_mxt_9x60_wvga/debug/_ext/780564725/close.o
 .debug_aranges
                0x000011d8       0x18 build/lcdc_rgba8888_mxt_9x60_wvga/debug/_ext/780564725/image3.o
 .debug_aranges
                0x000011f0       0x18 build/lcdc_rgba8888_mxt_9x60_wvga/debug/_ext/780564725/wool_but_down.o
 .debug_aranges
                0x00001208       0x18 build/lcdc_rgba8888_mxt_9x60_wvga/debug/_ext/780564725/r5.o
 .debug_aranges
                0x00001220       0x18 build/lcdc_rgba8888_mxt_9x60_wvga/debug/_ext/780564725/image11.o
 .debug_aranges
                0x00001238       0x18 build/lcdc_rgba8888_mxt_9x60_wvga/debug/_ext/780564725/start_but_down.o
 .debug_aranges
                0x00001250       0x18 build/lcdc_rgba8888_mxt_9x60_wvga/debug/_ext/780564725/image4.o
 .debug_aranges
                0x00001268       0x18 build/lcdc_rgba8888_mxt_9x60_wvga/debug/_ext/780564725/r4.o
 .debug_aranges
                0x00001280       0x18 build/lcdc_rgba8888_mxt_9x60_wvga/debug/_ext/780564725/image12.o
 .debug_aranges
                0x00001298       0x18 build/lcdc_rgba8888_mxt_9x60_wvga/debug/_ext/780564725/bed_but_down.o
 .debug_aranges
                0x000012b0       0x18 build/lcdc_rgba8888_mxt_9x60_wvga/debug/_ext/780564725/warm_but_up.o
 .debug_aranges
                0x000012c8       0x18 build/lcdc_rgba8888_mxt_9x60_wvga/debug/_ext/780564725/r12.o
 .debug_aranges
                0x000012e0       0x18 build/lcdc_rgba8888_mxt_9x60_wvga/debug/_ext/780564725/hot_but_up.o
 .debug_aranges
                0x000012f8       0x18 build/lcdc_rgba8888_mxt_9x60_wvga/debug/_ext/780564725/r11.o
 .debug_aranges
                0x00001310       0x18 build/lcdc_rgba8888_mxt_9x60_wvga/debug/_ext/780564725/normal_but_up.o
 .debug_aranges
                0x00001328       0x18 build/lcdc_rgba8888_mxt_9x60_wvga/debug/_ext/780564725/options_but_down.o
 .debug_aranges
                0x00001340       0x18 build/lcdc_rgba8888_mxt_9x60_wvga/debug/_ext/780564725/r9.o
 .debug_aranges
                0x00001358       0x18 build/lcdc_rgba8888_mxt_9x60_wvga/debug/_ext/780564725/template.o
 .debug_aranges
                0x00001370       0x18 build/lcdc_rgba8888_mxt_9x60_wvga/debug/_ext/780564725/r10.o
 .debug_aranges
                0x00001388       0x18 build/lcdc_rgba8888_mxt_9x60_wvga/debug/_ext/780564725/prewash_but_off.o
 .debug_aranges
                0x000013a0       0x18 build/lcdc_rgba8888_mxt_9x60_wvga/debug/_ext/780564725/xrinse_but_off.o
 .debug_aranges
                0x000013b8       0x18 build/lcdc_rgba8888_mxt_9x60_wvga/debug/_ext/780564725/options_but_up.o
 .debug_aranges
                0x000013d0       0x18 build/lcdc_rgba8888_mxt_9x60_wvga/debug/_ext/780564725/sound_but_on.o
 .debug_aranges
                0x000013e8       0x18 build/lcdc_rgba8888_mxt_9x60_wvga/debug/_ext/780564725/r8.o
 .debug_aranges
                0x00001400       0x18 build/lcdc_rgba8888_mxt_9x60_wvga/debug/_ext/780564725/high_but_up.o
 .debug_aranges
                0x00001418       0x18 build/lcdc_rgba8888_mxt_9x60_wvga/debug/_ext/780564725/cold_but_up.o
 .debug_aranges
                0x00001430       0x18 build/lcdc_rgba8888_mxt_9x60_wvga/debug/_ext/780564725/image9.o
 .debug_aranges
                0x00001448       0x18 build/lcdc_rgba8888_mxt_9x60_wvga/debug/_ext/780564725/medium_but_up.o
 .debug_aranges
                0x00001460       0x18 build/lcdc_rgba8888_mxt_9x60_wvga/debug/_ext/780564725/sports_but_up.o
 .debug_aranges
                0x00001478       0x18 build/lcdc_rgba8888_mxt_9x60_wvga/debug/_ext/780564725/medium_but_down.o
 .debug_aranges
                0x00001490       0x18 build/lcdc_rgba8888_mxt_9x60_wvga/debug/_ext/780564725/wool_but_up.o
 .debug_aranges
                0x000014a8       0x18 build/lcdc_rgba8888_mxt_9x60_wvga/debug/_ext/780564725/bed_but_up.o
 .debug_aranges
                0x000014c0       0x18 build/lcdc_rgba8888_mxt_9x60_wvga/debug/_ext/780564725/low_but_down.o
 .debug_aranges
                0x000014d8       0x18 build/lcdc_rgba8888_mxt_9x60_wvga/debug/_ext/780564725/normal_but_down.o
 .debug_aranges
                0x000014f0       0x18 build/lcdc_rgba8888_mxt_9x60_wvga/debug/_ext/780564725/cold_but_down.o
 .debug_aranges
                0x00001508       0x48 build/lcdc_rgba8888_mxt_9x60_wvga/debug/_ext/1849858236/le_gen_screen_Screen0.o
 .debug_aranges
                0x00001550       0x40 build/lcdc_rgba8888_mxt_9x60_wvga/debug/_ext/1247075393/le_gen_init.o
 .debug_aranges
                0x00001590       0x20 build/lcdc_rgba8888_mxt_9x60_wvga/debug/_ext/1247075393/le_gen_stringtable.o
 .debug_aranges
                0x000015b0       0x18 build/lcdc_rgba8888_mxt_9x60_wvga/debug/_ext/1247075393/le_gen_scheme.o
 .debug_aranges
                0x000015c8       0x18 build/lcdc_rgba8888_mxt_9x60_wvga/debug/_ext/1247075393/le_gen_globalpalette.o
 .debug_aranges
                0x000015e0       0x40 build/lcdc_rgba8888_mxt_9x60_wvga/debug/_ext/1247075393/le_gen_harmony.o
 .debug_aranges
                0x00001620       0x58 build/lcdc_rgba8888_mxt_9x60_wvga/debug/_ext/1797725076/legato_imagedecoder_jpeg.o
 .debug_aranges
                0x00001678       0x80 build/lcdc_rgba8888_mxt_9x60_wvga/debug/_ext/1797725076/legato_imagedecoder_jpeg_common.o
 .debug_aranges
                0x000016f8       0x20 build/lcdc_rgba8888_mxt_9x60_wvga/debug/_ext/1797725076/jidctint.o
 .debug_aranges
                0x00001718       0x88 build/lcdc_rgba8888_mxt_9x60_wvga/debug/_ext/1797636377/legato_imagedecoder_mono.o
 .debug_aranges
                0x000017a0       0x28 build/lcdc_rgba8888_mxt_9x60_wvga/debug/_ext/1797636377/legato_imagedecoder_mono_read_internal.o
 .debug_aranges
                0x000017c8       0x50 build/lcdc_rgba8888_mxt_9x60_wvga/debug/_ext/1881677221/legato_imagedecoder_png.o
 .debug_aranges
                0x00001818      0x270 build/lcdc_rgba8888_mxt_9x60_wvga/debug/_ext/1881677221/lodepng.o
 .debug_aranges
                0x00001a88       0x38 build/lcdc_rgba8888_mxt_9x60_wvga/debug/_ext/1881678756/legato_imagedecoder_raw_setup.o
 .debug_aranges
                0x00001ac0       0x58 build/lcdc_rgba8888_mxt_9x60_wvga/debug/_ext/1881678756/legato_imagedecoder_raw_scale.o
 .debug_aranges
                0x00001b18       0x28 build/lcdc_rgba8888_mxt_9x60_wvga/debug/_ext/1881678756/legato_imagedecoder_raw_mask.o
 .debug_aranges
                0x00001b40       0x28 build/lcdc_rgba8888_mxt_9x60_wvga/debug/_ext/1881678756/legato_imagedecoder_raw_convert.o
 .debug_aranges
                0x00001b68       0x58 build/lcdc_rgba8888_mxt_9x60_wvga/debug/_ext/1881678756/legato_imagedecoder_raw_read_internal.o
 .debug_aranges
                0x00001bc0       0x38 build/lcdc_rgba8888_mxt_9x60_wvga/debug/_ext/1881678756/legato_imagedecoder_raw_write.o
 .debug_aranges
                0x00001bf8       0x38 build/lcdc_rgba8888_mxt_9x60_wvga/debug/_ext/1881678756/legato_imagedecoder_raw_blend.o
 .debug_aranges
                0x00001c30       0x38 build/lcdc_rgba8888_mxt_9x60_wvga/debug/_ext/1881678756/legato_imagedecoder_raw_palette_internal.o
 .debug_aranges
                0x00001c68       0xa8 build/lcdc_rgba8888_mxt_9x60_wvga/debug/_ext/1881678756/legato_imagedecoder_raw.o
 .debug_aranges
                0x00001d10       0x48 build/lcdc_rgba8888_mxt_9x60_wvga/debug/_ext/1881678756/legato_imagedecoder_raw_rotate.o
 .debug_aranges
                0x00001d58       0x78 build/lcdc_rgba8888_mxt_9x60_wvga/debug/_ext/927452043/legato_image_utils.o
 .debug_aranges
                0x00001dd0       0x78 build/lcdc_rgba8888_mxt_9x60_wvga/debug/_ext/927452043/legato_image.o
 .debug_aranges
                0x00001e48       0x60 build/lcdc_rgba8888_mxt_9x60_wvga/debug/_ext/1206263599/legato_memory.o
 .debug_aranges
                0x00001ea8       0x48 build/lcdc_rgba8888_mxt_9x60_wvga/debug/_ext/1206263599/legato_fixedheap.o
 .debug_aranges
                0x00001ef0       0xa0 build/lcdc_rgba8888_mxt_9x60_wvga/debug/_ext/1206263599/legato_variableheap.o
 .debug_aranges
                0x00001f90       0x38 build/lcdc_rgba8888_mxt_9x60_wvga/debug/_ext/564048019/legato_draw_rect.o
 .debug_aranges
                0x00001fc8       0x88 build/lcdc_rgba8888_mxt_9x60_wvga/debug/_ext/564048019/legato_draw.o
 .debug_aranges
                0x00002050       0x38 build/lcdc_rgba8888_mxt_9x60_wvga/debug/_ext/564048019/legato_draw_line.o
 .debug_aranges
                0x00002088       0xf0 build/lcdc_rgba8888_mxt_9x60_wvga/debug/_ext/564048019/legato_renderer.o
 .debug_aranges
                0x00002178       0x58 build/lcdc_rgba8888_mxt_9x60_wvga/debug/_ext/564048019/legato_draw_arc.o
 .debug_aranges
                0x000021d0       0x48 build/lcdc_rgba8888_mxt_9x60_wvga/debug/_ext/564048019/legato_gpu.o
 .debug_aranges
                0x00002218       0xb0 build/lcdc_rgba8888_mxt_9x60_wvga/debug/_ext/1020492831/legato_stringutils.o
 .debug_aranges
                0x000022c8       0xb8 build/lcdc_rgba8888_mxt_9x60_wvga/debug/_ext/1020492831/legato_tablestring.o
 .debug_aranges
                0x00002380       0x50 build/lcdc_rgba8888_mxt_9x60_wvga/debug/_ext/1020492831/legato_stringtable.o
 .debug_aranges
                0x000023d0       0xa0 build/lcdc_rgba8888_mxt_9x60_wvga/debug/_ext/1020492831/legato_fixedstring.o
 .debug_aranges
                0x00002470       0x30 build/lcdc_rgba8888_mxt_9x60_wvga/debug/_ext/1020492831/legato_string_renderer.o
 .debug_aranges
                0x000024a0       0x88 build/lcdc_rgba8888_mxt_9x60_wvga/debug/_ext/1020492831/legato_string.o
 .debug_aranges
                0x00002528      0x110 build/lcdc_rgba8888_mxt_9x60_wvga/debug/_ext/424260723/legato_widget_button.o
 .debug_aranges
                0x00002638       0x60 build/lcdc_rgba8888_mxt_9x60_wvga/debug/_ext/424260723/legato_widget_button_skin_classic.o
 .debug_aranges
                0x00002698       0x50 build/lcdc_rgba8888_mxt_9x60_wvga/debug/_ext/1808593504/legato_widget_image.o
 .debug_aranges
                0x000026e8       0x48 build/lcdc_rgba8888_mxt_9x60_wvga/debug/_ext/1808593504/legato_widget_image_skin_classic.o
 .debug_aranges
                0x00002730       0x48 build/lcdc_rgba8888_mxt_9x60_wvga/debug/_ext/1806179527/legato_widget_label_skin_classic.o
 .debug_aranges
                0x00002778       0x60 build/lcdc_rgba8888_mxt_9x60_wvga/debug/_ext/1806179527/legato_widget_label.o
 .debug_aranges
                0x000027d8       0x48 build/lcdc_rgba8888_mxt_9x60_wvga/debug/_ext/2047371060/legato_widget_rectangle_skin_classic.o
 .debug_aranges
                0x00002820       0x40 build/lcdc_rgba8888_mxt_9x60_wvga/debug/_ext/2047371060/legato_widget_rectangle.o
 .debug_aranges
                0x00002860       0x30 build/lcdc_rgba8888_mxt_9x60_wvga/debug/_ext/916554220/legato_widget_skin_classic.o
 .debug_aranges
                0x00002890       0xa0 build/lcdc_rgba8888_mxt_9x60_wvga/debug/_ext/916554220/legato_widget_skin_classic_common.o
 .debug_aranges
                0x00002930      0x2a0 build/lcdc_rgba8888_mxt_9x60_wvga/debug/_ext/916554220/legato_widget.o
 .debug_aranges
                0x00002bd0       0x38 build/lcdc_rgba8888_mxt_9x60_wvga/debug/_ext/107307971/plib_aic.o
 .debug_aranges
                0x00002c08       0x20 build/lcdc_rgba8888_mxt_9x60_wvga/debug/_ext/107309994/plib_clk.o
 .debug_aranges
                0x00002c28       0x78 build/lcdc_rgba8888_mxt_9x60_wvga/debug/_ext/1221451702/plib_flexcom0_twi_master.o
 .debug_aranges
                0x00002ca0      0x298 build/lcdc_rgba8888_mxt_9x60_wvga/debug/_ext/968098130/plib_lcdc.o
 .debug_aranges
                0x00002f38       0x78 build/lcdc_rgba8888_mxt_9x60_wvga/debug/_ext/107319645/plib_mmu.o
 .debug_aranges
                0x00002fb0       0x60 build/lcdc_rgba8888_mxt_9x60_wvga/debug/_ext/107322398/plib_pio.o
 .debug_aranges
                0x00003010       0x70 build/lcdc_rgba8888_mxt_9x60_wvga/debug/_ext/107324666/plib_rtt.o
 .debug_aranges
                0x00003080       0x68 build/lcdc_rgba8888_mxt_9x60_wvga/debug/_ext/273632537/plib_tc1.o
 .debug_aranges
                0x000030e8       0xb8 build/lcdc_rgba8888_mxt_9x60_wvga/debug/_ext/273632537/plib_tc0.o
 .debug_aranges
                0x000031a0       0x28 build/lcdc_rgba8888_mxt_9x60_wvga/debug/_ext/129769842/xc32_monitor.o
 .debug_aranges
                0x000031c8       0xa0 build/lcdc_rgba8888_mxt_9x60_wvga/debug/_ext/256753733/sys_input.o
 .debug_aranges
                0x00003268       0x70 build/lcdc_rgba8888_mxt_9x60_wvga/debug/_ext/1928812927/sys_int.o
 .debug_aranges
                0x000032d8      0x120 build/lcdc_rgba8888_mxt_9x60_wvga/debug/_ext/1359593799/sys_time.o
 .debug_aranges
                0x000033f8       0x38 build/lcdc_rgba8888_mxt_9x60_wvga/debug/_ext/1455094228/fault_handlers.o
 .debug_aranges
                0x00003430       0x30 build/lcdc_rgba8888_mxt_9x60_wvga/debug/_ext/1455094228/cstartup.o
 .debug_aranges
                0x00003460       0x28 build/lcdc_rgba8888_mxt_9x60_wvga/debug/_ext/1455094228/interrupts.o
 .debug_aranges
                0x00003488       0x20 build/lcdc_rgba8888_mxt_9x60_wvga/debug/_ext/1455094228/initialization.o
 .debug_aranges
                0x000034a8       0x20 build/lcdc_rgba8888_mxt_9x60_wvga/debug/_ext/1455094228/tasks.o
 .debug_aranges
                0x000034c8      0x158 build/lcdc_rgba8888_mxt_9x60_wvga/debug/_ext/1360937237/app.o
 .debug_aranges
                0x00003620       0x20 build/lcdc_rgba8888_mxt_9x60_wvga/debug/_ext/1360937237/main.o
 .debug_aranges
                0x00003640       0x20 c:/program files/microchip/xc32/v4.21/bin/bin/../../lib/gcc/pic32c/8.3.1/arm/v5te/nofp\libgcc.a(_udivsi3.o)
 .debug_aranges
                0x00003660       0x20 c:/program files/microchip/xc32/v4.21/bin/bin/../../lib/gcc/pic32c/8.3.1/arm/v5te/nofp\libgcc.a(_divsi3.o)
 .debug_aranges
                0x00003680       0x20 c:/program files/microchip/xc32/v4.21/bin/bin/../../lib/gcc/pic32c/8.3.1/arm/v5te/nofp\libgcc.a(_dvmd_tls.o)
 .debug_aranges
                0x000036a0       0x20 c:/program files/microchip/xc32/v4.21/bin/bin/../../lib/gcc/pic32c/8.3.1/arm/v5te/nofp\libgcc.a(_arm_addsubsf3.o)
 .debug_aranges
                0x000036c0       0x20 c:/program files/microchip/xc32/v4.21/bin/bin/../../lib/gcc/pic32c/8.3.1/arm/v5te/nofp\libgcc.a(_arm_muldivsf3.o)
 .debug_aranges
                0x000036e0       0x20 c:/program files/microchip/xc32/v4.21/bin/bin/../../lib/gcc/pic32c/8.3.1/arm/v5te/nofp\libgcc.a(_arm_cmpsf2.o)
 .debug_aranges
                0x00003700       0x20 c:/program files/microchip/xc32/v4.21/bin/bin/../../lib/gcc/pic32c/8.3.1/arm/v5te/nofp\libgcc.a(_arm_fixsfsi.o)
 .debug_aranges
                0x00003720       0x20 c:/program files/microchip/xc32/v4.21/bin/bin/../../lib/gcc/pic32c/8.3.1/arm/v5te/nofp\libgcc.a(_arm_fixunssfsi.o)
 .debug_aranges
                0x00003740       0x20 c:/program files/microchip/xc32/v4.21/bin/bin/../../lib/gcc/pic32c/8.3.1/arm/v5te/nofp\libgcc.a(_aeabi_uldivmod.o)
 .debug_aranges
                0x00003760       0x20 c:/program files/microchip/xc32/v4.21/bin/bin/../../lib/gcc/pic32c/8.3.1/arm/v5te/nofp\libgcc.a(_udivmoddi4.o)
 .debug_aranges
                0x00003780       0x28 c:/program files/microchip/xc32/v4.21/bin/bin/../../lib/gcc/pic32c/8.3.1/../../../../pic32c/lib/arm/v5te/nofp\libg-musl.a(__libc_start_main.o)
 .debug_aranges
                0x000037a8       0x18 c:/program files/microchip/xc32/v4.21/bin/bin/../../lib/gcc/pic32c/8.3.1/../../../../pic32c/lib/arm/v5te/nofp\libg-musl.a(libc.o)
 .debug_aranges
                0x000037c0       0x28 c:/program files/microchip/xc32/v4.21/bin/bin/../../lib/gcc/pic32c/8.3.1/../../../../pic32c/lib/arm/v5te/nofp\libg-musl.a(__sio_sprintf_dosux.o)
 .debug_aranges
                0x000037e8       0x20 c:/program files/microchip/xc32/v4.21/bin/bin/../../lib/gcc/pic32c/8.3.1/../../../../pic32c/lib/arm/v5te/nofp\libg-musl.a(__fmt_d.o)
 .debug_aranges
                0x00003808       0x20 c:/program files/microchip/xc32/v4.21/bin/bin/../../lib/gcc/pic32c/8.3.1/../../../../pic32c/lib/arm/v5te/nofp\libg-musl.a(__fmt_o.o)
 .debug_aranges
                0x00003828       0x20 c:/program files/microchip/xc32/v4.21/bin/bin/../../lib/gcc/pic32c/8.3.1/../../../../pic32c/lib/arm/v5te/nofp\libg-musl.a(__fmt_s.o)
 .debug_aranges
                0x00003848       0x28 c:/program files/microchip/xc32/v4.21/bin/bin/../../lib/gcc/pic32c/8.3.1/../../../../pic32c/lib/arm/v5te/nofp\libg-musl.a(__fmt_u.o)
 .debug_aranges
                0x00003870       0x20 c:/program files/microchip/xc32/v4.21/bin/bin/../../lib/gcc/pic32c/8.3.1/../../../../pic32c/lib/arm/v5te/nofp\libg-musl.a(__fmt_x.o)
 .debug_aranges
                0x00003890       0x20 c:/program files/microchip/xc32/v4.21/bin/bin/../../lib/gcc/pic32c/8.3.1/../../../../pic32c/lib/arm/v5te/nofp\libg-musl.a(__pop_int.o)
 .debug_aranges
                0x000038b0       0x20 c:/program files/microchip/xc32/v4.21/bin/bin/../../lib/gcc/pic32c/8.3.1/../../../../pic32c/lib/arm/v5te/nofp\libg-musl.a(__pop_ptr.o)
 .debug_aranges
                0x000038d0       0x50 c:/program files/microchip/xc32/v4.21/bin/bin/../../lib/gcc/pic32c/8.3.1/../../../../pic32c/lib/arm/v5te/nofp\libg-musl.a(__printf_core.o)
 .debug_aranges
                0x00003920       0x30 c:/program files/microchip/xc32/v4.21/bin/bin/../../lib/gcc/pic32c/8.3.1/../../../../pic32c/lib/arm/v5te/nofp\libg-musl.a(stdout.o)
 .debug_aranges
                0x00003950       0x20 c:/program files/microchip/xc32/v4.21/bin/bin/../../lib/gcc/pic32c/8.3.1/../../../../pic32c/lib/arm/v5te/nofp\libg-musl.a(atoi.o)
 .debug_aranges
                0x00003970       0x20 c:/program files/microchip/xc32/v4.21/bin/bin/../../lib/gcc/pic32c/8.3.1/../../../../pic32c/lib/arm/v5te/nofp\libg-musl.a(memcpy.o)
 .debug_aranges
                0x00003990       0x20 c:/program files/microchip/xc32/v4.21/bin/bin/../../lib/gcc/pic32c/8.3.1/../../../../pic32c/lib/arm/v5te/nofp\libg-musl.a(memset.o)
 .debug_aranges
                0x000039b0       0x20 c:/program files/microchip/xc32/v4.21/bin/bin/../../lib/gcc/pic32c/8.3.1/../../../../pic32c/lib/arm/v5te/nofp\libg-musl.a(strlen.o)
 .debug_aranges
                0x000039d0       0x28 c:/program files/microchip/xc32/v4.21/bin/bin/../../lib/gcc/pic32c/8.3.1/../../../../pic32c/lib/arm/v5te/nofp\libg-musl.a(tolower.o)
 .debug_aranges
                0x000039f8       0x28 c:/program files/microchip/xc32/v4.21/bin/bin/../../lib/gcc/pic32c/8.3.1/../../../../pic32c/lib/arm/v5te/nofp\libg-musl.a(toupper.o)
 .debug_aranges
                0x00003a20       0x18 c:/program files/microchip/xc32/v4.21/bin/bin/../../lib/gcc/pic32c/8.3.1/../../../../pic32c/lib/arm/v5te/nofp\libg-musl.a(__environ.o)
 .debug_aranges
                0x00003a38       0x18 c:/program files/microchip/xc32/v4.21/bin/bin/../../lib/gcc/pic32c/8.3.1/../../../../pic32c/lib/arm/v5te/nofp\libg-musl.a(__errno_location.o)
 .debug_aranges
                0x00003a50       0x20 c:/program files/microchip/xc32/v4.21/bin/bin/../../lib/gcc/pic32c/8.3.1/../../../../pic32c/lib/arm/v5te/nofp\libg-musl.a(__int_vfprintf.o)
 .debug_aranges
                0x00003a70       0x20 c:/program files/microchip/xc32/v4.21/bin/bin/../../lib/gcc/pic32c/8.3.1/../../../../pic32c/lib/arm/v5te/nofp\libg-musl.a(__int_vsprintf.o)
 .debug_aranges
                0x00003a90       0x20 c:/program files/microchip/xc32/v4.21/bin/bin/../../lib/gcc/pic32c/8.3.1/../../../../pic32c/lib/arm/v5te/nofp\libg-musl.a(__pop_float.o)
 .debug_aranges
                0x00003ab0       0x20 c:/program files/microchip/xc32/v4.21/bin/bin/../../lib/gcc/pic32c/8.3.1/../../../../pic32c/lib/arm/v5te/nofp\libg-musl.a(__int_vsnprintf.o)
 .debug_aranges
                0x00003ad0       0x28 c:/program files/microchip/xc32/v4.21/bin/bin/../../lib/gcc/pic32c/8.3.1/../../../../pic32c/lib/arm/v5te/nofp\libg-musl.a(__init_stdio.o)
 .debug_aranges
                0x00003af8       0x28 c:/program files/microchip/xc32/v4.21/bin/bin/../../lib/gcc/pic32c/8.3.1/../../../../pic32c/lib/arm/v5te/nofp\libg-musl.a(__out.o)
 .debug_aranges
                0x00003b20       0x28 c:/program files/microchip/xc32/v4.21/bin/bin/../../lib/gcc/pic32c/8.3.1/../../../../pic32c/lib/arm/v5te/nofp\libg-musl.a(__stdio_close.o)
 .debug_aranges
                0x00003b48       0x30 c:/program files/microchip/xc32/v4.21/bin/bin/../../lib/gcc/pic32c/8.3.1/../../../../pic32c/lib/arm/v5te/nofp\libg-musl.a(__stdio_seek.o)
 .debug_aranges
                0x00003b78       0x30 c:/program files/microchip/xc32/v4.21/bin/bin/../../lib/gcc/pic32c/8.3.1/../../../../pic32c/lib/arm/v5te/nofp\libg-musl.a(__stdout.o)
 .debug_aranges
                0x00003ba8       0x28 c:/program files/microchip/xc32/v4.21/bin/bin/../../lib/gcc/pic32c/8.3.1/../../../../pic32c/lib/arm/v5te/nofp\libg-musl.a(__fwrite.o)
 .debug_aranges
                0x00003bd0       0x20 c:/program files/microchip/xc32/v4.21/bin/bin/../../lib/gcc/pic32c/8.3.1/../../../../pic32c/lib/arm/v5te/nofp\libpic32c.a(lseek.o)

.debug_ranges   0x00000000     0x4380
 .debug_ranges  0x00000000       0x10 build/lcdc_rgba8888_mxt_9x60_wvga/debug/_ext/710462340/bsp.o
 .debug_ranges  0x00000010      0x130 build/lcdc_rgba8888_mxt_9x60_wvga/debug/_ext/205529507/drv_i2c.o
 .debug_ranges  0x00000140      0x2b0 build/lcdc_rgba8888_mxt_9x60_wvga/debug/_ext/802015102/drv_maxtouch.o
 .debug_ranges  0x000003f0      0x140 build/lcdc_rgba8888_mxt_9x60_wvga/debug/_ext/51791817/gfx_canvas.o
 .debug_ranges  0x00000530       0xb8 build/lcdc_rgba8888_mxt_9x60_wvga/debug/_ext/51791817/gfx_canvas_api.o
 .debug_ranges  0x000005e8      0x2d0 build/lcdc_rgba8888_mxt_9x60_wvga/debug/_ext/95971993/gfx_driver.o
 .debug_ranges  0x000008b8       0x60 build/lcdc_rgba8888_mxt_9x60_wvga/debug/_ext/1886796627/drv_gfx_lcdc.o
 .debug_ranges  0x00000918       0x60 build/lcdc_rgba8888_mxt_9x60_wvga/debug/_ext/1483321925/legato_rect.o
 .debug_ranges  0x00000978       0xc8 build/lcdc_rgba8888_mxt_9x60_wvga/debug/_ext/1483321925/legato_pixelbuffer.o
 .debug_ranges  0x00000a40       0x80 build/lcdc_rgba8888_mxt_9x60_wvga/debug/_ext/1483321925/legato_utils.o
 .debug_ranges  0x00000ac0      0x158 build/lcdc_rgba8888_mxt_9x60_wvga/debug/_ext/1483321925/legato_color_convert.o
 .debug_ranges  0x00000c18      0x108 build/lcdc_rgba8888_mxt_9x60_wvga/debug/_ext/1483321925/legato_color_blend.o
 .debug_ranges  0x00000d20      0x128 build/lcdc_rgba8888_mxt_9x60_wvga/debug/_ext/1483321925/legato_math.o
 .debug_ranges  0x00000e48       0x90 build/lcdc_rgba8888_mxt_9x60_wvga/debug/_ext/1483321925/legato_color.o
 .debug_ranges  0x00000ed8       0x50 build/lcdc_rgba8888_mxt_9x60_wvga/debug/_ext/1483321925/legato_color_lerp.o
 .debug_ranges  0x00000f28      0x138 build/lcdc_rgba8888_mxt_9x60_wvga/debug/_ext/1553762159/legato_state.o
 .debug_ranges  0x00001060       0x68 build/lcdc_rgba8888_mxt_9x60_wvga/debug/_ext/1553762159/legato_event.o
 .debug_ranges  0x000010c8       0x68 build/lcdc_rgba8888_mxt_9x60_wvga/debug/_ext/1553762159/legato_input.o
 .debug_ranges  0x00001130       0x20 build/lcdc_rgba8888_mxt_9x60_wvga/debug/_ext/1553762159/legato_scheme.o
 .debug_ranges  0x00001150       0x88 build/lcdc_rgba8888_mxt_9x60_wvga/debug/_ext/1653592263/legato_array.o
 .debug_ranges  0x000011d8       0x70 build/lcdc_rgba8888_mxt_9x60_wvga/debug/_ext/1653592263/legato_list.o
 .debug_ranges  0x00001248       0xd0 build/lcdc_rgba8888_mxt_9x60_wvga/debug/_ext/1653592263/legato_rectarray.o
 .debug_ranges  0x00001318       0x60 build/lcdc_rgba8888_mxt_9x60_wvga/debug/_ext/1553851423/legato_font.o
 .debug_ranges  0x00001378       0x38 build/lcdc_rgba8888_mxt_9x60_wvga/debug/_ext/1849858236/le_gen_screen_Screen0.o
 .debug_ranges  0x000013b0       0x48 build/lcdc_rgba8888_mxt_9x60_wvga/debug/_ext/1247075393/le_gen_init.o
 .debug_ranges  0x000013f8       0x10 build/lcdc_rgba8888_mxt_9x60_wvga/debug/_ext/1247075393/le_gen_stringtable.o
 .debug_ranges  0x00001408       0x30 build/lcdc_rgba8888_mxt_9x60_wvga/debug/_ext/1247075393/le_gen_harmony.o
 .debug_ranges  0x00001438       0x48 build/lcdc_rgba8888_mxt_9x60_wvga/debug/_ext/1797725076/legato_imagedecoder_jpeg.o
 .debug_ranges  0x00001480      0x1a8 build/lcdc_rgba8888_mxt_9x60_wvga/debug/_ext/1797725076/legato_imagedecoder_jpeg_common.o
 .debug_ranges  0x00001628       0x10 build/lcdc_rgba8888_mxt_9x60_wvga/debug/_ext/1797725076/jidctint.o
 .debug_ranges  0x00001638       0x78 build/lcdc_rgba8888_mxt_9x60_wvga/debug/_ext/1797636377/legato_imagedecoder_mono.o
 .debug_ranges  0x000016b0       0x18 build/lcdc_rgba8888_mxt_9x60_wvga/debug/_ext/1797636377/legato_imagedecoder_mono_read_internal.o
 .debug_ranges  0x000016c8       0x40 build/lcdc_rgba8888_mxt_9x60_wvga/debug/_ext/1881677221/legato_imagedecoder_png.o
 .debug_ranges  0x00001708      0xda0 build/lcdc_rgba8888_mxt_9x60_wvga/debug/_ext/1881677221/lodepng.o
 .debug_ranges  0x000024a8       0x28 build/lcdc_rgba8888_mxt_9x60_wvga/debug/_ext/1881678756/legato_imagedecoder_raw_setup.o
 .debug_ranges  0x000024d0       0x48 build/lcdc_rgba8888_mxt_9x60_wvga/debug/_ext/1881678756/legato_imagedecoder_raw_scale.o
 .debug_ranges  0x00002518       0x18 build/lcdc_rgba8888_mxt_9x60_wvga/debug/_ext/1881678756/legato_imagedecoder_raw_mask.o
 .debug_ranges  0x00002530       0x18 build/lcdc_rgba8888_mxt_9x60_wvga/debug/_ext/1881678756/legato_imagedecoder_raw_convert.o
 .debug_ranges  0x00002548       0x48 build/lcdc_rgba8888_mxt_9x60_wvga/debug/_ext/1881678756/legato_imagedecoder_raw_read_internal.o
 .debug_ranges  0x00002590       0x28 build/lcdc_rgba8888_mxt_9x60_wvga/debug/_ext/1881678756/legato_imagedecoder_raw_write.o
 .debug_ranges  0x000025b8       0x28 build/lcdc_rgba8888_mxt_9x60_wvga/debug/_ext/1881678756/legato_imagedecoder_raw_blend.o
 .debug_ranges  0x000025e0       0x28 build/lcdc_rgba8888_mxt_9x60_wvga/debug/_ext/1881678756/legato_imagedecoder_raw_palette_internal.o
 .debug_ranges  0x00002608       0x98 build/lcdc_rgba8888_mxt_9x60_wvga/debug/_ext/1881678756/legato_imagedecoder_raw.o
 .debug_ranges  0x000026a0       0x38 build/lcdc_rgba8888_mxt_9x60_wvga/debug/_ext/1881678756/legato_imagedecoder_raw_rotate.o
 .debug_ranges  0x000026d8       0x68 build/lcdc_rgba8888_mxt_9x60_wvga/debug/_ext/927452043/legato_image_utils.o
 .debug_ranges  0x00002740       0x68 build/lcdc_rgba8888_mxt_9x60_wvga/debug/_ext/927452043/legato_image.o
 .debug_ranges  0x000027a8       0xa8 build/lcdc_rgba8888_mxt_9x60_wvga/debug/_ext/1206263599/legato_memory.o
 .debug_ranges  0x00002850       0x38 build/lcdc_rgba8888_mxt_9x60_wvga/debug/_ext/1206263599/legato_fixedheap.o
 .debug_ranges  0x00002888      0x138 build/lcdc_rgba8888_mxt_9x60_wvga/debug/_ext/1206263599/legato_variableheap.o
 .debug_ranges  0x000029c0       0x28 build/lcdc_rgba8888_mxt_9x60_wvga/debug/_ext/564048019/legato_draw_rect.o
 .debug_ranges  0x000029e8       0x78 build/lcdc_rgba8888_mxt_9x60_wvga/debug/_ext/564048019/legato_draw.o
 .debug_ranges  0x00002a60       0x28 build/lcdc_rgba8888_mxt_9x60_wvga/debug/_ext/564048019/legato_draw_line.o
 .debug_ranges  0x00002a88      0x158 build/lcdc_rgba8888_mxt_9x60_wvga/debug/_ext/564048019/legato_renderer.o
 .debug_ranges  0x00002be0       0xe0 build/lcdc_rgba8888_mxt_9x60_wvga/debug/_ext/564048019/legato_draw_arc.o
 .debug_ranges  0x00002cc0       0x38 build/lcdc_rgba8888_mxt_9x60_wvga/debug/_ext/564048019/legato_gpu.o
 .debug_ranges  0x00002cf8       0xa0 build/lcdc_rgba8888_mxt_9x60_wvga/debug/_ext/1020492831/legato_stringutils.o
 .debug_ranges  0x00002d98       0xa8 build/lcdc_rgba8888_mxt_9x60_wvga/debug/_ext/1020492831/legato_tablestring.o
 .debug_ranges  0x00002e40       0x40 build/lcdc_rgba8888_mxt_9x60_wvga/debug/_ext/1020492831/legato_stringtable.o
 .debug_ranges  0x00002e80       0x90 build/lcdc_rgba8888_mxt_9x60_wvga/debug/_ext/1020492831/legato_fixedstring.o
 .debug_ranges  0x00002f10       0x58 build/lcdc_rgba8888_mxt_9x60_wvga/debug/_ext/1020492831/legato_string_renderer.o
 .debug_ranges  0x00002f68       0x78 build/lcdc_rgba8888_mxt_9x60_wvga/debug/_ext/1020492831/legato_string.o
 .debug_ranges  0x00002fe0      0x100 build/lcdc_rgba8888_mxt_9x60_wvga/debug/_ext/424260723/legato_widget_button.o
 .debug_ranges  0x000030e0       0x50 build/lcdc_rgba8888_mxt_9x60_wvga/debug/_ext/424260723/legato_widget_button_skin_classic.o
 .debug_ranges  0x00003130       0x40 build/lcdc_rgba8888_mxt_9x60_wvga/debug/_ext/1808593504/legato_widget_image.o
 .debug_ranges  0x00003170       0x38 build/lcdc_rgba8888_mxt_9x60_wvga/debug/_ext/1808593504/legato_widget_image_skin_classic.o
 .debug_ranges  0x000031a8       0x38 build/lcdc_rgba8888_mxt_9x60_wvga/debug/_ext/1806179527/legato_widget_label_skin_classic.o
 .debug_ranges  0x000031e0       0x50 build/lcdc_rgba8888_mxt_9x60_wvga/debug/_ext/1806179527/legato_widget_label.o
 .debug_ranges  0x00003230       0x38 build/lcdc_rgba8888_mxt_9x60_wvga/debug/_ext/2047371060/legato_widget_rectangle_skin_classic.o
 .debug_ranges  0x00003268       0x30 build/lcdc_rgba8888_mxt_9x60_wvga/debug/_ext/2047371060/legato_widget_rectangle.o
 .debug_ranges  0x00003298       0x20 build/lcdc_rgba8888_mxt_9x60_wvga/debug/_ext/916554220/legato_widget_skin_classic.o
 .debug_ranges  0x000032b8       0x90 build/lcdc_rgba8888_mxt_9x60_wvga/debug/_ext/916554220/legato_widget_skin_classic_common.o
 .debug_ranges  0x00003348      0x290 build/lcdc_rgba8888_mxt_9x60_wvga/debug/_ext/916554220/legato_widget.o
 .debug_ranges  0x000035d8       0x40 build/lcdc_rgba8888_mxt_9x60_wvga/debug/_ext/107307971/plib_aic.o
 .debug_ranges  0x00003618       0x10 build/lcdc_rgba8888_mxt_9x60_wvga/debug/_ext/107309994/plib_clk.o
 .debug_ranges  0x00003628       0x68 build/lcdc_rgba8888_mxt_9x60_wvga/debug/_ext/1221451702/plib_flexcom0_twi_master.o
 .debug_ranges  0x00003690      0x288 build/lcdc_rgba8888_mxt_9x60_wvga/debug/_ext/968098130/plib_lcdc.o
 .debug_ranges  0x00003918      0x170 build/lcdc_rgba8888_mxt_9x60_wvga/debug/_ext/107319645/plib_mmu.o
 .debug_ranges  0x00003a88       0x50 build/lcdc_rgba8888_mxt_9x60_wvga/debug/_ext/107322398/plib_pio.o
 .debug_ranges  0x00003ad8       0x60 build/lcdc_rgba8888_mxt_9x60_wvga/debug/_ext/107324666/plib_rtt.o
 .debug_ranges  0x00003b38       0x58 build/lcdc_rgba8888_mxt_9x60_wvga/debug/_ext/273632537/plib_tc1.o
 .debug_ranges  0x00003b90       0xa8 build/lcdc_rgba8888_mxt_9x60_wvga/debug/_ext/273632537/plib_tc0.o
 .debug_ranges  0x00003c38       0x18 build/lcdc_rgba8888_mxt_9x60_wvga/debug/_ext/129769842/xc32_monitor.o
 .debug_ranges  0x00003c50       0x90 build/lcdc_rgba8888_mxt_9x60_wvga/debug/_ext/256753733/sys_input.o
 .debug_ranges  0x00003ce0       0x98 build/lcdc_rgba8888_mxt_9x60_wvga/debug/_ext/1928812927/sys_int.o
 .debug_ranges  0x00003d78      0x158 build/lcdc_rgba8888_mxt_9x60_wvga/debug/_ext/1359593799/sys_time.o
 .debug_ranges  0x00003ed0       0x28 build/lcdc_rgba8888_mxt_9x60_wvga/debug/_ext/1455094228/fault_handlers.o
 .debug_ranges  0x00003ef8       0x28 build/lcdc_rgba8888_mxt_9x60_wvga/debug/_ext/1455094228/cstartup.o
 .debug_ranges  0x00003f20       0x18 build/lcdc_rgba8888_mxt_9x60_wvga/debug/_ext/1455094228/interrupts.o
 .debug_ranges  0x00003f38       0x10 build/lcdc_rgba8888_mxt_9x60_wvga/debug/_ext/1455094228/initialization.o
 .debug_ranges  0x00003f48       0x10 build/lcdc_rgba8888_mxt_9x60_wvga/debug/_ext/1455094228/tasks.o
 .debug_ranges  0x00003f58      0x148 build/lcdc_rgba8888_mxt_9x60_wvga/debug/_ext/1360937237/app.o
 .debug_ranges  0x000040a0       0x10 build/lcdc_rgba8888_mxt_9x60_wvga/debug/_ext/1360937237/main.o
 .debug_ranges  0x000040b0       0x40 c:/program files/microchip/xc32/v4.21/bin/bin/../../lib/gcc/pic32c/8.3.1/../../../../pic32c/lib/arm/v5te/nofp\libg-musl.a(__libc_start_main.o)
 .debug_ranges  0x000040f0       0x18 c:/program files/microchip/xc32/v4.21/bin/bin/../../lib/gcc/pic32c/8.3.1/../../../../pic32c/lib/arm/v5te/nofp\libg-musl.a(__sio_sprintf_dosux.o)
 .debug_ranges  0x00004108       0x10 c:/program files/microchip/xc32/v4.21/bin/bin/../../lib/gcc/pic32c/8.3.1/../../../../pic32c/lib/arm/v5te/nofp\libg-musl.a(__fmt_d.o)
 .debug_ranges  0x00004118       0x10 c:/program files/microchip/xc32/v4.21/bin/bin/../../lib/gcc/pic32c/8.3.1/../../../../pic32c/lib/arm/v5te/nofp\libg-musl.a(__fmt_o.o)
 .debug_ranges  0x00004128       0x10 c:/program files/microchip/xc32/v4.21/bin/bin/../../lib/gcc/pic32c/8.3.1/../../../../pic32c/lib/arm/v5te/nofp\libg-musl.a(__fmt_s.o)
 .debug_ranges  0x00004138       0x18 c:/program files/microchip/xc32/v4.21/bin/bin/../../lib/gcc/pic32c/8.3.1/../../../../pic32c/lib/arm/v5te/nofp\libg-musl.a(__fmt_u.o)
 .debug_ranges  0x00004150       0x10 c:/program files/microchip/xc32/v4.21/bin/bin/../../lib/gcc/pic32c/8.3.1/../../../../pic32c/lib/arm/v5te/nofp\libg-musl.a(__fmt_x.o)
 .debug_ranges  0x00004160       0x10 c:/program files/microchip/xc32/v4.21/bin/bin/../../lib/gcc/pic32c/8.3.1/../../../../pic32c/lib/arm/v5te/nofp\libg-musl.a(__pop_int.o)
 .debug_ranges  0x00004170       0x10 c:/program files/microchip/xc32/v4.21/bin/bin/../../lib/gcc/pic32c/8.3.1/../../../../pic32c/lib/arm/v5te/nofp\libg-musl.a(__pop_ptr.o)
 .debug_ranges  0x00004180       0x68 c:/program files/microchip/xc32/v4.21/bin/bin/../../lib/gcc/pic32c/8.3.1/../../../../pic32c/lib/arm/v5te/nofp\libg-musl.a(__printf_core.o)
 .debug_ranges  0x000041e8       0x20 c:/program files/microchip/xc32/v4.21/bin/bin/../../lib/gcc/pic32c/8.3.1/../../../../pic32c/lib/arm/v5te/nofp\libg-musl.a(stdout.o)
 .debug_ranges  0x00004208       0x10 c:/program files/microchip/xc32/v4.21/bin/bin/../../lib/gcc/pic32c/8.3.1/../../../../pic32c/lib/arm/v5te/nofp\libg-musl.a(atoi.o)
 .debug_ranges  0x00004218       0x10 c:/program files/microchip/xc32/v4.21/bin/bin/../../lib/gcc/pic32c/8.3.1/../../../../pic32c/lib/arm/v5te/nofp\libg-musl.a(memcpy.o)
 .debug_ranges  0x00004228       0x10 c:/program files/microchip/xc32/v4.21/bin/bin/../../lib/gcc/pic32c/8.3.1/../../../../pic32c/lib/arm/v5te/nofp\libg-musl.a(memset.o)
 .debug_ranges  0x00004238       0x10 c:/program files/microchip/xc32/v4.21/bin/bin/../../lib/gcc/pic32c/8.3.1/../../../../pic32c/lib/arm/v5te/nofp\libg-musl.a(strlen.o)
 .debug_ranges  0x00004248       0x18 c:/program files/microchip/xc32/v4.21/bin/bin/../../lib/gcc/pic32c/8.3.1/../../../../pic32c/lib/arm/v5te/nofp\libg-musl.a(tolower.o)
 .debug_ranges  0x00004260       0x18 c:/program files/microchip/xc32/v4.21/bin/bin/../../lib/gcc/pic32c/8.3.1/../../../../pic32c/lib/arm/v5te/nofp\libg-musl.a(toupper.o)
 .debug_ranges  0x00004278       0x10 c:/program files/microchip/xc32/v4.21/bin/bin/../../lib/gcc/pic32c/8.3.1/../../../../pic32c/lib/arm/v5te/nofp\libg-musl.a(__int_vfprintf.o)
 .debug_ranges  0x00004288       0x10 c:/program files/microchip/xc32/v4.21/bin/bin/../../lib/gcc/pic32c/8.3.1/../../../../pic32c/lib/arm/v5te/nofp\libg-musl.a(__int_vsprintf.o)
 .debug_ranges  0x00004298       0x10 c:/program files/microchip/xc32/v4.21/bin/bin/../../lib/gcc/pic32c/8.3.1/../../../../pic32c/lib/arm/v5te/nofp\libg-musl.a(__pop_float.o)
 .debug_ranges  0x000042a8       0x10 c:/program files/microchip/xc32/v4.21/bin/bin/../../lib/gcc/pic32c/8.3.1/../../../../pic32c/lib/arm/v5te/nofp\libg-musl.a(__int_vsnprintf.o)
 .debug_ranges  0x000042b8       0x18 c:/program files/microchip/xc32/v4.21/bin/bin/../../lib/gcc/pic32c/8.3.1/../../../../pic32c/lib/arm/v5te/nofp\libg-musl.a(__init_stdio.o)
 .debug_ranges  0x000042d0       0x30 c:/program files/microchip/xc32/v4.21/bin/bin/../../lib/gcc/pic32c/8.3.1/../../../../pic32c/lib/arm/v5te/nofp\libg-musl.a(__out.o)
 .debug_ranges  0x00004300       0x18 c:/program files/microchip/xc32/v4.21/bin/bin/../../lib/gcc/pic32c/8.3.1/../../../../pic32c/lib/arm/v5te/nofp\libg-musl.a(__stdio_close.o)
 .debug_ranges  0x00004318       0x20 c:/program files/microchip/xc32/v4.21/bin/bin/../../lib/gcc/pic32c/8.3.1/../../../../pic32c/lib/arm/v5te/nofp\libg-musl.a(__stdio_seek.o)
 .debug_ranges  0x00004338       0x20 c:/program files/microchip/xc32/v4.21/bin/bin/../../lib/gcc/pic32c/8.3.1/../../../../pic32c/lib/arm/v5te/nofp\libg-musl.a(__stdout.o)
 .debug_ranges  0x00004358       0x18 c:/program files/microchip/xc32/v4.21/bin/bin/../../lib/gcc/pic32c/8.3.1/../../../../pic32c/lib/arm/v5te/nofp\libg-musl.a(__fwrite.o)
 .debug_ranges  0x00004370       0x10 c:/program files/microchip/xc32/v4.21/bin/bin/../../lib/gcc/pic32c/8.3.1/../../../../pic32c/lib/arm/v5te/nofp\libpic32c.a(lseek.o)

.debug_line     0x00000000    0x3bf69
 .debug_line    0x00000000       0xe8 build/lcdc_rgba8888_mxt_9x60_wvga/debug/_ext/710462340/bsp.o
 .debug_line    0x000000e8      0xfc1 build/lcdc_rgba8888_mxt_9x60_wvga/debug/_ext/205529507/drv_i2c.o
 .debug_line    0x000010a9     0x1afd build/lcdc_rgba8888_mxt_9x60_wvga/debug/_ext/802015102/drv_maxtouch.o
 .debug_line    0x00002ba6      0xc47 build/lcdc_rgba8888_mxt_9x60_wvga/debug/_ext/51791817/gfx_canvas.o
 .debug_line    0x000037ed      0x6c6 build/lcdc_rgba8888_mxt_9x60_wvga/debug/_ext/51791817/gfx_canvas_api.o
 .debug_line    0x00003eb3      0xe10 build/lcdc_rgba8888_mxt_9x60_wvga/debug/_ext/95971993/gfx_driver.o
 .debug_line    0x00004cc3      0x989 build/lcdc_rgba8888_mxt_9x60_wvga/debug/_ext/1886796627/drv_gfx_lcdc.o
 .debug_line    0x0000564c      0x698 build/lcdc_rgba8888_mxt_9x60_wvga/debug/_ext/1483321925/legato_rect.o
 .debug_line    0x00005ce4      0x7c6 build/lcdc_rgba8888_mxt_9x60_wvga/debug/_ext/1483321925/legato_pixelbuffer.o
 .debug_line    0x000064aa      0x932 build/lcdc_rgba8888_mxt_9x60_wvga/debug/_ext/1483321925/legato_utils.o
 .debug_line    0x00006ddc      0x86f build/lcdc_rgba8888_mxt_9x60_wvga/debug/_ext/1483321925/legato_color_convert.o
 .debug_line    0x0000764b      0x3b7 build/lcdc_rgba8888_mxt_9x60_wvga/debug/_ext/1483321925/legato_color_blend.o
 .debug_line    0x00007a02      0xcd1 build/lcdc_rgba8888_mxt_9x60_wvga/debug/_ext/1483321925/legato_math.o
 .debug_line    0x000086d3      0x261 build/lcdc_rgba8888_mxt_9x60_wvga/debug/_ext/1483321925/legato_color.o
 .debug_line    0x00008934      0x3eb build/lcdc_rgba8888_mxt_9x60_wvga/debug/_ext/1483321925/legato_color_lerp.o
 .debug_line    0x00008d1f      0xe7f build/lcdc_rgba8888_mxt_9x60_wvga/debug/_ext/1553762159/legato_state.o
 .debug_line    0x00009b9e      0x3f9 build/lcdc_rgba8888_mxt_9x60_wvga/debug/_ext/1553762159/legato_event.o
 .debug_line    0x00009f97      0x929 build/lcdc_rgba8888_mxt_9x60_wvga/debug/_ext/1553762159/legato_input.o
 .debug_line    0x0000a8c0      0x26a build/lcdc_rgba8888_mxt_9x60_wvga/debug/_ext/1553762159/legato_scheme.o
 .debug_line    0x0000ab2a      0x63b build/lcdc_rgba8888_mxt_9x60_wvga/debug/_ext/1653592263/legato_array.o
 .debug_line    0x0000b165      0x821 build/lcdc_rgba8888_mxt_9x60_wvga/debug/_ext/1653592263/legato_list.o
 .debug_line    0x0000b986      0xc3b build/lcdc_rgba8888_mxt_9x60_wvga/debug/_ext/1653592263/legato_rectarray.o
 .debug_line    0x0000c5c1      0x8de build/lcdc_rgba8888_mxt_9x60_wvga/debug/_ext/1553851423/legato_font.o
 .debug_line    0x0000ce9f      0x24f build/lcdc_rgba8888_mxt_9x60_wvga/debug/_ext/528922783/le_gen_fonts.o
 .debug_line    0x0000d0ee      0x276 build/lcdc_rgba8888_mxt_9x60_wvga/debug/_ext/780564725/image5.o
 .debug_line    0x0000d364      0x272 build/lcdc_rgba8888_mxt_9x60_wvga/debug/_ext/780564725/r3.o
 .debug_line    0x0000d5d6      0x27a build/lcdc_rgba8888_mxt_9x60_wvga/debug/_ext/780564725/low_but_up.o
 .debug_line    0x0000d850      0x276 build/lcdc_rgba8888_mxt_9x60_wvga/debug/_ext/780564725/image6.o
 .debug_line    0x0000dac6      0x272 build/lcdc_rgba8888_mxt_9x60_wvga/debug/_ext/780564725/r2.o
 .debug_line    0x0000dd38      0x27f build/lcdc_rgba8888_mxt_9x60_wvga/debug/_ext/780564725/sports_but_down.o
 .debug_line    0x0000dfb7      0x27d build/lcdc_rgba8888_mxt_9x60_wvga/debug/_ext/780564725/warm_but_down.o
 .debug_line    0x0000e234      0x275 build/lcdc_rgba8888_mxt_9x60_wvga/debug/_ext/780564725/logoH.o
 .debug_line    0x0000e4a9      0x276 build/lcdc_rgba8888_mxt_9x60_wvga/debug/_ext/780564725/image7.o
 .debug_line    0x0000e71f      0x27c build/lcdc_rgba8888_mxt_9x60_wvga/debug/_ext/780564725/hot_but_down.o
 .debug_line    0x0000e99b      0x272 build/lcdc_rgba8888_mxt_9x60_wvga/debug/_ext/780564725/r1.o
 .debug_line    0x0000ec0d      0x27d build/lcdc_rgba8888_mxt_9x60_wvga/debug/_ext/780564725/high_but_down.o
 .debug_line    0x0000ee8a      0x276 build/lcdc_rgba8888_mxt_9x60_wvga/debug/_ext/780564725/image8.o
 .debug_line    0x0000f100      0x27a build/lcdc_rgba8888_mxt_9x60_wvga/debug/_ext/780564725/round_exit.o
 .debug_line    0x0000f37a      0x276 build/lcdc_rgba8888_mxt_9x60_wvga/debug/_ext/780564725/image1.o
 .debug_line    0x0000f5f0      0x27c build/lcdc_rgba8888_mxt_9x60_wvga/debug/_ext/780564725/start_but_up.o
 .debug_line    0x0000f86c      0x27c build/lcdc_rgba8888_mxt_9x60_wvga/debug/_ext/780564725/round_button.o
 .debug_line    0x0000fae8      0x272 build/lcdc_rgba8888_mxt_9x60_wvga/debug/_ext/780564725/r7.o
 .debug_line    0x0000fd5a      0x276 build/lcdc_rgba8888_mxt_9x60_wvga/debug/_ext/780564725/image2.o
 .debug_line    0x0000ffd0      0x272 build/lcdc_rgba8888_mxt_9x60_wvga/debug/_ext/780564725/r6.o
 .debug_line    0x00010242      0x277 build/lcdc_rgba8888_mxt_9x60_wvga/debug/_ext/780564725/image10.o
 .debug_line    0x000104b9      0x275 build/lcdc_rgba8888_mxt_9x60_wvga/debug/_ext/780564725/close.o
 .debug_line    0x0001072e      0x276 build/lcdc_rgba8888_mxt_9x60_wvga/debug/_ext/780564725/image3.o
 .debug_line    0x000109a4      0x27d build/lcdc_rgba8888_mxt_9x60_wvga/debug/_ext/780564725/wool_but_down.o
 .debug_line    0x00010c21      0x272 build/lcdc_rgba8888_mxt_9x60_wvga/debug/_ext/780564725/r5.o
 .debug_line    0x00010e93      0x277 build/lcdc_rgba8888_mxt_9x60_wvga/debug/_ext/780564725/image11.o
 .debug_line    0x0001110a      0x27e build/lcdc_rgba8888_mxt_9x60_wvga/debug/_ext/780564725/start_but_down.o
 .debug_line    0x00011388      0x276 build/lcdc_rgba8888_mxt_9x60_wvga/debug/_ext/780564725/image4.o
 .debug_line    0x000115fe      0x272 build/lcdc_rgba8888_mxt_9x60_wvga/debug/_ext/780564725/r4.o
 .debug_line    0x00011870      0x277 build/lcdc_rgba8888_mxt_9x60_wvga/debug/_ext/780564725/image12.o
 .debug_line    0x00011ae7      0x27c build/lcdc_rgba8888_mxt_9x60_wvga/debug/_ext/780564725/bed_but_down.o
 .debug_line    0x00011d63      0x27b build/lcdc_rgba8888_mxt_9x60_wvga/debug/_ext/780564725/warm_but_up.o
 .debug_line    0x00011fde      0x273 build/lcdc_rgba8888_mxt_9x60_wvga/debug/_ext/780564725/r12.o
 .debug_line    0x00012251      0x27a build/lcdc_rgba8888_mxt_9x60_wvga/debug/_ext/780564725/hot_but_up.o
 .debug_line    0x000124cb      0x273 build/lcdc_rgba8888_mxt_9x60_wvga/debug/_ext/780564725/r11.o
 .debug_line    0x0001273e      0x27d build/lcdc_rgba8888_mxt_9x60_wvga/debug/_ext/780564725/normal_but_up.o
 .debug_line    0x000129bb      0x280 build/lcdc_rgba8888_mxt_9x60_wvga/debug/_ext/780564725/options_but_down.o
 .debug_line    0x00012c3b      0x272 build/lcdc_rgba8888_mxt_9x60_wvga/debug/_ext/780564725/r9.o
 .debug_line    0x00012ead      0x278 build/lcdc_rgba8888_mxt_9x60_wvga/debug/_ext/780564725/template.o
 .debug_line    0x00013125      0x273 build/lcdc_rgba8888_mxt_9x60_wvga/debug/_ext/780564725/r10.o
 .debug_line    0x00013398      0x27f build/lcdc_rgba8888_mxt_9x60_wvga/debug/_ext/780564725/prewash_but_off.o
 .debug_line    0x00013617      0x27e build/lcdc_rgba8888_mxt_9x60_wvga/debug/_ext/780564725/xrinse_but_off.o
 .debug_line    0x00013895      0x27e build/lcdc_rgba8888_mxt_9x60_wvga/debug/_ext/780564725/options_but_up.o
 .debug_line    0x00013b13      0x27c build/lcdc_rgba8888_mxt_9x60_wvga/debug/_ext/780564725/sound_but_on.o
 .debug_line    0x00013d8f      0x272 build/lcdc_rgba8888_mxt_9x60_wvga/debug/_ext/780564725/r8.o
 .debug_line    0x00014001      0x27b build/lcdc_rgba8888_mxt_9x60_wvga/debug/_ext/780564725/high_but_up.o
 .debug_line    0x0001427c      0x27b build/lcdc_rgba8888_mxt_9x60_wvga/debug/_ext/780564725/cold_but_up.o
 .debug_line    0x000144f7      0x276 build/lcdc_rgba8888_mxt_9x60_wvga/debug/_ext/780564725/image9.o
 .debug_line    0x0001476d      0x27d build/lcdc_rgba8888_mxt_9x60_wvga/debug/_ext/780564725/medium_but_up.o
 .debug_line    0x000149ea      0x27d build/lcdc_rgba8888_mxt_9x60_wvga/debug/_ext/780564725/sports_but_up.o
 .debug_line    0x00014c67      0x27f build/lcdc_rgba8888_mxt_9x60_wvga/debug/_ext/780564725/medium_but_down.o
 .debug_line    0x00014ee6      0x27b build/lcdc_rgba8888_mxt_9x60_wvga/debug/_ext/780564725/wool_but_up.o
 .debug_line    0x00015161      0x27a build/lcdc_rgba8888_mxt_9x60_wvga/debug/_ext/780564725/bed_but_up.o
 .debug_line    0x000153db      0x27c build/lcdc_rgba8888_mxt_9x60_wvga/debug/_ext/780564725/low_but_down.o
 .debug_line    0x00015657      0x27f build/lcdc_rgba8888_mxt_9x60_wvga/debug/_ext/780564725/normal_but_down.o
 .debug_line    0x000158d6      0x27d build/lcdc_rgba8888_mxt_9x60_wvga/debug/_ext/780564725/cold_but_down.o
 .debug_line    0x00015b53     0x171e build/lcdc_rgba8888_mxt_9x60_wvga/debug/_ext/1849858236/le_gen_screen_Screen0.o
 .debug_line    0x00017271      0x3b4 build/lcdc_rgba8888_mxt_9x60_wvga/debug/_ext/1247075393/le_gen_init.o
 .debug_line    0x00017625      0x2be build/lcdc_rgba8888_mxt_9x60_wvga/debug/_ext/1247075393/le_gen_stringtable.o
 .debug_line    0x000178e3      0x1d3 build/lcdc_rgba8888_mxt_9x60_wvga/debug/_ext/1247075393/le_gen_scheme.o
 .debug_line    0x00017ab6      0x23b build/lcdc_rgba8888_mxt_9x60_wvga/debug/_ext/1247075393/le_gen_globalpalette.o
 .debug_line    0x00017cf1      0x4ad build/lcdc_rgba8888_mxt_9x60_wvga/debug/_ext/1247075393/le_gen_harmony.o
 .debug_line    0x0001819e      0x74f build/lcdc_rgba8888_mxt_9x60_wvga/debug/_ext/1797725076/legato_imagedecoder_jpeg.o
 .debug_line    0x000188ed     0x11b5 build/lcdc_rgba8888_mxt_9x60_wvga/debug/_ext/1797725076/legato_imagedecoder_jpeg_common.o
 .debug_line    0x00019aa2      0x557 build/lcdc_rgba8888_mxt_9x60_wvga/debug/_ext/1797725076/jidctint.o
 .debug_line    0x00019ff9      0x80c build/lcdc_rgba8888_mxt_9x60_wvga/debug/_ext/1797636377/legato_imagedecoder_mono.o
 .debug_line    0x0001a805      0x268 build/lcdc_rgba8888_mxt_9x60_wvga/debug/_ext/1797636377/legato_imagedecoder_mono_read_internal.o
 .debug_line    0x0001aa6d      0x4fd build/lcdc_rgba8888_mxt_9x60_wvga/debug/_ext/1881677221/legato_imagedecoder_png.o
 .debug_line    0x0001af6a     0x46bb build/lcdc_rgba8888_mxt_9x60_wvga/debug/_ext/1881677221/lodepng.o
 .debug_line    0x0001f625      0x3fb build/lcdc_rgba8888_mxt_9x60_wvga/debug/_ext/1881678756/legato_imagedecoder_raw_setup.o
 .debug_line    0x0001fa20      0x555 build/lcdc_rgba8888_mxt_9x60_wvga/debug/_ext/1881678756/legato_imagedecoder_raw_scale.o
 .debug_line    0x0001ff75      0x256 build/lcdc_rgba8888_mxt_9x60_wvga/debug/_ext/1881678756/legato_imagedecoder_raw_mask.o
 .debug_line    0x000201cb      0x2ec build/lcdc_rgba8888_mxt_9x60_wvga/debug/_ext/1881678756/legato_imagedecoder_raw_convert.o
 .debug_line    0x000204b7      0x4e1 build/lcdc_rgba8888_mxt_9x60_wvga/debug/_ext/1881678756/legato_imagedecoder_raw_read_internal.o
 .debug_line    0x00020998      0x34f build/lcdc_rgba8888_mxt_9x60_wvga/debug/_ext/1881678756/legato_imagedecoder_raw_write.o
 .debug_line    0x00020ce7      0x40a build/lcdc_rgba8888_mxt_9x60_wvga/debug/_ext/1881678756/legato_imagedecoder_raw_blend.o
 .debug_line    0x000210f1      0x35c build/lcdc_rgba8888_mxt_9x60_wvga/debug/_ext/1881678756/legato_imagedecoder_raw_palette_internal.o
 .debug_line    0x0002144d     0x10cc build/lcdc_rgba8888_mxt_9x60_wvga/debug/_ext/1881678756/legato_imagedecoder_raw.o
 .debug_line    0x00022519      0x589 build/lcdc_rgba8888_mxt_9x60_wvga/debug/_ext/1881678756/legato_imagedecoder_raw_rotate.o
 .debug_line    0x00022aa2      0x327 build/lcdc_rgba8888_mxt_9x60_wvga/debug/_ext/927452043/legato_image_utils.o
 .debug_line    0x00022dc9      0x75b build/lcdc_rgba8888_mxt_9x60_wvga/debug/_ext/927452043/legato_image.o
 .debug_line    0x00023524      0x599 build/lcdc_rgba8888_mxt_9x60_wvga/debug/_ext/1206263599/legato_memory.o
 .debug_line    0x00023abd      0x348 build/lcdc_rgba8888_mxt_9x60_wvga/debug/_ext/1206263599/legato_fixedheap.o
 .debug_line    0x00023e05      0xbe5 build/lcdc_rgba8888_mxt_9x60_wvga/debug/_ext/1206263599/legato_variableheap.o
 .debug_line    0x000249ea      0x2d7 build/lcdc_rgba8888_mxt_9x60_wvga/debug/_ext/564048019/legato_draw_rect.o
 .debug_line    0x00024cc1      0x68c build/lcdc_rgba8888_mxt_9x60_wvga/debug/_ext/564048019/legato_draw.o
 .debug_line    0x0002534d      0x454 build/lcdc_rgba8888_mxt_9x60_wvga/debug/_ext/564048019/legato_draw_line.o
 .debug_line    0x000257a1      0xf0b build/lcdc_rgba8888_mxt_9x60_wvga/debug/_ext/564048019/legato_renderer.o
 .debug_line    0x000266ac      0x9d6 build/lcdc_rgba8888_mxt_9x60_wvga/debug/_ext/564048019/legato_draw_arc.o
 .debug_line    0x00027082      0x7b8 build/lcdc_rgba8888_mxt_9x60_wvga/debug/_ext/564048019/legato_gpu.o
 .debug_line    0x0002783a      0xbf6 build/lcdc_rgba8888_mxt_9x60_wvga/debug/_ext/1020492831/legato_stringutils.o
 .debug_line    0x00028430      0x755 build/lcdc_rgba8888_mxt_9x60_wvga/debug/_ext/1020492831/legato_tablestring.o
 .debug_line    0x00028b85      0x469 build/lcdc_rgba8888_mxt_9x60_wvga/debug/_ext/1020492831/legato_stringtable.o
 .debug_line    0x00028fee      0x91c build/lcdc_rgba8888_mxt_9x60_wvga/debug/_ext/1020492831/legato_fixedstring.o
 .debug_line    0x0002990a      0x69d build/lcdc_rgba8888_mxt_9x60_wvga/debug/_ext/1020492831/legato_string_renderer.o
 .debug_line    0x00029fa7      0x7f8 build/lcdc_rgba8888_mxt_9x60_wvga/debug/_ext/1020492831/legato_string.o
 .debug_line    0x0002a79f      0xc3e build/lcdc_rgba8888_mxt_9x60_wvga/debug/_ext/424260723/legato_widget_button.o
 .debug_line    0x0002b3dd      0x95c build/lcdc_rgba8888_mxt_9x60_wvga/debug/_ext/424260723/legato_widget_button_skin_classic.o
 .debug_line    0x0002bd39      0x4c4 build/lcdc_rgba8888_mxt_9x60_wvga/debug/_ext/1808593504/legato_widget_image.o
 .debug_line    0x0002c1fd      0x537 build/lcdc_rgba8888_mxt_9x60_wvga/debug/_ext/1808593504/legato_widget_image_skin_classic.o
 .debug_line    0x0002c734      0x5df build/lcdc_rgba8888_mxt_9x60_wvga/debug/_ext/1806179527/legato_widget_label_skin_classic.o
 .debug_line    0x0002cd13      0x56a build/lcdc_rgba8888_mxt_9x60_wvga/debug/_ext/1806179527/legato_widget_label.o
 .debug_line    0x0002d27d      0x60c build/lcdc_rgba8888_mxt_9x60_wvga/debug/_ext/2047371060/legato_widget_rectangle_skin_classic.o
 .debug_line    0x0002d889      0x3b7 build/lcdc_rgba8888_mxt_9x60_wvga/debug/_ext/2047371060/legato_widget_rectangle.o
 .debug_line    0x0002dc40      0x380 build/lcdc_rgba8888_mxt_9x60_wvga/debug/_ext/916554220/legato_widget_skin_classic.o
 .debug_line    0x0002dfc0      0xac3 build/lcdc_rgba8888_mxt_9x60_wvga/debug/_ext/916554220/legato_widget_skin_classic_common.o
 .debug_line    0x0002ea83     0x18f8 build/lcdc_rgba8888_mxt_9x60_wvga/debug/_ext/916554220/legato_widget.o
 .debug_line    0x0003037b      0x4a9 build/lcdc_rgba8888_mxt_9x60_wvga/debug/_ext/107307971/plib_aic.o
 .debug_line    0x00030824      0x160 build/lcdc_rgba8888_mxt_9x60_wvga/debug/_ext/107309994/plib_clk.o
 .debug_line    0x00030984      0x93b build/lcdc_rgba8888_mxt_9x60_wvga/debug/_ext/1221451702/plib_flexcom0_twi_master.o
 .debug_line    0x000312bf     0x157d build/lcdc_rgba8888_mxt_9x60_wvga/debug/_ext/968098130/plib_lcdc.o
 .debug_line    0x0003283c      0x75c build/lcdc_rgba8888_mxt_9x60_wvga/debug/_ext/107319645/plib_mmu.o
 .debug_line    0x00032f98      0x33e build/lcdc_rgba8888_mxt_9x60_wvga/debug/_ext/107322398/plib_pio.o
 .debug_line    0x000332d6      0x34b build/lcdc_rgba8888_mxt_9x60_wvga/debug/_ext/107324666/plib_rtt.o
 .debug_line    0x00033621      0x24f build/lcdc_rgba8888_mxt_9x60_wvga/debug/_ext/273632537/plib_tc1.o
 .debug_line    0x00033870      0x3b3 build/lcdc_rgba8888_mxt_9x60_wvga/debug/_ext/273632537/plib_tc0.o
 .debug_line    0x00033c23       0xde build/lcdc_rgba8888_mxt_9x60_wvga/debug/_ext/129769842/xc32_monitor.o
 .debug_line    0x00033d01      0x773 build/lcdc_rgba8888_mxt_9x60_wvga/debug/_ext/256753733/sys_input.o
 .debug_line    0x00034474      0x560 build/lcdc_rgba8888_mxt_9x60_wvga/debug/_ext/1928812927/sys_int.o
 .debug_line    0x000349d4     0x1228 build/lcdc_rgba8888_mxt_9x60_wvga/debug/_ext/1359593799/sys_time.o
 .debug_line    0x00035bfc       0xaf build/lcdc_rgba8888_mxt_9x60_wvga/debug/_ext/1455094228/fault_handlers.o
 .debug_line    0x00035cab      0x106 build/lcdc_rgba8888_mxt_9x60_wvga/debug/_ext/1455094228/cstartup.o
 .debug_line    0x00035db1      0x1e3 build/lcdc_rgba8888_mxt_9x60_wvga/debug/_ext/1455094228/interrupts.o
 .debug_line    0x00035f94      0x85a build/lcdc_rgba8888_mxt_9x60_wvga/debug/_ext/1455094228/initialization.o
 .debug_line    0x000367ee      0x349 build/lcdc_rgba8888_mxt_9x60_wvga/debug/_ext/1455094228/tasks.o
 .debug_line    0x00036b37     0x1177 build/lcdc_rgba8888_mxt_9x60_wvga/debug/_ext/1360937237/app.o
 .debug_line    0x00037cae      0x1ca build/lcdc_rgba8888_mxt_9x60_wvga/debug/_ext/1360937237/main.o
 .debug_line    0x00037e78       0xb4 c:/program files/microchip/xc32/v4.21/bin/bin/../../lib/gcc/pic32c/8.3.1/arm/v5te/nofp\libgcc.a(_udivsi3.o)
 .debug_line    0x00037f2c       0xc0 c:/program files/microchip/xc32/v4.21/bin/bin/../../lib/gcc/pic32c/8.3.1/arm/v5te/nofp\libgcc.a(_divsi3.o)
 .debug_line    0x00037fec       0x98 c:/program files/microchip/xc32/v4.21/bin/bin/../../lib/gcc/pic32c/8.3.1/arm/v5te/nofp\libgcc.a(_dvmd_tls.o)
 .debug_line    0x00038084      0x137 c:/program files/microchip/xc32/v4.21/bin/bin/../../lib/gcc/pic32c/8.3.1/arm/v5te/nofp\libgcc.a(_arm_addsubsf3.o)
 .debug_line    0x000381bb      0x15a c:/program files/microchip/xc32/v4.21/bin/bin/../../lib/gcc/pic32c/8.3.1/arm/v5te/nofp\libgcc.a(_arm_muldivsf3.o)
 .debug_line    0x00038315       0xdd c:/program files/microchip/xc32/v4.21/bin/bin/../../lib/gcc/pic32c/8.3.1/arm/v5te/nofp\libgcc.a(_arm_cmpsf2.o)
 .debug_line    0x000383f2       0xaf c:/program files/microchip/xc32/v4.21/bin/bin/../../lib/gcc/pic32c/8.3.1/arm/v5te/nofp\libgcc.a(_arm_fixsfsi.o)
 .debug_line    0x000384a1       0xad c:/program files/microchip/xc32/v4.21/bin/bin/../../lib/gcc/pic32c/8.3.1/arm/v5te/nofp\libgcc.a(_arm_fixunssfsi.o)
 .debug_line    0x0003854e       0x98 c:/program files/microchip/xc32/v4.21/bin/bin/../../lib/gcc/pic32c/8.3.1/arm/v5te/nofp\libgcc.a(_aeabi_uldivmod.o)
 .debug_line    0x000385e6      0x186 c:/program files/microchip/xc32/v4.21/bin/bin/../../lib/gcc/pic32c/8.3.1/arm/v5te/nofp\libgcc.a(_udivmoddi4.o)
 .debug_line    0x0003876c      0x1d3 c:/program files/microchip/xc32/v4.21/bin/bin/../../lib/gcc/pic32c/8.3.1/../../../../pic32c/lib/arm/v5te/nofp\libg-musl.a(__libc_start_main.o)
 .debug_line    0x0003893f       0xbc c:/program files/microchip/xc32/v4.21/bin/bin/../../lib/gcc/pic32c/8.3.1/../../../../pic32c/lib/arm/v5te/nofp\libg-musl.a(libc.o)
 .debug_line    0x000389fb      0x1b4 c:/program files/microchip/xc32/v4.21/bin/bin/../../lib/gcc/pic32c/8.3.1/../../../../pic32c/lib/arm/v5te/nofp\libg-musl.a(__sio_sprintf_dosux.o)
 .debug_line    0x00038baf      0x214 c:/program files/microchip/xc32/v4.21/bin/bin/../../lib/gcc/pic32c/8.3.1/../../../../pic32c/lib/arm/v5te/nofp\libg-musl.a(__fmt_d.o)
 .debug_line    0x00038dc3      0x1ca c:/program files/microchip/xc32/v4.21/bin/bin/../../lib/gcc/pic32c/8.3.1/../../../../pic32c/lib/arm/v5te/nofp\libg-musl.a(__fmt_o.o)
 .debug_line    0x00038f8d      0x215 c:/program files/microchip/xc32/v4.21/bin/bin/../../lib/gcc/pic32c/8.3.1/../../../../pic32c/lib/arm/v5te/nofp\libg-musl.a(__fmt_s.o)
 .debug_line    0x000391a2      0x248 c:/program files/microchip/xc32/v4.21/bin/bin/../../lib/gcc/pic32c/8.3.1/../../../../pic32c/lib/arm/v5te/nofp\libg-musl.a(__fmt_u.o)
 .debug_line    0x000393ea      0x2e5 c:/program files/microchip/xc32/v4.21/bin/bin/../../lib/gcc/pic32c/8.3.1/../../../../pic32c/lib/arm/v5te/nofp\libg-musl.a(__fmt_x.o)
 .debug_line    0x000396cf      0x216 c:/program files/microchip/xc32/v4.21/bin/bin/../../lib/gcc/pic32c/8.3.1/../../../../pic32c/lib/arm/v5te/nofp\libg-musl.a(__pop_int.o)
 .debug_line    0x000398e5      0x1e9 c:/program files/microchip/xc32/v4.21/bin/bin/../../lib/gcc/pic32c/8.3.1/../../../../pic32c/lib/arm/v5te/nofp\libg-musl.a(__pop_ptr.o)
 .debug_line    0x00039ace      0x6cb c:/program files/microchip/xc32/v4.21/bin/bin/../../lib/gcc/pic32c/8.3.1/../../../../pic32c/lib/arm/v5te/nofp\libg-musl.a(__printf_core.o)
 .debug_line    0x0003a199      0x18f c:/program files/microchip/xc32/v4.21/bin/bin/../../lib/gcc/pic32c/8.3.1/../../../../pic32c/lib/arm/v5te/nofp\libg-musl.a(stdout.o)
 .debug_line    0x0003a328      0x164 c:/program files/microchip/xc32/v4.21/bin/bin/../../lib/gcc/pic32c/8.3.1/../../../../pic32c/lib/arm/v5te/nofp\libg-musl.a(atoi.o)
 .debug_line    0x0003a48c       0xe6 c:/program files/microchip/xc32/v4.21/bin/bin/../../lib/gcc/pic32c/8.3.1/../../../../pic32c/lib/arm/v5te/nofp\libg-musl.a(memcpy.o)
 .debug_line    0x0003a572       0xe4 c:/program files/microchip/xc32/v4.21/bin/bin/../../lib/gcc/pic32c/8.3.1/../../../../pic32c/lib/arm/v5te/nofp\libg-musl.a(memset.o)
 .debug_line    0x0003a656       0xe4 c:/program files/microchip/xc32/v4.21/bin/bin/../../lib/gcc/pic32c/8.3.1/../../../../pic32c/lib/arm/v5te/nofp\libg-musl.a(strlen.o)
 .debug_line    0x0003a73a      0x165 c:/program files/microchip/xc32/v4.21/bin/bin/../../lib/gcc/pic32c/8.3.1/../../../../pic32c/lib/arm/v5te/nofp\libg-musl.a(tolower.o)
 .debug_line    0x0003a89f      0x165 c:/program files/microchip/xc32/v4.21/bin/bin/../../lib/gcc/pic32c/8.3.1/../../../../pic32c/lib/arm/v5te/nofp\libg-musl.a(toupper.o)
 .debug_line    0x0003aa04      0x109 c:/program files/microchip/xc32/v4.21/bin/bin/../../lib/gcc/pic32c/8.3.1/../../../../pic32c/lib/arm/v5te/nofp\libg-musl.a(__environ.o)
 .debug_line    0x0003ab0d       0xa1 c:/program files/microchip/xc32/v4.21/bin/bin/../../lib/gcc/pic32c/8.3.1/../../../../pic32c/lib/arm/v5te/nofp\libg-musl.a(__errno_location.o)
 .debug_line    0x0003abae      0x17c c:/program files/microchip/xc32/v4.21/bin/bin/../../lib/gcc/pic32c/8.3.1/../../../../pic32c/lib/arm/v5te/nofp\libg-musl.a(__int_vfprintf.o)
 .debug_line    0x0003ad2a      0x15b c:/program files/microchip/xc32/v4.21/bin/bin/../../lib/gcc/pic32c/8.3.1/../../../../pic32c/lib/arm/v5te/nofp\libg-musl.a(__int_vsprintf.o)
 .debug_line    0x0003ae85      0x173 c:/program files/microchip/xc32/v4.21/bin/bin/../../lib/gcc/pic32c/8.3.1/../../../../pic32c/lib/arm/v5te/nofp\libg-musl.a(__pop_float.o)
 .debug_line    0x0003aff8      0x1d2 c:/program files/microchip/xc32/v4.21/bin/bin/../../lib/gcc/pic32c/8.3.1/../../../../pic32c/lib/arm/v5te/nofp\libg-musl.a(__int_vsnprintf.o)
 .debug_line    0x0003b1ca       0xcf c:/program files/microchip/xc32/v4.21/bin/bin/../../lib/gcc/pic32c/8.3.1/../../../../pic32c/lib/arm/v5te/nofp\libg-musl.a(__init_stdio.o)
 .debug_line    0x0003b299      0x22d c:/program files/microchip/xc32/v4.21/bin/bin/../../lib/gcc/pic32c/8.3.1/../../../../pic32c/lib/arm/v5te/nofp\libg-musl.a(__out.o)
 .debug_line    0x0003b4c6      0x2fe c:/program files/microchip/xc32/v4.21/bin/bin/../../lib/gcc/pic32c/8.3.1/../../../../pic32c/lib/arm/v5te/nofp\libg-musl.a(__stdio_close.o)
 .debug_line    0x0003b7c4      0x330 c:/program files/microchip/xc32/v4.21/bin/bin/../../lib/gcc/pic32c/8.3.1/../../../../pic32c/lib/arm/v5te/nofp\libg-musl.a(__stdio_seek.o)
 .debug_line    0x0003baf4      0x1e5 c:/program files/microchip/xc32/v4.21/bin/bin/../../lib/gcc/pic32c/8.3.1/../../../../pic32c/lib/arm/v5te/nofp\libg-musl.a(__stdout.o)
 .debug_line    0x0003bcd9      0x1f3 c:/program files/microchip/xc32/v4.21/bin/bin/../../lib/gcc/pic32c/8.3.1/../../../../pic32c/lib/arm/v5te/nofp\libg-musl.a(__fwrite.o)
 .debug_line    0x0003becc       0x9d c:/program files/microchip/xc32/v4.21/bin/bin/../../lib/gcc/pic32c/8.3.1/../../../../pic32c/lib/arm/v5te/nofp\libpic32c.a(lseek.o)

.debug_str      0x00000000    0x105af
 .debug_str     0x00000000        0x0 build/lcdc_rgba8888_mxt_9x60_wvga/debug/_ext/710462340/bsp.o
 .debug_str     0x00000000      0x19f build/lcdc_rgba8888_mxt_9x60_wvga/debug/_ext/205529507/drv_i2c.o
 .debug_str     0x0000019f      0x361 build/lcdc_rgba8888_mxt_9x60_wvga/debug/_ext/802015102/drv_maxtouch.o
 .debug_str     0x00000500      0x200 build/lcdc_rgba8888_mxt_9x60_wvga/debug/_ext/51791817/gfx_canvas.o
 .debug_str     0x00000700      0x12c build/lcdc_rgba8888_mxt_9x60_wvga/debug/_ext/51791817/gfx_canvas_api.o
 .debug_str     0x0000082c       0xc2 build/lcdc_rgba8888_mxt_9x60_wvga/debug/_ext/95971993/gfx_driver.o
 .debug_str     0x000008ee      0x6ff build/lcdc_rgba8888_mxt_9x60_wvga/debug/_ext/1886796627/drv_gfx_lcdc.o
 .debug_str     0x00000fed       0x17 build/lcdc_rgba8888_mxt_9x60_wvga/debug/_ext/1483321925/legato_rect.o
 .debug_str     0x00001004       0x92 build/lcdc_rgba8888_mxt_9x60_wvga/debug/_ext/1483321925/legato_pixelbuffer.o
 .debug_str     0x00001096      0x28d build/lcdc_rgba8888_mxt_9x60_wvga/debug/_ext/1483321925/legato_utils.o
 .debug_str     0x00001323       0xb7 build/lcdc_rgba8888_mxt_9x60_wvga/debug/_ext/1483321925/legato_color_convert.o
 .debug_str     0x000013da        0x9 build/lcdc_rgba8888_mxt_9x60_wvga/debug/_ext/1483321925/legato_color_blend.o
 .debug_str     0x000013e3       0x64 build/lcdc_rgba8888_mxt_9x60_wvga/debug/_ext/1483321925/legato_math.o
 .debug_str     0x00001447       0x34 build/lcdc_rgba8888_mxt_9x60_wvga/debug/_ext/1483321925/legato_color.o
 .debug_str     0x0000147b       0x2e build/lcdc_rgba8888_mxt_9x60_wvga/debug/_ext/1483321925/legato_color_lerp.o
 .debug_str     0x000014a9      0x847 build/lcdc_rgba8888_mxt_9x60_wvga/debug/_ext/1553762159/legato_state.o
 .debug_str     0x00001cf0      0x1cc build/lcdc_rgba8888_mxt_9x60_wvga/debug/_ext/1553762159/legato_event.o
 .debug_str     0x00001ebc      0x6fb build/lcdc_rgba8888_mxt_9x60_wvga/debug/_ext/1553762159/legato_input.o
 .debug_str     0x000025b7       0xf8 build/lcdc_rgba8888_mxt_9x60_wvga/debug/_ext/1553762159/legato_scheme.o
 .debug_str     0x000026af       0x1c build/lcdc_rgba8888_mxt_9x60_wvga/debug/_ext/1653592263/legato_array.o
 .debug_str     0x000026cb       0x22 build/lcdc_rgba8888_mxt_9x60_wvga/debug/_ext/1653592263/legato_list.o
 .debug_str     0x000026ed       0x8e build/lcdc_rgba8888_mxt_9x60_wvga/debug/_ext/1653592263/legato_rectarray.o
 .debug_str     0x0000277b      0x219 build/lcdc_rgba8888_mxt_9x60_wvga/debug/_ext/1553851423/legato_font.o
 .debug_str     0x00002994       0xc0 build/lcdc_rgba8888_mxt_9x60_wvga/debug/_ext/528922783/le_gen_fonts.o
 .debug_str     0x00002a54       0xeb build/lcdc_rgba8888_mxt_9x60_wvga/debug/_ext/780564725/image5.o
 .debug_str     0x00002b3f       0xeb build/lcdc_rgba8888_mxt_9x60_wvga/debug/_ext/780564725/r3.o
 .debug_str     0x00002c2a       0xeb build/lcdc_rgba8888_mxt_9x60_wvga/debug/_ext/780564725/low_but_up.o
 .debug_str     0x00002d15       0xeb build/lcdc_rgba8888_mxt_9x60_wvga/debug/_ext/780564725/image6.o
 .debug_str     0x00002e00       0xeb build/lcdc_rgba8888_mxt_9x60_wvga/debug/_ext/780564725/r2.o
 .debug_str     0x00002eeb       0xeb build/lcdc_rgba8888_mxt_9x60_wvga/debug/_ext/780564725/sports_but_down.o
 .debug_str     0x00002fd6       0xeb build/lcdc_rgba8888_mxt_9x60_wvga/debug/_ext/780564725/warm_but_down.o
 .debug_str     0x000030c1       0xeb build/lcdc_rgba8888_mxt_9x60_wvga/debug/_ext/780564725/logoH.o
 .debug_str     0x000031ac       0xeb build/lcdc_rgba8888_mxt_9x60_wvga/debug/_ext/780564725/image7.o
 .debug_str     0x00003297       0xeb build/lcdc_rgba8888_mxt_9x60_wvga/debug/_ext/780564725/hot_but_down.o
 .debug_str     0x00003382       0xeb build/lcdc_rgba8888_mxt_9x60_wvga/debug/_ext/780564725/r1.o
 .debug_str     0x0000346d       0xeb build/lcdc_rgba8888_mxt_9x60_wvga/debug/_ext/780564725/high_but_down.o
 .debug_str     0x00003558       0xeb build/lcdc_rgba8888_mxt_9x60_wvga/debug/_ext/780564725/image8.o
 .debug_str     0x00003643       0xeb build/lcdc_rgba8888_mxt_9x60_wvga/debug/_ext/780564725/round_exit.o
 .debug_str     0x0000372e       0xeb build/lcdc_rgba8888_mxt_9x60_wvga/debug/_ext/780564725/image1.o
 .debug_str     0x00003819       0xeb build/lcdc_rgba8888_mxt_9x60_wvga/debug/_ext/780564725/start_but_up.o
 .debug_str     0x00003904       0xeb build/lcdc_rgba8888_mxt_9x60_wvga/debug/_ext/780564725/round_button.o
 .debug_str     0x000039ef       0xeb build/lcdc_rgba8888_mxt_9x60_wvga/debug/_ext/780564725/r7.o
 .debug_str     0x00003ada       0xeb build/lcdc_rgba8888_mxt_9x60_wvga/debug/_ext/780564725/image2.o
 .debug_str     0x00003bc5       0xeb build/lcdc_rgba8888_mxt_9x60_wvga/debug/_ext/780564725/r6.o
 .debug_str     0x00003cb0       0xeb build/lcdc_rgba8888_mxt_9x60_wvga/debug/_ext/780564725/image10.o
 .debug_str     0x00003d9b       0xeb build/lcdc_rgba8888_mxt_9x60_wvga/debug/_ext/780564725/close.o
 .debug_str     0x00003e86       0xeb build/lcdc_rgba8888_mxt_9x60_wvga/debug/_ext/780564725/image3.o
 .debug_str     0x00003f71       0xeb build/lcdc_rgba8888_mxt_9x60_wvga/debug/_ext/780564725/wool_but_down.o
 .debug_str     0x0000405c       0xeb build/lcdc_rgba8888_mxt_9x60_wvga/debug/_ext/780564725/r5.o
 .debug_str     0x00004147       0xeb build/lcdc_rgba8888_mxt_9x60_wvga/debug/_ext/780564725/image11.o
 .debug_str     0x00004232       0xeb build/lcdc_rgba8888_mxt_9x60_wvga/debug/_ext/780564725/start_but_down.o
 .debug_str     0x0000431d       0xeb build/lcdc_rgba8888_mxt_9x60_wvga/debug/_ext/780564725/image4.o
 .debug_str     0x00004408       0xeb build/lcdc_rgba8888_mxt_9x60_wvga/debug/_ext/780564725/r4.o
 .debug_str     0x000044f3       0xeb build/lcdc_rgba8888_mxt_9x60_wvga/debug/_ext/780564725/image12.o
 .debug_str     0x000045de       0xeb build/lcdc_rgba8888_mxt_9x60_wvga/debug/_ext/780564725/bed_but_down.o
 .debug_str     0x000046c9       0xeb build/lcdc_rgba8888_mxt_9x60_wvga/debug/_ext/780564725/warm_but_up.o
 .debug_str     0x000047b4       0xeb build/lcdc_rgba8888_mxt_9x60_wvga/debug/_ext/780564725/r12.o
 .debug_str     0x0000489f       0xeb build/lcdc_rgba8888_mxt_9x60_wvga/debug/_ext/780564725/hot_but_up.o
 .debug_str     0x0000498a       0xeb build/lcdc_rgba8888_mxt_9x60_wvga/debug/_ext/780564725/r11.o
 .debug_str     0x00004a75       0xeb build/lcdc_rgba8888_mxt_9x60_wvga/debug/_ext/780564725/normal_but_up.o
 .debug_str     0x00004b60       0xeb build/lcdc_rgba8888_mxt_9x60_wvga/debug/_ext/780564725/options_but_down.o
 .debug_str     0x00004c4b       0xeb build/lcdc_rgba8888_mxt_9x60_wvga/debug/_ext/780564725/r9.o
 .debug_str     0x00004d36       0xeb build/lcdc_rgba8888_mxt_9x60_wvga/debug/_ext/780564725/template.o
 .debug_str     0x00004e21       0xeb build/lcdc_rgba8888_mxt_9x60_wvga/debug/_ext/780564725/r10.o
 .debug_str     0x00004f0c       0xeb build/lcdc_rgba8888_mxt_9x60_wvga/debug/_ext/780564725/prewash_but_off.o
 .debug_str     0x00004ff7       0xeb build/lcdc_rgba8888_mxt_9x60_wvga/debug/_ext/780564725/xrinse_but_off.o
 .debug_str     0x000050e2       0xeb build/lcdc_rgba8888_mxt_9x60_wvga/debug/_ext/780564725/options_but_up.o
 .debug_str     0x000051cd       0xeb build/lcdc_rgba8888_mxt_9x60_wvga/debug/_ext/780564725/sound_but_on.o
 .debug_str     0x000052b8       0xeb build/lcdc_rgba8888_mxt_9x60_wvga/debug/_ext/780564725/r8.o
 .debug_str     0x000053a3       0xeb build/lcdc_rgba8888_mxt_9x60_wvga/debug/_ext/780564725/high_but_up.o
 .debug_str     0x0000548e       0xeb build/lcdc_rgba8888_mxt_9x60_wvga/debug/_ext/780564725/cold_but_up.o
 .debug_str     0x00005579       0xeb build/lcdc_rgba8888_mxt_9x60_wvga/debug/_ext/780564725/image9.o
 .debug_str     0x00005664       0xeb build/lcdc_rgba8888_mxt_9x60_wvga/debug/_ext/780564725/medium_but_up.o
 .debug_str     0x0000574f       0xeb build/lcdc_rgba8888_mxt_9x60_wvga/debug/_ext/780564725/sports_but_up.o
 .debug_str     0x0000583a       0xeb build/lcdc_rgba8888_mxt_9x60_wvga/debug/_ext/780564725/medium_but_down.o
 .debug_str     0x00005925       0xeb build/lcdc_rgba8888_mxt_9x60_wvga/debug/_ext/780564725/wool_but_up.o
 .debug_str     0x00005a10       0xeb build/lcdc_rgba8888_mxt_9x60_wvga/debug/_ext/780564725/bed_but_up.o
 .debug_str     0x00005afb       0xeb build/lcdc_rgba8888_mxt_9x60_wvga/debug/_ext/780564725/low_but_down.o
 .debug_str     0x00005be6       0xeb build/lcdc_rgba8888_mxt_9x60_wvga/debug/_ext/780564725/normal_but_down.o
 .debug_str     0x00005cd1       0xeb build/lcdc_rgba8888_mxt_9x60_wvga/debug/_ext/780564725/cold_but_down.o
 .debug_str     0x00005dbc      0x88e build/lcdc_rgba8888_mxt_9x60_wvga/debug/_ext/1849858236/le_gen_screen_Screen0.o
 .debug_str     0x0000664a      0x13d build/lcdc_rgba8888_mxt_9x60_wvga/debug/_ext/1247075393/le_gen_init.o
 .debug_str     0x00006787      0x201 build/lcdc_rgba8888_mxt_9x60_wvga/debug/_ext/1247075393/le_gen_stringtable.o
 .debug_str     0x00006988       0xdc build/lcdc_rgba8888_mxt_9x60_wvga/debug/_ext/1247075393/le_gen_scheme.o
 .debug_str     0x00006a64       0xb4 build/lcdc_rgba8888_mxt_9x60_wvga/debug/_ext/1247075393/le_gen_globalpalette.o
 .debug_str     0x00006b18      0x1c3 build/lcdc_rgba8888_mxt_9x60_wvga/debug/_ext/1247075393/le_gen_harmony.o
 .debug_str     0x00006cdb      0x251 build/lcdc_rgba8888_mxt_9x60_wvga/debug/_ext/1797725076/legato_imagedecoder_jpeg.o
 .debug_str     0x00006f2c       0xd4 build/lcdc_rgba8888_mxt_9x60_wvga/debug/_ext/1797725076/legato_imagedecoder_jpeg_common.o
 .debug_str     0x00007000        0x9 build/lcdc_rgba8888_mxt_9x60_wvga/debug/_ext/1797725076/jidctint.o
 .debug_str     0x00007009      0x214 build/lcdc_rgba8888_mxt_9x60_wvga/debug/_ext/1797636377/legato_imagedecoder_mono.o
 .debug_str     0x0000721d       0xce build/lcdc_rgba8888_mxt_9x60_wvga/debug/_ext/1797636377/legato_imagedecoder_mono_read_internal.o
 .debug_str     0x000072eb      0x1a8 build/lcdc_rgba8888_mxt_9x60_wvga/debug/_ext/1881677221/legato_imagedecoder_png.o
 .debug_str     0x00007493      0x29c build/lcdc_rgba8888_mxt_9x60_wvga/debug/_ext/1881677221/lodepng.o
 .debug_str     0x0000772f       0xca build/lcdc_rgba8888_mxt_9x60_wvga/debug/_ext/1881678756/legato_imagedecoder_raw_setup.o
 .debug_str     0x000077f9      0x110 build/lcdc_rgba8888_mxt_9x60_wvga/debug/_ext/1881678756/legato_imagedecoder_raw_scale.o
 .debug_str     0x00007909       0xc4 build/lcdc_rgba8888_mxt_9x60_wvga/debug/_ext/1881678756/legato_imagedecoder_raw_mask.o
 .debug_str     0x000079cd      0x16f build/lcdc_rgba8888_mxt_9x60_wvga/debug/_ext/1881678756/legato_imagedecoder_raw_convert.o
 .debug_str     0x00007b3c      0x1fd build/lcdc_rgba8888_mxt_9x60_wvga/debug/_ext/1881678756/legato_imagedecoder_raw_read_internal.o
 .debug_str     0x00007d39      0x18e build/lcdc_rgba8888_mxt_9x60_wvga/debug/_ext/1881678756/legato_imagedecoder_raw_write.o
 .debug_str     0x00007ec7      0x1bb build/lcdc_rgba8888_mxt_9x60_wvga/debug/_ext/1881678756/legato_imagedecoder_raw_blend.o
 .debug_str     0x00008082      0x17f build/lcdc_rgba8888_mxt_9x60_wvga/debug/_ext/1881678756/legato_imagedecoder_raw_palette_internal.o
 .debug_str     0x00008201      0x5a6 build/lcdc_rgba8888_mxt_9x60_wvga/debug/_ext/1881678756/legato_imagedecoder_raw.o
 .debug_str     0x000087a7       0xe6 build/lcdc_rgba8888_mxt_9x60_wvga/debug/_ext/1881678756/legato_imagedecoder_raw_rotate.o
 .debug_str     0x0000888d       0x2a build/lcdc_rgba8888_mxt_9x60_wvga/debug/_ext/927452043/legato_image_utils.o
 .debug_str     0x000088b7      0x1b6 build/lcdc_rgba8888_mxt_9x60_wvga/debug/_ext/927452043/legato_image.o
 .debug_str     0x00008a6d      0x1c3 build/lcdc_rgba8888_mxt_9x60_wvga/debug/_ext/1206263599/legato_memory.o
 .debug_str     0x00008c30       0x34 build/lcdc_rgba8888_mxt_9x60_wvga/debug/_ext/1206263599/legato_fixedheap.o
 .debug_str     0x00008c64       0x4c build/lcdc_rgba8888_mxt_9x60_wvga/debug/_ext/1206263599/legato_variableheap.o
 .debug_str     0x00008cb0      0x151 build/lcdc_rgba8888_mxt_9x60_wvga/debug/_ext/564048019/legato_draw_rect.o
 .debug_str     0x00008e01      0x1dd build/lcdc_rgba8888_mxt_9x60_wvga/debug/_ext/564048019/legato_draw.o
 .debug_str     0x00008fde      0x15e build/lcdc_rgba8888_mxt_9x60_wvga/debug/_ext/564048019/legato_draw_line.o
 .debug_str     0x0000913c      0xa2b build/lcdc_rgba8888_mxt_9x60_wvga/debug/_ext/564048019/legato_renderer.o
 .debug_str     0x00009b67      0x1e0 build/lcdc_rgba8888_mxt_9x60_wvga/debug/_ext/564048019/legato_draw_arc.o
 .debug_str     0x00009d47      0x17f build/lcdc_rgba8888_mxt_9x60_wvga/debug/_ext/564048019/legato_gpu.o
 .debug_str     0x00009ec6       0xc8 build/lcdc_rgba8888_mxt_9x60_wvga/debug/_ext/1020492831/legato_stringutils.o
 .debug_str     0x00009f8e      0x290 build/lcdc_rgba8888_mxt_9x60_wvga/debug/_ext/1020492831/legato_tablestring.o
 .debug_str     0x0000a21e      0x16c build/lcdc_rgba8888_mxt_9x60_wvga/debug/_ext/1020492831/legato_stringtable.o
 .debug_str     0x0000a38a      0x16c build/lcdc_rgba8888_mxt_9x60_wvga/debug/_ext/1020492831/legato_fixedstring.o
 .debug_str     0x0000a4f6      0x268 build/lcdc_rgba8888_mxt_9x60_wvga/debug/_ext/1020492831/legato_string_renderer.o
 .debug_str     0x0000a75e      0x175 build/lcdc_rgba8888_mxt_9x60_wvga/debug/_ext/1020492831/legato_string.o
 .debug_str     0x0000a8d3      0x87e build/lcdc_rgba8888_mxt_9x60_wvga/debug/_ext/424260723/legato_widget_button.o
 .debug_str     0x0000b151      0x843 build/lcdc_rgba8888_mxt_9x60_wvga/debug/_ext/424260723/legato_widget_button_skin_classic.o
 .debug_str     0x0000b994      0x67f build/lcdc_rgba8888_mxt_9x60_wvga/debug/_ext/1808593504/legato_widget_image.o
 .debug_str     0x0000c013      0x6cb build/lcdc_rgba8888_mxt_9x60_wvga/debug/_ext/1808593504/legato_widget_image_skin_classic.o
 .debug_str     0x0000c6de      0x764 build/lcdc_rgba8888_mxt_9x60_wvga/debug/_ext/1806179527/legato_widget_label_skin_classic.o
 .debug_str     0x0000ce42      0x66a build/lcdc_rgba8888_mxt_9x60_wvga/debug/_ext/1806179527/legato_widget_label.o
 .debug_str     0x0000d4ac      0x66b build/lcdc_rgba8888_mxt_9x60_wvga/debug/_ext/2047371060/legato_widget_rectangle_skin_classic.o
 .debug_str     0x0000db17      0x592 build/lcdc_rgba8888_mxt_9x60_wvga/debug/_ext/2047371060/legato_widget_rectangle.o
 .debug_str     0x0000e0a9      0x298 build/lcdc_rgba8888_mxt_9x60_wvga/debug/_ext/916554220/legato_widget_skin_classic.o
 .debug_str     0x0000e341      0x2ae build/lcdc_rgba8888_mxt_9x60_wvga/debug/_ext/916554220/legato_widget_skin_classic_common.o
 .debug_str     0x0000e5ef      0x365 build/lcdc_rgba8888_mxt_9x60_wvga/debug/_ext/916554220/legato_widget.o
 .debug_str     0x0000e954       0xd4 build/lcdc_rgba8888_mxt_9x60_wvga/debug/_ext/107307971/plib_aic.o
 .debug_str     0x0000ea28        0x0 build/lcdc_rgba8888_mxt_9x60_wvga/debug/_ext/107309994/plib_clk.o
 .debug_str     0x0000ea28       0x26 build/lcdc_rgba8888_mxt_9x60_wvga/debug/_ext/1221451702/plib_flexcom0_twi_master.o
 .debug_str     0x0000ea4e      0x10e build/lcdc_rgba8888_mxt_9x60_wvga/debug/_ext/968098130/plib_lcdc.o
 .debug_str     0x0000eb5c        0xd build/lcdc_rgba8888_mxt_9x60_wvga/debug/_ext/107319645/plib_mmu.o
 .debug_str     0x0000eb69        0xa build/lcdc_rgba8888_mxt_9x60_wvga/debug/_ext/107322398/plib_pio.o
 .debug_str     0x0000eb73       0x11 build/lcdc_rgba8888_mxt_9x60_wvga/debug/_ext/107324666/plib_rtt.o
 .debug_str     0x0000eb84       0x12 build/lcdc_rgba8888_mxt_9x60_wvga/debug/_ext/273632537/plib_tc1.o
 .debug_str     0x0000eb96       0x28 build/lcdc_rgba8888_mxt_9x60_wvga/debug/_ext/273632537/plib_tc0.o
 .debug_str     0x0000ebbe        0x0 build/lcdc_rgba8888_mxt_9x60_wvga/debug/_ext/129769842/xc32_monitor.o
 .debug_str     0x0000ebbe        0x6 build/lcdc_rgba8888_mxt_9x60_wvga/debug/_ext/256753733/sys_input.o
 .debug_str     0x0000ebc4       0x64 build/lcdc_rgba8888_mxt_9x60_wvga/debug/_ext/1928812927/sys_int.o
 .debug_str     0x0000ec28      0x14c build/lcdc_rgba8888_mxt_9x60_wvga/debug/_ext/1359593799/sys_time.o
 .debug_str     0x0000ed74        0x0 build/lcdc_rgba8888_mxt_9x60_wvga/debug/_ext/1455094228/fault_handlers.o
 .debug_str     0x0000ed74       0x9a build/lcdc_rgba8888_mxt_9x60_wvga/debug/_ext/1455094228/cstartup.o
 .debug_str     0x0000ee0e       0xe9 build/lcdc_rgba8888_mxt_9x60_wvga/debug/_ext/1455094228/interrupts.o
 .debug_str     0x0000eef7      0x25b build/lcdc_rgba8888_mxt_9x60_wvga/debug/_ext/1455094228/initialization.o
 .debug_str     0x0000f152      0x12c build/lcdc_rgba8888_mxt_9x60_wvga/debug/_ext/1455094228/tasks.o
 .debug_str     0x0000f27e      0x928 build/lcdc_rgba8888_mxt_9x60_wvga/debug/_ext/1360937237/app.o
 .debug_str     0x0000fba6       0xed build/lcdc_rgba8888_mxt_9x60_wvga/debug/_ext/1360937237/main.o
 .debug_str     0x0000fc93       0xe7 c:/program files/microchip/xc32/v4.21/bin/bin/../../lib/gcc/pic32c/8.3.1/arm/v5te/nofp\libgcc.a(_udivsi3.o)
 .debug_str     0x0000fd7a       0xe7 c:/program files/microchip/xc32/v4.21/bin/bin/../../lib/gcc/pic32c/8.3.1/arm/v5te/nofp\libgcc.a(_divsi3.o)
 .debug_str     0x0000fe61       0xe7 c:/program files/microchip/xc32/v4.21/bin/bin/../../lib/gcc/pic32c/8.3.1/arm/v5te/nofp\libgcc.a(_dvmd_tls.o)
 .debug_str     0x0000ff48       0xe8 c:/program files/microchip/xc32/v4.21/bin/bin/../../lib/gcc/pic32c/8.3.1/arm/v5te/nofp\libgcc.a(_arm_addsubsf3.o)
 .debug_str     0x00010030       0xe8 c:/program files/microchip/xc32/v4.21/bin/bin/../../lib/gcc/pic32c/8.3.1/arm/v5te/nofp\libgcc.a(_arm_muldivsf3.o)
 .debug_str     0x00010118       0xe8 c:/program files/microchip/xc32/v4.21/bin/bin/../../lib/gcc/pic32c/8.3.1/arm/v5te/nofp\libgcc.a(_arm_cmpsf2.o)
 .debug_str     0x00010200       0xe8 c:/program files/microchip/xc32/v4.21/bin/bin/../../lib/gcc/pic32c/8.3.1/arm/v5te/nofp\libgcc.a(_arm_fixsfsi.o)
 .debug_str     0x000102e8       0xe8 c:/program files/microchip/xc32/v4.21/bin/bin/../../lib/gcc/pic32c/8.3.1/arm/v5te/nofp\libgcc.a(_arm_fixunssfsi.o)
 .debug_str     0x000103d0       0xe3 c:/program files/microchip/xc32/v4.21/bin/bin/../../lib/gcc/pic32c/8.3.1/arm/v5te/nofp\libgcc.a(_aeabi_uldivmod.o)
 .debug_str     0x000104b3        0x0 c:/program files/microchip/xc32/v4.21/bin/bin/../../lib/gcc/pic32c/8.3.1/arm/v5te/nofp\libgcc.a(_udivmoddi4.o)
 .debug_str     0x000104b3        0x0 c:/program files/microchip/xc32/v4.21/bin/bin/../../lib/gcc/pic32c/8.3.1/../../../../pic32c/lib/arm/v5te/nofp\libg-musl.a(__libc_start_main.o)
 .debug_str     0x000104b3        0x0 c:/program files/microchip/xc32/v4.21/bin/bin/../../lib/gcc/pic32c/8.3.1/../../../../pic32c/lib/arm/v5te/nofp\libg-musl.a(libc.o)
 .debug_str     0x000104b3       0x78 c:/program files/microchip/xc32/v4.21/bin/bin/../../lib/gcc/pic32c/8.3.1/../../../../pic32c/lib/arm/v5te/nofp\libg-musl.a(__sio_sprintf_dosux.o)
 .debug_str     0x0001052b        0x0 c:/program files/microchip/xc32/v4.21/bin/bin/../../lib/gcc/pic32c/8.3.1/../../../../pic32c/lib/arm/v5te/nofp\libg-musl.a(__fmt_d.o)
 .debug_str     0x0001052b        0x0 c:/program files/microchip/xc32/v4.21/bin/bin/../../lib/gcc/pic32c/8.3.1/../../../../pic32c/lib/arm/v5te/nofp\libg-musl.a(__fmt_o.o)
 .debug_str     0x0001052b        0x0 c:/program files/microchip/xc32/v4.21/bin/bin/../../lib/gcc/pic32c/8.3.1/../../../../pic32c/lib/arm/v5te/nofp\libg-musl.a(__fmt_s.o)
 .debug_str     0x0001052b        0x6 c:/program files/microchip/xc32/v4.21/bin/bin/../../lib/gcc/pic32c/8.3.1/../../../../pic32c/lib/arm/v5te/nofp\libg-musl.a(__fmt_u.o)
 .debug_str     0x00010531        0x0 c:/program files/microchip/xc32/v4.21/bin/bin/../../lib/gcc/pic32c/8.3.1/../../../../pic32c/lib/arm/v5te/nofp\libg-musl.a(__fmt_x.o)
 .debug_str     0x00010531        0x0 c:/program files/microchip/xc32/v4.21/bin/bin/../../lib/gcc/pic32c/8.3.1/../../../../pic32c/lib/arm/v5te/nofp\libg-musl.a(__pop_int.o)
 .debug_str     0x00010531        0x0 c:/program files/microchip/xc32/v4.21/bin/bin/../../lib/gcc/pic32c/8.3.1/../../../../pic32c/lib/arm/v5te/nofp\libg-musl.a(__pop_ptr.o)
 .debug_str     0x00010531       0x20 c:/program files/microchip/xc32/v4.21/bin/bin/../../lib/gcc/pic32c/8.3.1/../../../../pic32c/lib/arm/v5te/nofp\libg-musl.a(__printf_core.o)
 .debug_str     0x00010551       0x11 c:/program files/microchip/xc32/v4.21/bin/bin/../../lib/gcc/pic32c/8.3.1/../../../../pic32c/lib/arm/v5te/nofp\libg-musl.a(stdout.o)
 .debug_str     0x00010562        0x0 c:/program files/microchip/xc32/v4.21/bin/bin/../../lib/gcc/pic32c/8.3.1/../../../../pic32c/lib/arm/v5te/nofp\libg-musl.a(atoi.o)
 .debug_str     0x00010562        0x0 c:/program files/microchip/xc32/v4.21/bin/bin/../../lib/gcc/pic32c/8.3.1/../../../../pic32c/lib/arm/v5te/nofp\libg-musl.a(memcpy.o)
 .debug_str     0x00010562        0x0 c:/program files/microchip/xc32/v4.21/bin/bin/../../lib/gcc/pic32c/8.3.1/../../../../pic32c/lib/arm/v5te/nofp\libg-musl.a(memset.o)
 .debug_str     0x00010562        0x0 c:/program files/microchip/xc32/v4.21/bin/bin/../../lib/gcc/pic32c/8.3.1/../../../../pic32c/lib/arm/v5te/nofp\libg-musl.a(strlen.o)
 .debug_str     0x00010562        0x0 c:/program files/microchip/xc32/v4.21/bin/bin/../../lib/gcc/pic32c/8.3.1/../../../../pic32c/lib/arm/v5te/nofp\libg-musl.a(tolower.o)
 .debug_str     0x00010562        0x0 c:/program files/microchip/xc32/v4.21/bin/bin/../../lib/gcc/pic32c/8.3.1/../../../../pic32c/lib/arm/v5te/nofp\libg-musl.a(toupper.o)
 .debug_str     0x00010562        0x0 c:/program files/microchip/xc32/v4.21/bin/bin/../../lib/gcc/pic32c/8.3.1/../../../../pic32c/lib/arm/v5te/nofp\libg-musl.a(__environ.o)
 .debug_str     0x00010562        0x0 c:/program files/microchip/xc32/v4.21/bin/bin/../../lib/gcc/pic32c/8.3.1/../../../../pic32c/lib/arm/v5te/nofp\libg-musl.a(__errno_location.o)
 .debug_str     0x00010562        0xe c:/program files/microchip/xc32/v4.21/bin/bin/../../lib/gcc/pic32c/8.3.1/../../../../pic32c/lib/arm/v5te/nofp\libg-musl.a(__int_vfprintf.o)
 .debug_str     0x00010570        0xc c:/program files/microchip/xc32/v4.21/bin/bin/../../lib/gcc/pic32c/8.3.1/../../../../pic32c/lib/arm/v5te/nofp\libg-musl.a(__int_vsprintf.o)
 .debug_str     0x0001057c        0x0 c:/program files/microchip/xc32/v4.21/bin/bin/../../lib/gcc/pic32c/8.3.1/../../../../pic32c/lib/arm/v5te/nofp\libg-musl.a(__pop_float.o)
 .debug_str     0x0001057c        0xb c:/program files/microchip/xc32/v4.21/bin/bin/../../lib/gcc/pic32c/8.3.1/../../../../pic32c/lib/arm/v5te/nofp\libg-musl.a(__int_vsnprintf.o)
 .debug_str     0x00010587        0x0 c:/program files/microchip/xc32/v4.21/bin/bin/../../lib/gcc/pic32c/8.3.1/../../../../pic32c/lib/arm/v5te/nofp\libg-musl.a(__init_stdio.o)
 .debug_str     0x00010587        0x0 c:/program files/microchip/xc32/v4.21/bin/bin/../../lib/gcc/pic32c/8.3.1/../../../../pic32c/lib/arm/v5te/nofp\libg-musl.a(__out.o)
 .debug_str     0x00010587        0x0 c:/program files/microchip/xc32/v4.21/bin/bin/../../lib/gcc/pic32c/8.3.1/../../../../pic32c/lib/arm/v5te/nofp\libg-musl.a(__stdio_close.o)
 .debug_str     0x00010587        0x7 c:/program files/microchip/xc32/v4.21/bin/bin/../../lib/gcc/pic32c/8.3.1/../../../../pic32c/lib/arm/v5te/nofp\libg-musl.a(__stdio_seek.o)
 .debug_str     0x0001058e       0x11 c:/program files/microchip/xc32/v4.21/bin/bin/../../lib/gcc/pic32c/8.3.1/../../../../pic32c/lib/arm/v5te/nofp\libg-musl.a(__stdout.o)
 .debug_str     0x0001059f       0x10 c:/program files/microchip/xc32/v4.21/bin/bin/../../lib/gcc/pic32c/8.3.1/../../../../pic32c/lib/arm/v5te/nofp\libg-musl.a(__fwrite.o)
 .debug_str     0x000105af        0x0 c:/program files/microchip/xc32/v4.21/bin/bin/../../lib/gcc/pic32c/8.3.1/../../../../pic32c/lib/arm/v5te/nofp\libpic32c.a(lseek.o)

.debug_frame    0x00000000     0x8e78
 .debug_frame   0x00000000       0x20 build/lcdc_rgba8888_mxt_9x60_wvga/debug/_ext/710462340/bsp.o
 .debug_frame   0x00000020      0x264 build/lcdc_rgba8888_mxt_9x60_wvga/debug/_ext/205529507/drv_i2c.o
 .debug_frame   0x00000284      0x2c4 build/lcdc_rgba8888_mxt_9x60_wvga/debug/_ext/802015102/drv_maxtouch.o
 .debug_frame   0x00000548      0x214 build/lcdc_rgba8888_mxt_9x60_wvga/debug/_ext/51791817/gfx_canvas.o
 .debug_frame   0x0000075c      0x238 build/lcdc_rgba8888_mxt_9x60_wvga/debug/_ext/51791817/gfx_canvas_api.o
 .debug_frame   0x00000994      0x4c4 build/lcdc_rgba8888_mxt_9x60_wvga/debug/_ext/95971993/gfx_driver.o
 .debug_frame   0x00000e58      0x128 build/lcdc_rgba8888_mxt_9x60_wvga/debug/_ext/1886796627/drv_gfx_lcdc.o
 .debug_frame   0x00000f80      0x114 build/lcdc_rgba8888_mxt_9x60_wvga/debug/_ext/1483321925/legato_rect.o
 .debug_frame   0x00001094      0x25c build/lcdc_rgba8888_mxt_9x60_wvga/debug/_ext/1483321925/legato_pixelbuffer.o
 .debug_frame   0x000012f0      0x1d4 build/lcdc_rgba8888_mxt_9x60_wvga/debug/_ext/1483321925/legato_utils.o
 .debug_frame   0x000014c4      0x2d0 build/lcdc_rgba8888_mxt_9x60_wvga/debug/_ext/1483321925/legato_color_convert.o
 .debug_frame   0x00001794       0x68 build/lcdc_rgba8888_mxt_9x60_wvga/debug/_ext/1483321925/legato_color_blend.o
 .debug_frame   0x000017fc      0x3a8 build/lcdc_rgba8888_mxt_9x60_wvga/debug/_ext/1483321925/legato_math.o
 .debug_frame   0x00001ba4       0x60 build/lcdc_rgba8888_mxt_9x60_wvga/debug/_ext/1483321925/legato_color.o
 .debug_frame   0x00001c04      0x128 build/lcdc_rgba8888_mxt_9x60_wvga/debug/_ext/1483321925/legato_color_lerp.o
 .debug_frame   0x00001d2c      0x428 build/lcdc_rgba8888_mxt_9x60_wvga/debug/_ext/1553762159/legato_state.o
 .debug_frame   0x00002154       0xd8 build/lcdc_rgba8888_mxt_9x60_wvga/debug/_ext/1553762159/legato_event.o
 .debug_frame   0x0000222c      0x144 build/lcdc_rgba8888_mxt_9x60_wvga/debug/_ext/1553762159/legato_input.o
 .debug_frame   0x00002370       0x54 build/lcdc_rgba8888_mxt_9x60_wvga/debug/_ext/1553762159/legato_scheme.o
 .debug_frame   0x000023c4      0x188 build/lcdc_rgba8888_mxt_9x60_wvga/debug/_ext/1653592263/legato_array.o
 .debug_frame   0x0000254c      0x18c build/lcdc_rgba8888_mxt_9x60_wvga/debug/_ext/1653592263/legato_list.o
 .debug_frame   0x000026d8      0x3d0 build/lcdc_rgba8888_mxt_9x60_wvga/debug/_ext/1653592263/legato_rectarray.o
 .debug_frame   0x00002aa8      0x190 build/lcdc_rgba8888_mxt_9x60_wvga/debug/_ext/1553851423/legato_font.o
 .debug_frame   0x00002c38       0xac build/lcdc_rgba8888_mxt_9x60_wvga/debug/_ext/1849858236/le_gen_screen_Screen0.o
 .debug_frame   0x00002ce4       0x70 build/lcdc_rgba8888_mxt_9x60_wvga/debug/_ext/1247075393/le_gen_init.o
 .debug_frame   0x00002d54       0x28 build/lcdc_rgba8888_mxt_9x60_wvga/debug/_ext/1247075393/le_gen_stringtable.o
 .debug_frame   0x00002d7c       0x90 build/lcdc_rgba8888_mxt_9x60_wvga/debug/_ext/1247075393/le_gen_harmony.o
 .debug_frame   0x00002e0c       0xec build/lcdc_rgba8888_mxt_9x60_wvga/debug/_ext/1797725076/legato_imagedecoder_jpeg.o
 .debug_frame   0x00002ef8      0x1c0 build/lcdc_rgba8888_mxt_9x60_wvga/debug/_ext/1797725076/legato_imagedecoder_jpeg_common.o
 .debug_frame   0x000030b8       0x40 build/lcdc_rgba8888_mxt_9x60_wvga/debug/_ext/1797725076/jidctint.o
 .debug_frame   0x000030f8      0x190 build/lcdc_rgba8888_mxt_9x60_wvga/debug/_ext/1797636377/legato_imagedecoder_mono.o
 .debug_frame   0x00003288       0x40 build/lcdc_rgba8888_mxt_9x60_wvga/debug/_ext/1797636377/legato_imagedecoder_mono_read_internal.o
 .debug_frame   0x000032c8       0xbc build/lcdc_rgba8888_mxt_9x60_wvga/debug/_ext/1881677221/legato_imagedecoder_png.o
 .debug_frame   0x00003384      0x888 build/lcdc_rgba8888_mxt_9x60_wvga/debug/_ext/1881677221/lodepng.o
 .debug_frame   0x00003c0c       0x70 build/lcdc_rgba8888_mxt_9x60_wvga/debug/_ext/1881678756/legato_imagedecoder_raw_setup.o
 .debug_frame   0x00003c7c       0xe0 build/lcdc_rgba8888_mxt_9x60_wvga/debug/_ext/1881678756/legato_imagedecoder_raw_scale.o
 .debug_frame   0x00003d5c       0x38 build/lcdc_rgba8888_mxt_9x60_wvga/debug/_ext/1881678756/legato_imagedecoder_raw_mask.o
 .debug_frame   0x00003d94       0x44 build/lcdc_rgba8888_mxt_9x60_wvga/debug/_ext/1881678756/legato_imagedecoder_raw_convert.o
 .debug_frame   0x00003dd8      0x100 build/lcdc_rgba8888_mxt_9x60_wvga/debug/_ext/1881678756/legato_imagedecoder_raw_read_internal.o
 .debug_frame   0x00003ed8       0x70 build/lcdc_rgba8888_mxt_9x60_wvga/debug/_ext/1881678756/legato_imagedecoder_raw_write.o
 .debug_frame   0x00003f48       0x6c build/lcdc_rgba8888_mxt_9x60_wvga/debug/_ext/1881678756/legato_imagedecoder_raw_blend.o
 .debug_frame   0x00003fb4       0x68 build/lcdc_rgba8888_mxt_9x60_wvga/debug/_ext/1881678756/legato_imagedecoder_raw_palette_internal.o
 .debug_frame   0x0000401c      0x25c build/lcdc_rgba8888_mxt_9x60_wvga/debug/_ext/1881678756/legato_imagedecoder_raw.o
 .debug_frame   0x00004278       0xc4 build/lcdc_rgba8888_mxt_9x60_wvga/debug/_ext/1881678756/legato_imagedecoder_raw_rotate.o
 .debug_frame   0x0000433c      0x100 build/lcdc_rgba8888_mxt_9x60_wvga/debug/_ext/927452043/legato_image_utils.o
 .debug_frame   0x0000443c      0x1dc build/lcdc_rgba8888_mxt_9x60_wvga/debug/_ext/927452043/legato_image.o
 .debug_frame   0x00004618      0x104 build/lcdc_rgba8888_mxt_9x60_wvga/debug/_ext/1206263599/legato_memory.o
 .debug_frame   0x0000471c       0x94 build/lcdc_rgba8888_mxt_9x60_wvga/debug/_ext/1206263599/legato_fixedheap.o
 .debug_frame   0x000047b0      0x1c8 build/lcdc_rgba8888_mxt_9x60_wvga/debug/_ext/1206263599/legato_variableheap.o
 .debug_frame   0x00004978       0xb0 build/lcdc_rgba8888_mxt_9x60_wvga/debug/_ext/564048019/legato_draw_rect.o
 .debug_frame   0x00004a28      0x1f4 build/lcdc_rgba8888_mxt_9x60_wvga/debug/_ext/564048019/legato_draw.o
 .debug_frame   0x00004c1c       0xbc build/lcdc_rgba8888_mxt_9x60_wvga/debug/_ext/564048019/legato_draw_line.o
 .debug_frame   0x00004cd8      0x2bc build/lcdc_rgba8888_mxt_9x60_wvga/debug/_ext/564048019/legato_renderer.o
 .debug_frame   0x00004f94      0x15c build/lcdc_rgba8888_mxt_9x60_wvga/debug/_ext/564048019/legato_draw_arc.o
 .debug_frame   0x000050f0       0xf4 build/lcdc_rgba8888_mxt_9x60_wvga/debug/_ext/564048019/legato_gpu.o
 .debug_frame   0x000051e4      0x2ac build/lcdc_rgba8888_mxt_9x60_wvga/debug/_ext/1020492831/legato_stringutils.o
 .debug_frame   0x00005490      0x1e8 build/lcdc_rgba8888_mxt_9x60_wvga/debug/_ext/1020492831/legato_tablestring.o
 .debug_frame   0x00005678       0xc8 build/lcdc_rgba8888_mxt_9x60_wvga/debug/_ext/1020492831/legato_stringtable.o
 .debug_frame   0x00005740      0x258 build/lcdc_rgba8888_mxt_9x60_wvga/debug/_ext/1020492831/legato_fixedstring.o
 .debug_frame   0x00005998       0xa0 build/lcdc_rgba8888_mxt_9x60_wvga/debug/_ext/1020492831/legato_string_renderer.o
 .debug_frame   0x00005a38      0x1a8 build/lcdc_rgba8888_mxt_9x60_wvga/debug/_ext/1020492831/legato_string.o
 .debug_frame   0x00005be0      0x2e4 build/lcdc_rgba8888_mxt_9x60_wvga/debug/_ext/424260723/legato_widget_button.o
 .debug_frame   0x00005ec4      0x11c build/lcdc_rgba8888_mxt_9x60_wvga/debug/_ext/424260723/legato_widget_button_skin_classic.o
 .debug_frame   0x00005fe0       0xc4 build/lcdc_rgba8888_mxt_9x60_wvga/debug/_ext/1808593504/legato_widget_image.o
 .debug_frame   0x000060a4       0xb0 build/lcdc_rgba8888_mxt_9x60_wvga/debug/_ext/1808593504/legato_widget_image_skin_classic.o
 .debug_frame   0x00006154       0xb8 build/lcdc_rgba8888_mxt_9x60_wvga/debug/_ext/1806179527/legato_widget_label_skin_classic.o
 .debug_frame   0x0000620c       0xf4 build/lcdc_rgba8888_mxt_9x60_wvga/debug/_ext/1806179527/legato_widget_label.o
 .debug_frame   0x00006300       0xb0 build/lcdc_rgba8888_mxt_9x60_wvga/debug/_ext/2047371060/legato_widget_rectangle_skin_classic.o
 .debug_frame   0x000063b0       0x84 build/lcdc_rgba8888_mxt_9x60_wvga/debug/_ext/2047371060/legato_widget_rectangle.o
 .debug_frame   0x00006434       0x58 build/lcdc_rgba8888_mxt_9x60_wvga/debug/_ext/916554220/legato_widget_skin_classic.o
 .debug_frame   0x0000648c      0x29c build/lcdc_rgba8888_mxt_9x60_wvga/debug/_ext/916554220/legato_widget_skin_classic_common.o
 .debug_frame   0x00006728      0x7e8 build/lcdc_rgba8888_mxt_9x60_wvga/debug/_ext/916554220/legato_widget.o
 .debug_frame   0x00006f10       0x60 build/lcdc_rgba8888_mxt_9x60_wvga/debug/_ext/107307971/plib_aic.o
 .debug_frame   0x00006f70       0x2c build/lcdc_rgba8888_mxt_9x60_wvga/debug/_ext/107309994/plib_clk.o
 .debug_frame   0x00006f9c      0x118 build/lcdc_rgba8888_mxt_9x60_wvga/debug/_ext/1221451702/plib_flexcom0_twi_master.o
 .debug_frame   0x000070b4      0x518 build/lcdc_rgba8888_mxt_9x60_wvga/debug/_ext/968098130/plib_lcdc.o
 .debug_frame   0x000075cc      0x110 build/lcdc_rgba8888_mxt_9x60_wvga/debug/_ext/107319645/plib_mmu.o
 .debug_frame   0x000076dc       0xa0 build/lcdc_rgba8888_mxt_9x60_wvga/debug/_ext/107322398/plib_pio.o
 .debug_frame   0x0000777c       0xd8 build/lcdc_rgba8888_mxt_9x60_wvga/debug/_ext/107324666/plib_rtt.o
 .debug_frame   0x00007854       0xc0 build/lcdc_rgba8888_mxt_9x60_wvga/debug/_ext/273632537/plib_tc1.o
 .debug_frame   0x00007914      0x168 build/lcdc_rgba8888_mxt_9x60_wvga/debug/_ext/273632537/plib_tc0.o
 .debug_frame   0x00007a7c       0x30 build/lcdc_rgba8888_mxt_9x60_wvga/debug/_ext/129769842/xc32_monitor.o
 .debug_frame   0x00007aac      0x190 build/lcdc_rgba8888_mxt_9x60_wvga/debug/_ext/256753733/sys_input.o
 .debug_frame   0x00007c3c      0x118 build/lcdc_rgba8888_mxt_9x60_wvga/debug/_ext/1928812927/sys_int.o
 .debug_frame   0x00007d54      0x3c4 build/lcdc_rgba8888_mxt_9x60_wvga/debug/_ext/1359593799/sys_time.o
 .debug_frame   0x00008118       0x50 build/lcdc_rgba8888_mxt_9x60_wvga/debug/_ext/1455094228/fault_handlers.o
 .debug_frame   0x00008168       0x38 build/lcdc_rgba8888_mxt_9x60_wvga/debug/_ext/1455094228/interrupts.o
 .debug_frame   0x000081a0       0x28 build/lcdc_rgba8888_mxt_9x60_wvga/debug/_ext/1455094228/initialization.o
 .debug_frame   0x000081c8       0x28 build/lcdc_rgba8888_mxt_9x60_wvga/debug/_ext/1455094228/tasks.o
 .debug_frame   0x000081f0      0x398 build/lcdc_rgba8888_mxt_9x60_wvga/debug/_ext/1360937237/app.o
 .debug_frame   0x00008588       0x28 build/lcdc_rgba8888_mxt_9x60_wvga/debug/_ext/1360937237/main.o
 .debug_frame   0x000085b0       0x20 c:/program files/microchip/xc32/v4.21/bin/bin/../../lib/gcc/pic32c/8.3.1/arm/v5te/nofp\libgcc.a(_udivsi3.o)
 .debug_frame   0x000085d0       0x20 c:/program files/microchip/xc32/v4.21/bin/bin/../../lib/gcc/pic32c/8.3.1/arm/v5te/nofp\libgcc.a(_divsi3.o)
 .debug_frame   0x000085f0       0x4c c:/program files/microchip/xc32/v4.21/bin/bin/../../lib/gcc/pic32c/8.3.1/arm/v5te/nofp\libgcc.a(_arm_addsubsf3.o)
 .debug_frame   0x0000863c       0x38 c:/program files/microchip/xc32/v4.21/bin/bin/../../lib/gcc/pic32c/8.3.1/arm/v5te/nofp\libgcc.a(_arm_muldivsf3.o)
 .debug_frame   0x00008674       0xc8 c:/program files/microchip/xc32/v4.21/bin/bin/../../lib/gcc/pic32c/8.3.1/arm/v5te/nofp\libgcc.a(_arm_cmpsf2.o)
 .debug_frame   0x0000873c       0x24 c:/program files/microchip/xc32/v4.21/bin/bin/../../lib/gcc/pic32c/8.3.1/arm/v5te/nofp\libgcc.a(_arm_fixsfsi.o)
 .debug_frame   0x00008760       0x24 c:/program files/microchip/xc32/v4.21/bin/bin/../../lib/gcc/pic32c/8.3.1/arm/v5te/nofp\libgcc.a(_arm_fixunssfsi.o)
 .debug_frame   0x00008784       0x2c c:/program files/microchip/xc32/v4.21/bin/bin/../../lib/gcc/pic32c/8.3.1/arm/v5te/nofp\libgcc.a(_aeabi_uldivmod.o)
 .debug_frame   0x000087b0       0x34 c:/program files/microchip/xc32/v4.21/bin/bin/../../lib/gcc/pic32c/8.3.1/arm/v5te/nofp\libgcc.a(_udivmoddi4.o)
 .debug_frame   0x000087e4       0x3c c:/program files/microchip/xc32/v4.21/bin/bin/../../lib/gcc/pic32c/8.3.1/../../../../pic32c/lib/arm/v5te/nofp\libg-musl.a(__libc_start_main.o)
 .debug_frame   0x00008820       0x58 c:/program files/microchip/xc32/v4.21/bin/bin/../../lib/gcc/pic32c/8.3.1/../../../../pic32c/lib/arm/v5te/nofp\libg-musl.a(__sio_sprintf_dosux.o)
 .debug_frame   0x00008878       0x3c c:/program files/microchip/xc32/v4.21/bin/bin/../../lib/gcc/pic32c/8.3.1/../../../../pic32c/lib/arm/v5te/nofp\libg-musl.a(__fmt_d.o)
 .debug_frame   0x000088b4       0x34 c:/program files/microchip/xc32/v4.21/bin/bin/../../lib/gcc/pic32c/8.3.1/../../../../pic32c/lib/arm/v5te/nofp\libg-musl.a(__fmt_o.o)
 .debug_frame   0x000088e8       0x38 c:/program files/microchip/xc32/v4.21/bin/bin/../../lib/gcc/pic32c/8.3.1/../../../../pic32c/lib/arm/v5te/nofp\libg-musl.a(__fmt_s.o)
 .debug_frame   0x00008920       0x5c c:/program files/microchip/xc32/v4.21/bin/bin/../../lib/gcc/pic32c/8.3.1/../../../../pic32c/lib/arm/v5te/nofp\libg-musl.a(__fmt_u.o)
 .debug_frame   0x0000897c       0x40 c:/program files/microchip/xc32/v4.21/bin/bin/../../lib/gcc/pic32c/8.3.1/../../../../pic32c/lib/arm/v5te/nofp\libg-musl.a(__fmt_x.o)
 .debug_frame   0x000089bc       0x20 c:/program files/microchip/xc32/v4.21/bin/bin/../../lib/gcc/pic32c/8.3.1/../../../../pic32c/lib/arm/v5te/nofp\libg-musl.a(__pop_int.o)
 .debug_frame   0x000089dc       0x20 c:/program files/microchip/xc32/v4.21/bin/bin/../../lib/gcc/pic32c/8.3.1/../../../../pic32c/lib/arm/v5te/nofp\libg-musl.a(__pop_ptr.o)
 .debug_frame   0x000089fc       0xd0 c:/program files/microchip/xc32/v4.21/bin/bin/../../lib/gcc/pic32c/8.3.1/../../../../pic32c/lib/arm/v5te/nofp\libg-musl.a(__printf_core.o)
 .debug_frame   0x00008acc       0x48 c:/program files/microchip/xc32/v4.21/bin/bin/../../lib/gcc/pic32c/8.3.1/../../../../pic32c/lib/arm/v5te/nofp\libg-musl.a(stdout.o)
 .debug_frame   0x00008b14       0x28 c:/program files/microchip/xc32/v4.21/bin/bin/../../lib/gcc/pic32c/8.3.1/../../../../pic32c/lib/arm/v5te/nofp\libg-musl.a(atoi.o)
 .debug_frame   0x00008b3c       0x20 c:/program files/microchip/xc32/v4.21/bin/bin/../../lib/gcc/pic32c/8.3.1/../../../../pic32c/lib/arm/v5te/nofp\libg-musl.a(memcpy.o)
 .debug_frame   0x00008b5c       0x20 c:/program files/microchip/xc32/v4.21/bin/bin/../../lib/gcc/pic32c/8.3.1/../../../../pic32c/lib/arm/v5te/nofp\libg-musl.a(memset.o)
 .debug_frame   0x00008b7c       0x20 c:/program files/microchip/xc32/v4.21/bin/bin/../../lib/gcc/pic32c/8.3.1/../../../../pic32c/lib/arm/v5te/nofp\libg-musl.a(strlen.o)
 .debug_frame   0x00008b9c       0x30 c:/program files/microchip/xc32/v4.21/bin/bin/../../lib/gcc/pic32c/8.3.1/../../../../pic32c/lib/arm/v5te/nofp\libg-musl.a(tolower.o)
 .debug_frame   0x00008bcc       0x30 c:/program files/microchip/xc32/v4.21/bin/bin/../../lib/gcc/pic32c/8.3.1/../../../../pic32c/lib/arm/v5te/nofp\libg-musl.a(toupper.o)
 .debug_frame   0x00008bfc       0x2c c:/program files/microchip/xc32/v4.21/bin/bin/../../lib/gcc/pic32c/8.3.1/../../../../pic32c/lib/arm/v5te/nofp\libg-musl.a(__int_vfprintf.o)
 .debug_frame   0x00008c28       0x20 c:/program files/microchip/xc32/v4.21/bin/bin/../../lib/gcc/pic32c/8.3.1/../../../../pic32c/lib/arm/v5te/nofp\libg-musl.a(__int_vsprintf.o)
 .debug_frame   0x00008c48       0x20 c:/program files/microchip/xc32/v4.21/bin/bin/../../lib/gcc/pic32c/8.3.1/../../../../pic32c/lib/arm/v5te/nofp\libg-musl.a(__pop_float.o)
 .debug_frame   0x00008c68       0x30 c:/program files/microchip/xc32/v4.21/bin/bin/../../lib/gcc/pic32c/8.3.1/../../../../pic32c/lib/arm/v5te/nofp\libg-musl.a(__int_vsnprintf.o)
 .debug_frame   0x00008c98       0x38 c:/program files/microchip/xc32/v4.21/bin/bin/../../lib/gcc/pic32c/8.3.1/../../../../pic32c/lib/arm/v5te/nofp\libg-musl.a(__init_stdio.o)
 .debug_frame   0x00008cd0       0x3c c:/program files/microchip/xc32/v4.21/bin/bin/../../lib/gcc/pic32c/8.3.1/../../../../pic32c/lib/arm/v5te/nofp\libg-musl.a(__out.o)
 .debug_frame   0x00008d0c       0x60 c:/program files/microchip/xc32/v4.21/bin/bin/../../lib/gcc/pic32c/8.3.1/../../../../pic32c/lib/arm/v5te/nofp\libg-musl.a(__stdio_close.o)
 .debug_frame   0x00008d6c       0x6c c:/program files/microchip/xc32/v4.21/bin/bin/../../lib/gcc/pic32c/8.3.1/../../../../pic32c/lib/arm/v5te/nofp\libg-musl.a(__stdio_seek.o)
 .debug_frame   0x00008dd8       0x40 c:/program files/microchip/xc32/v4.21/bin/bin/../../lib/gcc/pic32c/8.3.1/../../../../pic32c/lib/arm/v5te/nofp\libg-musl.a(__stdout.o)
 .debug_frame   0x00008e18       0x40 c:/program files/microchip/xc32/v4.21/bin/bin/../../lib/gcc/pic32c/8.3.1/../../../../pic32c/lib/arm/v5te/nofp\libg-musl.a(__fwrite.o)
 .debug_frame   0x00008e58       0x20 c:/program files/microchip/xc32/v4.21/bin/bin/../../lib/gcc/pic32c/8.3.1/../../../../pic32c/lib/arm/v5te/nofp\libpic32c.a(lseek.o)

.debug_loc      0x00000000    0x3f076
 .debug_loc     0x00000000     0x183e build/lcdc_rgba8888_mxt_9x60_wvga/debug/_ext/205529507/drv_i2c.o
 .debug_loc     0x0000183e     0x29b1 build/lcdc_rgba8888_mxt_9x60_wvga/debug/_ext/802015102/drv_maxtouch.o
 .debug_loc     0x000041ef      0xc89 build/lcdc_rgba8888_mxt_9x60_wvga/debug/_ext/51791817/gfx_canvas.o
 .debug_loc     0x00004e78      0xbff build/lcdc_rgba8888_mxt_9x60_wvga/debug/_ext/51791817/gfx_canvas_api.o
 .debug_loc     0x00005a77     0x2c35 build/lcdc_rgba8888_mxt_9x60_wvga/debug/_ext/95971993/gfx_driver.o
 .debug_loc     0x000086ac      0xad8 build/lcdc_rgba8888_mxt_9x60_wvga/debug/_ext/1886796627/drv_gfx_lcdc.o
 .debug_loc     0x00009184      0xe98 build/lcdc_rgba8888_mxt_9x60_wvga/debug/_ext/1483321925/legato_rect.o
 .debug_loc     0x0000a01c     0x13da build/lcdc_rgba8888_mxt_9x60_wvga/debug/_ext/1483321925/legato_pixelbuffer.o
 .debug_loc     0x0000b3f6      0xf3f build/lcdc_rgba8888_mxt_9x60_wvga/debug/_ext/1483321925/legato_utils.o
 .debug_loc     0x0000c335     0x19b1 build/lcdc_rgba8888_mxt_9x60_wvga/debug/_ext/1483321925/legato_color_convert.o
 .debug_loc     0x0000dce6      0x98c build/lcdc_rgba8888_mxt_9x60_wvga/debug/_ext/1483321925/legato_color_blend.o
 .debug_loc     0x0000e672     0x1843 build/lcdc_rgba8888_mxt_9x60_wvga/debug/_ext/1483321925/legato_math.o
 .debug_loc     0x0000feb5      0x50f build/lcdc_rgba8888_mxt_9x60_wvga/debug/_ext/1483321925/legato_color.o
 .debug_loc     0x000103c4     0x12fd build/lcdc_rgba8888_mxt_9x60_wvga/debug/_ext/1483321925/legato_color_lerp.o
 .debug_loc     0x000116c1     0x11a0 build/lcdc_rgba8888_mxt_9x60_wvga/debug/_ext/1553762159/legato_state.o
 .debug_loc     0x00012861      0x1a6 build/lcdc_rgba8888_mxt_9x60_wvga/debug/_ext/1553762159/legato_event.o
 .debug_loc     0x00012a07      0x95f build/lcdc_rgba8888_mxt_9x60_wvga/debug/_ext/1553762159/legato_input.o
 .debug_loc     0x00013366      0x12d build/lcdc_rgba8888_mxt_9x60_wvga/debug/_ext/1553762159/legato_scheme.o
 .debug_loc     0x00013493      0x8d5 build/lcdc_rgba8888_mxt_9x60_wvga/debug/_ext/1653592263/legato_array.o
 .debug_loc     0x00013d68      0xe08 build/lcdc_rgba8888_mxt_9x60_wvga/debug/_ext/1653592263/legato_list.o
 .debug_loc     0x00014b70     0x1445 build/lcdc_rgba8888_mxt_9x60_wvga/debug/_ext/1653592263/legato_rectarray.o
 .debug_loc     0x00015fb5     0x12fc build/lcdc_rgba8888_mxt_9x60_wvga/debug/_ext/1553851423/legato_font.o
 .debug_loc     0x000172b1      0x13a build/lcdc_rgba8888_mxt_9x60_wvga/debug/_ext/1849858236/le_gen_screen_Screen0.o
 .debug_loc     0x000173eb       0x40 build/lcdc_rgba8888_mxt_9x60_wvga/debug/_ext/1247075393/le_gen_init.o
 .debug_loc     0x0001742b       0x20 build/lcdc_rgba8888_mxt_9x60_wvga/debug/_ext/1247075393/le_gen_stringtable.o
 .debug_loc     0x0001744b      0x127 build/lcdc_rgba8888_mxt_9x60_wvga/debug/_ext/1247075393/le_gen_harmony.o
 .debug_loc     0x00017572      0x63b build/lcdc_rgba8888_mxt_9x60_wvga/debug/_ext/1797725076/legato_imagedecoder_jpeg.o
 .debug_loc     0x00017bad      0xe55 build/lcdc_rgba8888_mxt_9x60_wvga/debug/_ext/1797725076/legato_imagedecoder_jpeg_common.o
 .debug_loc     0x00018a02     0x18f1 build/lcdc_rgba8888_mxt_9x60_wvga/debug/_ext/1797725076/jidctint.o
 .debug_loc     0x0001a2f3      0x5c1 build/lcdc_rgba8888_mxt_9x60_wvga/debug/_ext/1797636377/legato_imagedecoder_mono.o
 .debug_loc     0x0001a8b4       0xcf build/lcdc_rgba8888_mxt_9x60_wvga/debug/_ext/1797636377/legato_imagedecoder_mono_read_internal.o
 .debug_loc     0x0001a983      0x36c build/lcdc_rgba8888_mxt_9x60_wvga/debug/_ext/1881677221/legato_imagedecoder_png.o
 .debug_loc     0x0001acef     0x9ff0 build/lcdc_rgba8888_mxt_9x60_wvga/debug/_ext/1881677221/lodepng.o
 .debug_loc     0x00024cdf      0x147 build/lcdc_rgba8888_mxt_9x60_wvga/debug/_ext/1881678756/legato_imagedecoder_raw_setup.o
 .debug_loc     0x00024e26      0x28b build/lcdc_rgba8888_mxt_9x60_wvga/debug/_ext/1881678756/legato_imagedecoder_raw_scale.o
 .debug_loc     0x000250b1       0x6a build/lcdc_rgba8888_mxt_9x60_wvga/debug/_ext/1881678756/legato_imagedecoder_raw_mask.o
 .debug_loc     0x0002511b       0xb3 build/lcdc_rgba8888_mxt_9x60_wvga/debug/_ext/1881678756/legato_imagedecoder_raw_convert.o
 .debug_loc     0x000251ce      0x3db build/lcdc_rgba8888_mxt_9x60_wvga/debug/_ext/1881678756/legato_imagedecoder_raw_read_internal.o
 .debug_loc     0x000255a9      0x114 build/lcdc_rgba8888_mxt_9x60_wvga/debug/_ext/1881678756/legato_imagedecoder_raw_write.o
 .debug_loc     0x000256bd      0x1d9 build/lcdc_rgba8888_mxt_9x60_wvga/debug/_ext/1881678756/legato_imagedecoder_raw_blend.o
 .debug_loc     0x00025896      0x101 build/lcdc_rgba8888_mxt_9x60_wvga/debug/_ext/1881678756/legato_imagedecoder_raw_palette_internal.o
 .debug_loc     0x00025997      0xe04 build/lcdc_rgba8888_mxt_9x60_wvga/debug/_ext/1881678756/legato_imagedecoder_raw.o
 .debug_loc     0x0002679b      0x2e0 build/lcdc_rgba8888_mxt_9x60_wvga/debug/_ext/1881678756/legato_imagedecoder_raw_rotate.o
 .debug_loc     0x00026a7b      0x553 build/lcdc_rgba8888_mxt_9x60_wvga/debug/_ext/927452043/legato_image_utils.o
 .debug_loc     0x00026fce      0xb36 build/lcdc_rgba8888_mxt_9x60_wvga/debug/_ext/927452043/legato_image.o
 .debug_loc     0x00027b04      0x6fc build/lcdc_rgba8888_mxt_9x60_wvga/debug/_ext/1206263599/legato_memory.o
 .debug_loc     0x00028200      0x2fc build/lcdc_rgba8888_mxt_9x60_wvga/debug/_ext/1206263599/legato_fixedheap.o
 .debug_loc     0x000284fc     0x1573 build/lcdc_rgba8888_mxt_9x60_wvga/debug/_ext/1206263599/legato_variableheap.o
 .debug_loc     0x00029a6f      0x51b build/lcdc_rgba8888_mxt_9x60_wvga/debug/_ext/564048019/legato_draw_rect.o
 .debug_loc     0x00029f8a      0xf57 build/lcdc_rgba8888_mxt_9x60_wvga/debug/_ext/564048019/legato_draw.o
 .debug_loc     0x0002aee1      0x87b build/lcdc_rgba8888_mxt_9x60_wvga/debug/_ext/564048019/legato_draw_line.o
 .debug_loc     0x0002b75c      0xc6c build/lcdc_rgba8888_mxt_9x60_wvga/debug/_ext/564048019/legato_renderer.o
 .debug_loc     0x0002c3c8     0x1143 build/lcdc_rgba8888_mxt_9x60_wvga/debug/_ext/564048019/legato_draw_arc.o
 .debug_loc     0x0002d50b      0x862 build/lcdc_rgba8888_mxt_9x60_wvga/debug/_ext/564048019/legato_gpu.o
 .debug_loc     0x0002dd6d     0x22b9 build/lcdc_rgba8888_mxt_9x60_wvga/debug/_ext/1020492831/legato_stringutils.o
 .debug_loc     0x00030026      0x7cf build/lcdc_rgba8888_mxt_9x60_wvga/debug/_ext/1020492831/legato_tablestring.o
 .debug_loc     0x000307f5      0x61b build/lcdc_rgba8888_mxt_9x60_wvga/debug/_ext/1020492831/legato_stringtable.o
 .debug_loc     0x00030e10      0xca5 build/lcdc_rgba8888_mxt_9x60_wvga/debug/_ext/1020492831/legato_fixedstring.o
 .debug_loc     0x00031ab5      0x67b build/lcdc_rgba8888_mxt_9x60_wvga/debug/_ext/1020492831/legato_string_renderer.o
 .debug_loc     0x00032130      0x983 build/lcdc_rgba8888_mxt_9x60_wvga/debug/_ext/1020492831/legato_string.o
 .debug_loc     0x00032ab3      0xa94 build/lcdc_rgba8888_mxt_9x60_wvga/debug/_ext/424260723/legato_widget_button.o
 .debug_loc     0x00033547      0x4c7 build/lcdc_rgba8888_mxt_9x60_wvga/debug/_ext/424260723/legato_widget_button_skin_classic.o
 .debug_loc     0x00033a0e      0x235 build/lcdc_rgba8888_mxt_9x60_wvga/debug/_ext/1808593504/legato_widget_image.o
 .debug_loc     0x00033c43      0x25d build/lcdc_rgba8888_mxt_9x60_wvga/debug/_ext/1808593504/legato_widget_image_skin_classic.o
 .debug_loc     0x00033ea0      0x290 build/lcdc_rgba8888_mxt_9x60_wvga/debug/_ext/1806179527/legato_widget_label_skin_classic.o
 .debug_loc     0x00034130      0x309 build/lcdc_rgba8888_mxt_9x60_wvga/debug/_ext/1806179527/legato_widget_label.o
 .debug_loc     0x00034439      0x21a build/lcdc_rgba8888_mxt_9x60_wvga/debug/_ext/2047371060/legato_widget_rectangle_skin_classic.o
 .debug_loc     0x00034653      0x1a7 build/lcdc_rgba8888_mxt_9x60_wvga/debug/_ext/2047371060/legato_widget_rectangle.o
 .debug_loc     0x000347fa      0x148 build/lcdc_rgba8888_mxt_9x60_wvga/debug/_ext/916554220/legato_widget_skin_classic.o
 .debug_loc     0x00034942      0xc51 build/lcdc_rgba8888_mxt_9x60_wvga/debug/_ext/916554220/legato_widget_skin_classic_common.o
 .debug_loc     0x00035593     0x244a build/lcdc_rgba8888_mxt_9x60_wvga/debug/_ext/916554220/legato_widget.o
 .debug_loc     0x000379dd      0x110 build/lcdc_rgba8888_mxt_9x60_wvga/debug/_ext/107307971/plib_aic.o
 .debug_loc     0x00037aed       0x4e build/lcdc_rgba8888_mxt_9x60_wvga/debug/_ext/107309994/plib_clk.o
 .debug_loc     0x00037b3b      0x7e8 build/lcdc_rgba8888_mxt_9x60_wvga/debug/_ext/1221451702/plib_flexcom0_twi_master.o
 .debug_loc     0x00038323      0xa45 build/lcdc_rgba8888_mxt_9x60_wvga/debug/_ext/968098130/plib_lcdc.o
 .debug_loc     0x00038d68      0x6ce build/lcdc_rgba8888_mxt_9x60_wvga/debug/_ext/107319645/plib_mmu.o
 .debug_loc     0x00039436       0x94 build/lcdc_rgba8888_mxt_9x60_wvga/debug/_ext/107322398/plib_pio.o
 .debug_loc     0x000394ca      0x1f3 build/lcdc_rgba8888_mxt_9x60_wvga/debug/_ext/107324666/plib_rtt.o
 .debug_loc     0x000396bd       0x7b build/lcdc_rgba8888_mxt_9x60_wvga/debug/_ext/273632537/plib_tc1.o
 .debug_loc     0x00039738       0xd6 build/lcdc_rgba8888_mxt_9x60_wvga/debug/_ext/273632537/plib_tc0.o
 .debug_loc     0x0003980e       0x4a build/lcdc_rgba8888_mxt_9x60_wvga/debug/_ext/129769842/xc32_monitor.o
 .debug_loc     0x00039858      0x70e build/lcdc_rgba8888_mxt_9x60_wvga/debug/_ext/256753733/sys_input.o
 .debug_loc     0x00039f66      0x53a build/lcdc_rgba8888_mxt_9x60_wvga/debug/_ext/1928812927/sys_int.o
 .debug_loc     0x0003a4a0     0x1cd1 build/lcdc_rgba8888_mxt_9x60_wvga/debug/_ext/1359593799/sys_time.o
 .debug_loc     0x0003c171       0x20 build/lcdc_rgba8888_mxt_9x60_wvga/debug/_ext/1455094228/interrupts.o
 .debug_loc     0x0003c191       0xe3 build/lcdc_rgba8888_mxt_9x60_wvga/debug/_ext/1455094228/initialization.o
 .debug_loc     0x0003c274       0x20 build/lcdc_rgba8888_mxt_9x60_wvga/debug/_ext/1455094228/tasks.o
 .debug_loc     0x0003c294      0x91f build/lcdc_rgba8888_mxt_9x60_wvga/debug/_ext/1360937237/app.o
 .debug_loc     0x0003cbb3       0x20 build/lcdc_rgba8888_mxt_9x60_wvga/debug/_ext/1360937237/main.o
 .debug_loc     0x0003cbd3      0x318 c:/program files/microchip/xc32/v4.21/bin/bin/../../lib/gcc/pic32c/8.3.1/arm/v5te/nofp\libgcc.a(_udivmoddi4.o)
 .debug_loc     0x0003ceeb       0x51 c:/program files/microchip/xc32/v4.21/bin/bin/../../lib/gcc/pic32c/8.3.1/../../../../pic32c/lib/arm/v5te/nofp\libg-musl.a(__libc_start_main.o)
 .debug_loc     0x0003cf3c       0xb6 c:/program files/microchip/xc32/v4.21/bin/bin/../../lib/gcc/pic32c/8.3.1/../../../../pic32c/lib/arm/v5te/nofp\libg-musl.a(__sio_sprintf_dosux.o)
 .debug_loc     0x0003cff2      0x1cf c:/program files/microchip/xc32/v4.21/bin/bin/../../lib/gcc/pic32c/8.3.1/../../../../pic32c/lib/arm/v5te/nofp\libg-musl.a(__fmt_d.o)
 .debug_loc     0x0003d1c1      0x10a c:/program files/microchip/xc32/v4.21/bin/bin/../../lib/gcc/pic32c/8.3.1/../../../../pic32c/lib/arm/v5te/nofp\libg-musl.a(__fmt_o.o)
 .debug_loc     0x0003d2cb      0x1db c:/program files/microchip/xc32/v4.21/bin/bin/../../lib/gcc/pic32c/8.3.1/../../../../pic32c/lib/arm/v5te/nofp\libg-musl.a(__fmt_s.o)
 .debug_loc     0x0003d4a6      0x26f c:/program files/microchip/xc32/v4.21/bin/bin/../../lib/gcc/pic32c/8.3.1/../../../../pic32c/lib/arm/v5te/nofp\libg-musl.a(__fmt_u.o)
 .debug_loc     0x0003d715      0x256 c:/program files/microchip/xc32/v4.21/bin/bin/../../lib/gcc/pic32c/8.3.1/../../../../pic32c/lib/arm/v5te/nofp\libg-musl.a(__fmt_x.o)
 .debug_loc     0x0003d96b      0x2c8 c:/program files/microchip/xc32/v4.21/bin/bin/../../lib/gcc/pic32c/8.3.1/../../../../pic32c/lib/arm/v5te/nofp\libg-musl.a(__pop_int.o)
 .debug_loc     0x0003dc33      0x181 c:/program files/microchip/xc32/v4.21/bin/bin/../../lib/gcc/pic32c/8.3.1/../../../../pic32c/lib/arm/v5te/nofp\libg-musl.a(__pop_ptr.o)
 .debug_loc     0x0003ddb4      0x594 c:/program files/microchip/xc32/v4.21/bin/bin/../../lib/gcc/pic32c/8.3.1/../../../../pic32c/lib/arm/v5te/nofp\libg-musl.a(__printf_core.o)
 .debug_loc     0x0003e348       0x20 c:/program files/microchip/xc32/v4.21/bin/bin/../../lib/gcc/pic32c/8.3.1/../../../../pic32c/lib/arm/v5te/nofp\libg-musl.a(stdout.o)
 .debug_loc     0x0003e368       0xe7 c:/program files/microchip/xc32/v4.21/bin/bin/../../lib/gcc/pic32c/8.3.1/../../../../pic32c/lib/arm/v5te/nofp\libg-musl.a(atoi.o)
 .debug_loc     0x0003e44f       0xc5 c:/program files/microchip/xc32/v4.21/bin/bin/../../lib/gcc/pic32c/8.3.1/../../../../pic32c/lib/arm/v5te/nofp\libg-musl.a(memcpy.o)
 .debug_loc     0x0003e514       0x56 c:/program files/microchip/xc32/v4.21/bin/bin/../../lib/gcc/pic32c/8.3.1/../../../../pic32c/lib/arm/v5te/nofp\libg-musl.a(memset.o)
 .debug_loc     0x0003e56a       0x47 c:/program files/microchip/xc32/v4.21/bin/bin/../../lib/gcc/pic32c/8.3.1/../../../../pic32c/lib/arm/v5te/nofp\libg-musl.a(strlen.o)
 .debug_loc     0x0003e5b1       0x4a c:/program files/microchip/xc32/v4.21/bin/bin/../../lib/gcc/pic32c/8.3.1/../../../../pic32c/lib/arm/v5te/nofp\libg-musl.a(tolower.o)
 .debug_loc     0x0003e5fb       0x4a c:/program files/microchip/xc32/v4.21/bin/bin/../../lib/gcc/pic32c/8.3.1/../../../../pic32c/lib/arm/v5te/nofp\libg-musl.a(toupper.o)
 .debug_loc     0x0003e645       0x88 c:/program files/microchip/xc32/v4.21/bin/bin/../../lib/gcc/pic32c/8.3.1/../../../../pic32c/lib/arm/v5te/nofp\libg-musl.a(__int_vfprintf.o)
 .debug_loc     0x0003e6cd       0x6c c:/program files/microchip/xc32/v4.21/bin/bin/../../lib/gcc/pic32c/8.3.1/../../../../pic32c/lib/arm/v5te/nofp\libg-musl.a(__int_vsprintf.o)
 .debug_loc     0x0003e739       0xa6 c:/program files/microchip/xc32/v4.21/bin/bin/../../lib/gcc/pic32c/8.3.1/../../../../pic32c/lib/arm/v5te/nofp\libg-musl.a(__pop_float.o)
 .debug_loc     0x0003e7df      0x12a c:/program files/microchip/xc32/v4.21/bin/bin/../../lib/gcc/pic32c/8.3.1/../../../../pic32c/lib/arm/v5te/nofp\libg-musl.a(__int_vsnprintf.o)
 .debug_loc     0x0003e909       0x20 c:/program files/microchip/xc32/v4.21/bin/bin/../../lib/gcc/pic32c/8.3.1/../../../../pic32c/lib/arm/v5te/nofp\libg-musl.a(__init_stdio.o)
 .debug_loc     0x0003e929      0x1ae c:/program files/microchip/xc32/v4.21/bin/bin/../../lib/gcc/pic32c/8.3.1/../../../../pic32c/lib/arm/v5te/nofp\libg-musl.a(__out.o)
 .debug_loc     0x0003ead7      0x20e c:/program files/microchip/xc32/v4.21/bin/bin/../../lib/gcc/pic32c/8.3.1/../../../../pic32c/lib/arm/v5te/nofp\libg-musl.a(__stdio_close.o)
 .debug_loc     0x0003ece5      0x262 c:/program files/microchip/xc32/v4.21/bin/bin/../../lib/gcc/pic32c/8.3.1/../../../../pic32c/lib/arm/v5te/nofp\libg-musl.a(__stdio_seek.o)
 .debug_loc     0x0003ef47       0x25 c:/program files/microchip/xc32/v4.21/bin/bin/../../lib/gcc/pic32c/8.3.1/../../../../pic32c/lib/arm/v5te/nofp\libg-musl.a(__stdout.o)
 .debug_loc     0x0003ef6c      0x10a c:/program files/microchip/xc32/v4.21/bin/bin/../../lib/gcc/pic32c/8.3.1/../../../../pic32c/lib/arm/v5te/nofp\libg-musl.a(__fwrite.o)

.note.GNU-stack
                0x00000000        0x0
 .note.GNU-stack
                0x00000000        0x0 c:/program files/microchip/xc32/v4.21/bin/bin/../../lib/gcc/pic32c/8.3.1/../../../../pic32c/lib/arm/v5te/nofp\libg-musl.a(__libc_start_main.o)
 .note.GNU-stack
                0x00000000        0x0 c:/program files/microchip/xc32/v4.21/bin/bin/../../lib/gcc/pic32c/8.3.1/../../../../pic32c/lib/arm/v5te/nofp\libg-musl.a(libc.o)
 .note.GNU-stack
                0x00000000        0x0 c:/program files/microchip/xc32/v4.21/bin/bin/../../lib/gcc/pic32c/8.3.1/../../../../pic32c/lib/arm/v5te/nofp\libg-musl.a(__sio_sprintf_dosux.o)
 .note.GNU-stack
                0x00000000        0x0 c:/program files/microchip/xc32/v4.21/bin/bin/../../lib/gcc/pic32c/8.3.1/../../../../pic32c/lib/arm/v5te/nofp\libg-musl.a(__fmt_d.o)
 .note.GNU-stack
                0x00000000        0x0 c:/program files/microchip/xc32/v4.21/bin/bin/../../lib/gcc/pic32c/8.3.1/../../../../pic32c/lib/arm/v5te/nofp\libg-musl.a(__fmt_o.o)
 .note.GNU-stack
                0x00000000        0x0 c:/program files/microchip/xc32/v4.21/bin/bin/../../lib/gcc/pic32c/8.3.1/../../../../pic32c/lib/arm/v5te/nofp\libg-musl.a(__fmt_s.o)
 .note.GNU-stack
                0x00000000        0x0 c:/program files/microchip/xc32/v4.21/bin/bin/../../lib/gcc/pic32c/8.3.1/../../../../pic32c/lib/arm/v5te/nofp\libg-musl.a(__fmt_u.o)
 .note.GNU-stack
                0x00000000        0x0 c:/program files/microchip/xc32/v4.21/bin/bin/../../lib/gcc/pic32c/8.3.1/../../../../pic32c/lib/arm/v5te/nofp\libg-musl.a(__fmt_x.o)
 .note.GNU-stack
                0x00000000        0x0 c:/program files/microchip/xc32/v4.21/bin/bin/../../lib/gcc/pic32c/8.3.1/../../../../pic32c/lib/arm/v5te/nofp\libg-musl.a(__pop_int.o)
 .note.GNU-stack
                0x00000000        0x0 c:/program files/microchip/xc32/v4.21/bin/bin/../../lib/gcc/pic32c/8.3.1/../../../../pic32c/lib/arm/v5te/nofp\libg-musl.a(__pop_ptr.o)
 .note.GNU-stack
                0x00000000        0x0 c:/program files/microchip/xc32/v4.21/bin/bin/../../lib/gcc/pic32c/8.3.1/../../../../pic32c/lib/arm/v5te/nofp\libg-musl.a(__printf_core.o)
 .note.GNU-stack
                0x00000000        0x0 c:/program files/microchip/xc32/v4.21/bin/bin/../../lib/gcc/pic32c/8.3.1/../../../../pic32c/lib/arm/v5te/nofp\libg-musl.a(stdout.o)
 .note.GNU-stack
                0x00000000        0x0 c:/program files/microchip/xc32/v4.21/bin/bin/../../lib/gcc/pic32c/8.3.1/../../../../pic32c/lib/arm/v5te/nofp\libg-musl.a(atoi.o)
 .note.GNU-stack
                0x00000000        0x0 c:/program files/microchip/xc32/v4.21/bin/bin/../../lib/gcc/pic32c/8.3.1/../../../../pic32c/lib/arm/v5te/nofp\libg-musl.a(memcpy.o)
 .note.GNU-stack
                0x00000000        0x0 c:/program files/microchip/xc32/v4.21/bin/bin/../../lib/gcc/pic32c/8.3.1/../../../../pic32c/lib/arm/v5te/nofp\libg-musl.a(memset.o)
 .note.GNU-stack
                0x00000000        0x0 c:/program files/microchip/xc32/v4.21/bin/bin/../../lib/gcc/pic32c/8.3.1/../../../../pic32c/lib/arm/v5te/nofp\libg-musl.a(strlen.o)
 .note.GNU-stack
                0x00000000        0x0 c:/program files/microchip/xc32/v4.21/bin/bin/../../lib/gcc/pic32c/8.3.1/../../../../pic32c/lib/arm/v5te/nofp\libg-musl.a(tolower.o)
 .note.GNU-stack
                0x00000000        0x0 c:/program files/microchip/xc32/v4.21/bin/bin/../../lib/gcc/pic32c/8.3.1/../../../../pic32c/lib/arm/v5te/nofp\libg-musl.a(toupper.o)
 .note.GNU-stack
                0x00000000        0x0 c:/program files/microchip/xc32/v4.21/bin/bin/../../lib/gcc/pic32c/8.3.1/../../../../pic32c/lib/arm/v5te/nofp\libg-musl.a(__environ.o)
 .note.GNU-stack
                0x00000000        0x0 c:/program files/microchip/xc32/v4.21/bin/bin/../../lib/gcc/pic32c/8.3.1/../../../../pic32c/lib/arm/v5te/nofp\libg-musl.a(__errno_location.o)
 .note.GNU-stack
                0x00000000        0x0 c:/program files/microchip/xc32/v4.21/bin/bin/../../lib/gcc/pic32c/8.3.1/../../../../pic32c/lib/arm/v5te/nofp\libg-musl.a(__int_vfprintf.o)
 .note.GNU-stack
                0x00000000        0x0 c:/program files/microchip/xc32/v4.21/bin/bin/../../lib/gcc/pic32c/8.3.1/../../../../pic32c/lib/arm/v5te/nofp\libg-musl.a(__int_vsprintf.o)
 .note.GNU-stack
                0x00000000        0x0 c:/program files/microchip/xc32/v4.21/bin/bin/../../lib/gcc/pic32c/8.3.1/../../../../pic32c/lib/arm/v5te/nofp\libg-musl.a(__pop_float.o)
 .note.GNU-stack
                0x00000000        0x0 c:/program files/microchip/xc32/v4.21/bin/bin/../../lib/gcc/pic32c/8.3.1/../../../../pic32c/lib/arm/v5te/nofp\libg-musl.a(__int_vsnprintf.o)
 .note.GNU-stack
                0x00000000        0x0 c:/program files/microchip/xc32/v4.21/bin/bin/../../lib/gcc/pic32c/8.3.1/../../../../pic32c/lib/arm/v5te/nofp\libg-musl.a(__init_stdio.o)
 .note.GNU-stack
                0x00000000        0x0 c:/program files/microchip/xc32/v4.21/bin/bin/../../lib/gcc/pic32c/8.3.1/../../../../pic32c/lib/arm/v5te/nofp\libg-musl.a(__out.o)
 .note.GNU-stack
                0x00000000        0x0 c:/program files/microchip/xc32/v4.21/bin/bin/../../lib/gcc/pic32c/8.3.1/../../../../pic32c/lib/arm/v5te/nofp\libg-musl.a(__stdio_close.o)
 .note.GNU-stack
                0x00000000        0x0 c:/program files/microchip/xc32/v4.21/bin/bin/../../lib/gcc/pic32c/8.3.1/../../../../pic32c/lib/arm/v5te/nofp\libg-musl.a(__stdio_seek.o)
 .note.GNU-stack
                0x00000000        0x0 c:/program files/microchip/xc32/v4.21/bin/bin/../../lib/gcc/pic32c/8.3.1/../../../../pic32c/lib/arm/v5te/nofp\libg-musl.a(__stdout.o)
 .note.GNU-stack
                0x00000000        0x0 c:/program files/microchip/xc32/v4.21/bin/bin/../../lib/gcc/pic32c/8.3.1/../../../../pic32c/lib/arm/v5te/nofp\libg-musl.a(__fwrite.o)

__xc_reference_data
                0x00000000       0x68
 __xc_reference_data
                0x00000000        0x4 c:/program files/microchip/xc32/v4.21/bin/bin/../../lib/gcc/pic32c/8.3.1/../../../../pic32c/lib/arm/v5te/nofp\libg-musl.a(stdout.o)
                0x00000000                __stdout_needs_init
 __xc_reference_data
                0x00000004       0x10 c:/program files/microchip/xc32/v4.21/bin/bin/../../lib/gcc/pic32c/8.3.1/../../../../pic32c/lib/arm/v5te/nofp\libg-musl.a(__io_init_needed.o)
                0x00000004                __io_init_needed
                0x00000010                __io_init_needs_file
 __xc_reference_data
                0x00000014        0xc c:/program files/microchip/xc32/v4.21/bin/bin/../../lib/gcc/pic32c/8.3.1/../../../../pic32c/lib/arm/v5te/nofp\libg-musl.a(__io_file_needed.o)
                0x00000014                __io_file_needed
 __xc_reference_data
                0x00000020       0x40 c:/program files/microchip/xc32/v4.21/bin/bin/../../lib/gcc/pic32c/8.3.1/../../../../pic32c/lib/arm/v5te/nofp\libg-musl.a(__io_std_needed.o)
                0x00000020                __io_std_needed
 __xc_reference_data
                0x00000060        0x4 c:/program files/microchip/xc32/v4.21/bin/bin/../../lib/gcc/pic32c/8.3.1/../../../../pic32c/lib/arm/v5te/nofp\libg-musl.a(__stdout.o)
                0x00000060                __stdout_needs_file
 __xc_reference_data
                0x00000064        0x4 c:/program files/microchip/xc32/v4.21/bin/bin/../../lib/gcc/pic32c/8.3.1/../../../../pic32c/lib/arm/v5te/nofp\libg-musl.a(__fwrite.o)
                0x00000064                __fwrite_needs_std

.stack          0x249868c0      0x100
 .stack         0x249868c0      0x100 stack

.eh_frame%z1    0x00000000        0x0
 .eh_frame      0x00000000        0x0 c:/program files/microchip/xc32/v4.21/bin/bin/../../lib/gcc/pic32c/8.3.1/arm/v5te/nofp/crtbegin.o
